 TrainOps

 Timestamp is 505e3ecd (Sat Sep 22 18:42:21 2012)

 Preferred load address is 00400000

 Start         Length     Name                   Class
 0001:00000000 0006ba8cH .text                   CODE
 0001:0006ba90 000099bcH .text$x                 CODE
 0002:00000000 00000fd4H .idata$5                DATA
 0002:00000fd8 00007fccH .rdata                  DATA
 0002:00008fa8 0000008cH .rdata$r                DATA
 0002:00009038 0000aa20H .xdata$x                DATA
 0002:00013a58 0000012cH .idata$2                DATA
 0002:00013b84 00000014H .idata$3                DATA
 0002:00013b98 00000fd4H .idata$4                DATA
 0002:00014b6c 00002040H .idata$6                DATA
 0002:00016bac 00000000H .edata                  DATA
 0003:00000000 00000004H .CRT$XCA                DATA
 0003:00000004 00000004H .CRT$XCL                DATA
 0003:00000008 000000a8H .CRT$XCU                DATA
 0003:000000b0 00000004H .CRT$XCZ                DATA
 0003:000000b4 00000004H .CRT$XIA                DATA
 0003:000000b8 00000004H .CRT$XIZ                DATA
 0003:000000c0 0000bf20H .data                   DATA
 0003:0000bfe0 00000ad8H .bss                    DATA
 0004:00000000 00000ef0H .rsrc$01                DATA
 0004:00000ef0 00024fd0H .rsrc$02                DATA

  Address         Publics by Value              Rva+Base     Lib:Object

 0001:00000000       ?getBitAt@Config@@SA_NHH@Z 00401000 f   Config.obj
 0001:00000010       ??0CAboutDialog@@QAE@XZ    00401010 f   AboutDialog.obj
 0001:000000f0       ??_ECAboutDialog@@UAEPAXI@Z 004010f0 f i AboutDialog.obj
 0001:000000f0       ??_GCAboutDialog@@UAEPAXI@Z 004010f0 f i AboutDialog.obj
 0001:00000110       ??1CAboutDialog@@UAE@XZ    00401110 f i AboutDialog.obj
 0001:000001a0       ?DoDataExchange@CAboutDialog@@MAEXPAVCDataExchange@@@Z 004011a0 f   AboutDialog.obj
 0001:00000210       ?_GetBaseMessageMap@CAboutDialog@@KGPBUAFX_MSGMAP@@XZ 00401210 f   AboutDialog.obj
 0001:00000220       ?GetMessageMap@CAboutDialog@@MBEPBUAFX_MSGMAP@@XZ 00401220 f   AboutDialog.obj
 0001:00000230       ?OnInitDialog@CAboutDialog@@MAEHXZ 00401230 f   AboutDialog.obj
 0001:000003e0       ?Serialize@CObject@@UAEXAAVCArchive@@@Z 004013e0 f i AboutDialog.obj
 0001:000003f0       ?AssertValid@CObject@@UBEXXZ 004013f0 f i AboutDialog.obj
 0001:00000400       ?Dump@CObject@@UBEXAAVCDumpContext@@@Z 00401400 f i AboutDialog.obj
 0001:00000410       ?BeginModalState@CWnd@@UAEXXZ 00401410 f i AboutDialog.obj
 0001:00000420       ?EndModalState@CWnd@@UAEXXZ 00401420 f i AboutDialog.obj
 0001:00000430       ??0CCabooseDetailDialog@@QAE@PAVCWnd@@@Z 00401430 f   CabooseDetailDialog.obj
 0001:00000520       ??_GCCabooseDetailDialog@@UAEPAXI@Z 00401520 f i CabooseDetailDialog.obj
 0001:00000520       ??_ECCabooseDetailDialog@@UAEPAXI@Z 00401520 f i CabooseDetailDialog.obj
 0001:00000540       ??1CCabooseDetailDialog@@UAE@XZ 00401540 f i CabooseDetailDialog.obj
 0001:000005c0       ?DoDataExchange@CCabooseDetailDialog@@MAEXPAVCDataExchange@@@Z 004015c0 f   CabooseDetailDialog.obj
 0001:00000650       ?_GetBaseMessageMap@CCabooseDetailDialog@@KGPBUAFX_MSGMAP@@XZ 00401650 f   CabooseDetailDialog.obj
 0001:00000660       ?GetMessageMap@CCabooseDetailDialog@@MBEPBUAFX_MSGMAP@@XZ 00401660 f   CabooseDetailDialog.obj
 0001:00000670       ?OnInitDialog@CCabooseDetailDialog@@MAEHXZ 00401670 f   CabooseDetailDialog.obj
 0001:00000850       ?OnOK@CCabooseDetailDialog@@MAEXXZ 00401850 f   CabooseDetailDialog.obj
 0001:00000a20       ?DoDataExchange@CWnd@@MAEXPAVCDataExchange@@@Z 00401a20 f i CabooseDetailDialog.obj
 0001:00000a30       ??_ECDateTimeCtrl@@UAEPAXI@Z 00401a30 f i CabooseDetailDialog.obj
 0001:00000a30       ??_GCDateTimeCtrl@@UAEPAXI@Z 00401a30 f i CabooseDetailDialog.obj
 0001:00000a50       ??0CCabooseDialog@@QAE@PAVCWnd@@@Z 00401a50 f   CabooseDialog.obj
 0001:00000af0       ??_ECCabooseDialog@@UAEPAXI@Z 00401af0 f i CabooseDialog.obj
 0001:00000af0       ??_GCCabooseDialog@@UAEPAXI@Z 00401af0 f i CabooseDialog.obj
 0001:00000b10       ??1CCabooseDialog@@UAE@XZ  00401b10 f i CabooseDialog.obj
 0001:00000b90       ?DoDataExchange@CCabooseDialog@@MAEXPAVCDataExchange@@@Z 00401b90 f   CabooseDialog.obj
 0001:00000bf0       ?_GetBaseMessageMap@CCabooseDialog@@KGPBUAFX_MSGMAP@@XZ 00401bf0 f   CabooseDialog.obj
 0001:00000c00       ?GetMessageMap@CCabooseDialog@@MBEPBUAFX_MSGMAP@@XZ 00401c00 f   CabooseDialog.obj
 0001:00000c10       ?OnInitDialog@CCabooseDialog@@MAEHXZ 00401c10 f   CabooseDialog.obj
 0001:00000c60       ?ReadDB@CCabooseDialog@@IAEXXZ 00401c60 f   CabooseDialog.obj
 0001:00000dc0       ?OnOK@CCabooseDialog@@MAEXXZ 00401dc0 f   CabooseDialog.obj
 0001:00000dd0       ?OnEditbutton@CCabooseDialog@@IAEXXZ 00401dd0 f   CabooseDialog.obj
 0001:00000ec0       ?OnDeletebutton@CCabooseDialog@@IAEXXZ 00401ec0 f   CabooseDialog.obj
 0001:00000fa0       ?OnAddbutton@CCabooseDialog@@IAEXXZ 00401fa0 f   CabooseDialog.obj
 0001:00001060       ?OnClickCabooselist@CCabooseDialog@@IAEXPAUtagNMHDR@@PAJ@Z 00402060 f   CabooseDialog.obj
 0001:000010a0       ?OnDblclkCabooselist@CCabooseDialog@@IAEXPAUtagNMHDR@@PAJ@Z 004020a0 f   CabooseDialog.obj
 0001:000011a0       ??_ECButton@@UAEPAXI@Z     004021a0 f i CabooseDialog.obj
 0001:000011a0       ??_GCButton@@UAEPAXI@Z     004021a0 f i CabooseDialog.obj
 0001:000011c0       ??0CCarLocationTrainsDialog@@QAE@PAVCWnd@@@Z 004021c0 f   CarLocationTrainsDialog.obj
 0001:00001250       ??_ECCarLocationTrainsDialog@@UAEPAXI@Z 00402250 f i CarLocationTrainsDialog.obj
 0001:00001250       ??_GCCarLocationTrainsDialog@@UAEPAXI@Z 00402250 f i CarLocationTrainsDialog.obj
 0001:00001270       ??1CCarLocationTrainsDialog@@UAE@XZ 00402270 f i CarLocationTrainsDialog.obj
 0001:000012e0       ?DoDataExchange@CCarLocationTrainsDialog@@MAEXPAVCDataExchange@@@Z 004022e0 f   CarLocationTrainsDialog.obj
 0001:00001320       ?_GetBaseMessageMap@CCarLocationTrainsDialog@@KGPBUAFX_MSGMAP@@XZ 00402320 f   CarLocationTrainsDialog.obj
 0001:00001330       ?GetMessageMap@CCarLocationTrainsDialog@@MBEPBUAFX_MSGMAP@@XZ 00402330 f   CarLocationTrainsDialog.obj
 0001:00001340       ?OnInitDialog@CCarLocationTrainsDialog@@MAEHXZ 00402340 f   CarLocationTrainsDialog.obj
 0001:000014e0       ?OnItemchangedTrainlist@CCarLocationTrainsDialog@@IAEXPAUtagNMHDR@@PAJ@Z 004024e0 f   CarLocationTrainsDialog.obj
 0001:00001510       ?OnReportbutton@CCarLocationTrainsDialog@@IAEXXZ 00402510 f   CarLocationTrainsDialog.obj
 0001:00001540       ?OnReportSortedButton@CCarLocationTrainsDialog@@IAEXXZ 00402540 f   CarLocationTrainsDialog.obj
 0001:00001570       ??0CCarsDialog@@QAE@PAVCWnd@@@Z 00402570 f   CarsDialog.obj
 0001:00001640       ??_ECCarsDialog@@UAEPAXI@Z 00402640 f i CarsDialog.obj
 0001:00001640       ??_GCCarsDialog@@UAEPAXI@Z 00402640 f i CarsDialog.obj
 0001:00001660       ??1CCarsDialog@@UAE@XZ     00402660 f i CarsDialog.obj
 0001:000016f0       ?DoDataExchange@CCarsDialog@@MAEXPAVCDataExchange@@@Z 004026f0 f   CarsDialog.obj
 0001:00001770       ?_GetBaseMessageMap@CCarsDialog@@KGPBUAFX_MSGMAP@@XZ 00402770 f   CarsDialog.obj
 0001:00001780       ?GetMessageMap@CCarsDialog@@MBEPBUAFX_MSGMAP@@XZ 00402780 f   CarsDialog.obj
 0001:00001790       ?OnInitDialog@CCarsDialog@@MAEHXZ 00402790 f   CarsDialog.obj
 0001:00001890       ?ReadDB@CCarsDialog@@IAEXXZ 00402890 f   CarsDialog.obj
 0001:00001b00       ?OnAddcars@CCarsDialog@@IAEXXZ 00402b00 f   CarsDialog.obj
 0001:00001ce0       ?OnOK@CCarsDialog@@MAEXXZ  00402ce0 f   CarsDialog.obj
 0001:00001d10       ?OnEditCarsButton@CCarsDialog@@IAEXXZ 00402d10 f   CarsDialog.obj
 0001:00001df0       ??1CCarsListDialog@@UAE@XZ 00402df0 f i CarsDialog.obj
 0001:00001e60       ?OnDblclkCarslist@CCarsDialog@@IAEXPAUtagNMHDR@@PAJ@Z 00402e60 f   CarsDialog.obj
 0001:00001f50       ?OnClickCarslist@CCarsDialog@@IAEXPAUtagNMHDR@@PAJ@Z 00402f50 f   CarsDialog.obj
 0001:00001fa0       ?GetCarUsage@CCarsDialog@@IAEMH@Z 00402fa0 f   CarsDialog.obj
 0001:00002210       ?OnClose@CCarsDialog@@IAEXXZ 00403210 f   CarsDialog.obj
 0001:00002240       ??_ECComboBox@@UAEPAXI@Z   00403240 f i CarsDialog.obj
 0001:00002240       ??_GCComboBox@@UAEPAXI@Z   00403240 f i CarsDialog.obj
 0001:00002260       ??0CCarsListDialog@@QAE@PAVCWnd@@@Z 00403260 f   CarsListDialog.obj
 0001:00002300       ??_ECCarsListDialog@@UAEPAXI@Z 00403300 f i CarsListDialog.obj
 0001:00002300       ??_GCCarsListDialog@@UAEPAXI@Z 00403300 f i CarsListDialog.obj
 0001:00002320       ?DoDataExchange@CCarsListDialog@@MAEXPAVCDataExchange@@@Z 00403320 f   CarsListDialog.obj
 0001:00002360       ?_GetBaseMessageMap@CCarsListDialog@@KGPBUAFX_MSGMAP@@XZ 00403360 f   CarsListDialog.obj
 0001:00002370       ?GetMessageMap@CCarsListDialog@@MBEPBUAFX_MSGMAP@@XZ 00403370 f   CarsListDialog.obj
 0001:00002380       ?OnInitDialog@CCarsListDialog@@MAEHXZ 00403380 f   CarsListDialog.obj
 0001:00002540       ?ReadDB@CCarsListDialog@@QAEXXZ 00403540 f   CarsListDialog.obj
 0001:00002b20       ?OnClickCarslist@CCarsListDialog@@IAEXPAUtagNMHDR@@PAJ@Z 00403b20 f   CarsListDialog.obj
 0001:00002b70       ?OnDblclkCarslist@CCarsListDialog@@IAEXPAUtagNMHDR@@PAJ@Z 00403b70 f   CarsListDialog.obj
 0001:00002bb0       ?OnDeletecarbutton@CCarsListDialog@@IAEXXZ 00403bb0 f   CarsListDialog.obj
 0001:00002ca0       ?OnEditcarbutton@CCarsListDialog@@IAEXXZ 00403ca0 f   CarsListDialog.obj
 0001:00002e40       ??1CEditCarDialog@@UAE@XZ  00403e40 f i CarsListDialog.obj
 0001:00002f40       ?OnAddCarButton@CCarsListDialog@@IAEXXZ 00403f40 f   CarsListDialog.obj
 0001:00003180       ??0CCarTypesDetailDialog@@QAE@PAVCWnd@@@Z 00404180 f   CarTypesDetailDialog.obj
 0001:00003220       ??_GCCarTypesDetailDialog@@UAEPAXI@Z 00404220 f i CarTypesDetailDialog.obj
 0001:00003220       ??_ECCarTypesDetailDialog@@UAEPAXI@Z 00404220 f i CarTypesDetailDialog.obj
 0001:00003240       ??1CCarTypesDetailDialog@@UAE@XZ 00404240 f i CarTypesDetailDialog.obj
 0001:000032a0       ?DoDataExchange@CCarTypesDetailDialog@@MAEXPAVCDataExchange@@@Z 004042a0 f   CarTypesDetailDialog.obj
 0001:000032e0       ?_GetBaseMessageMap@CCarTypesDetailDialog@@KGPBUAFX_MSGMAP@@XZ 004042e0 f   CarTypesDetailDialog.obj
 0001:000032f0       ?GetMessageMap@CCarTypesDetailDialog@@MBEPBUAFX_MSGMAP@@XZ 004042f0 f   CarTypesDetailDialog.obj
 0001:00003300       ?OnInitDialog@CCarTypesDetailDialog@@MAEHXZ 00404300 f   CarTypesDetailDialog.obj
 0001:00003420       ?OnOK@CCarTypesDetailDialog@@MAEXXZ 00404420 f   CarTypesDetailDialog.obj
 0001:00003560       ??0CCarTypesDialog@@QAE@PAVCWnd@@@Z 00404560 f   CarTypesDialog.obj
 0001:00003600       ??_GCCarTypesDialog@@UAEPAXI@Z 00404600 f i CarTypesDialog.obj
 0001:00003600       ??_ECCarTypesDialog@@UAEPAXI@Z 00404600 f i CarTypesDialog.obj
 0001:00003620       ??1CCarTypesDialog@@UAE@XZ 00404620 f i CarTypesDialog.obj
 0001:000036a0       ?DoDataExchange@CCarTypesDialog@@MAEXPAVCDataExchange@@@Z 004046a0 f   CarTypesDialog.obj
 0001:00003700       ?_GetBaseMessageMap@CCarTypesDialog@@KGPBUAFX_MSGMAP@@XZ 00404700 f   CarTypesDialog.obj
 0001:00003710       ?GetMessageMap@CCarTypesDialog@@MBEPBUAFX_MSGMAP@@XZ 00404710 f   CarTypesDialog.obj
 0001:00003720       ?OnInitDialog@CCarTypesDialog@@MAEHXZ 00404720 f   CarTypesDialog.obj
 0001:000037d0       ?ReadDB@CCarTypesDialog@@IAEXXZ 004047d0 f   CarTypesDialog.obj
 0001:00003910       ?OnAddButton@CCarTypesDialog@@IAEXXZ 00404910 f   CarTypesDialog.obj
 0001:000039a0       ?OnDeleteButton@CCarTypesDialog@@IAEXXZ 004049a0 f   CarTypesDialog.obj
 0001:00003ae0       ?OnOK@CCarTypesDialog@@MAEXXZ 00404ae0 f   CarTypesDialog.obj
 0001:00003bf0       ?OnEditButton@CCarTypesDialog@@IAEXXZ 00404bf0 f   CarTypesDialog.obj
 0001:00003cb0       ?OnClickCartypeList@CCarTypesDialog@@IAEXPAUtagNMHDR@@PAJ@Z 00404cb0 f   CarTypesDialog.obj
 0001:00003d20       ?OnDblclkCartypeList@CCarTypesDialog@@IAEXPAUtagNMHDR@@PAJ@Z 00404d20 f   CarTypesDialog.obj
 0001:00003e10       ??0CCommoditiesDialog@@QAE@PAVCWnd@@@Z 00404e10 f   CommoditiesDialog.obj
 0001:00003e70       ??_ECCommoditiesDialog@@UAEPAXI@Z 00404e70 f i CommoditiesDialog.obj
 0001:00003e70       ??_GCCommoditiesDialog@@UAEPAXI@Z 00404e70 f i CommoditiesDialog.obj
 0001:00003e90       ??1CCommoditiesDialog@@UAE@XZ 00404e90 f i CommoditiesDialog.obj
 0001:00003ee0       ?DoDataExchange@CCommoditiesDialog@@MAEXPAVCDataExchange@@@Z 00404ee0 f   CommoditiesDialog.obj
 0001:00003f00       ?_GetBaseMessageMap@CCommoditiesDialog@@KGPBUAFX_MSGMAP@@XZ 00404f00 f   CommoditiesDialog.obj
 0001:00003f10       ?GetMessageMap@CCommoditiesDialog@@MBEPBUAFX_MSGMAP@@XZ 00404f10 f   CommoditiesDialog.obj
 0001:00003f20       ?OnInitDialog@CCommoditiesDialog@@MAEHXZ 00404f20 f   CommoditiesDialog.obj
 0001:00003f50       ?ReadDB@CCommoditiesDialog@@QAEXXZ 00404f50 f   CommoditiesDialog.obj
 0001:00004040       ?OnDblclkCommoditylist@CCommoditiesDialog@@IAEXPAUtagNMHDR@@PAJ@Z 00405040 f   CommoditiesDialog.obj
 0001:00004060       ?OnEditbutton@CCommoditiesDialog@@IAEXXZ 00405060 f   CommoditiesDialog.obj
 0001:00004130       ??1CEditCommodityDialog@@UAE@XZ 00405130 f i CommoditiesDialog.obj
 0001:00004190       ?OnAddbutton@CCommoditiesDialog@@IAEXXZ 00405190 f   CommoditiesDialog.obj
 0001:00004230       ?OnDeletebutton@CCommoditiesDialog@@IAEXXZ 00405230 f   CommoditiesDialog.obj
 0001:00004310       ??0CEditCarDialog@@QAE@PAVCWnd@@@Z 00405310 f   EditCarDialog.obj
 0001:000044e0       ??_ECEditCarDialog@@UAEPAXI@Z 004054e0 f i EditCarDialog.obj
 0001:000044e0       ??_GCEditCarDialog@@UAEPAXI@Z 004054e0 f i EditCarDialog.obj
 0001:00004500       ?DoDataExchange@CEditCarDialog@@MAEXPAVCDataExchange@@@Z 00405500 f   EditCarDialog.obj
 0001:00004630       ?_GetBaseMessageMap@CEditCarDialog@@KGPBUAFX_MSGMAP@@XZ 00405630 f   EditCarDialog.obj
 0001:00004640       ?GetMessageMap@CEditCarDialog@@MBEPBUAFX_MSGMAP@@XZ 00405640 f   EditCarDialog.obj
 0001:00004650       ?OnInitDialog@CEditCarDialog@@MAEHXZ 00405650 f   EditCarDialog.obj
 0001:00004ba0       ?OnOK@CEditCarDialog@@MAEXXZ 00405ba0 f   EditCarDialog.obj
 0001:00004e20       ?OnLastmaint@CEditCarDialog@@IAEXXZ 00405e20 f   EditCarDialog.obj
 0001:00004e60       ?OnForeign@CEditCarDialog@@IAEXXZ 00405e60 f   EditCarDialog.obj
 0001:00004ed0       ??_ECStatic@@UAEPAXI@Z     00405ed0 f i EditCarDialog.obj
 0001:00004ed0       ??_GCStatic@@UAEPAXI@Z     00405ed0 f i EditCarDialog.obj
 0001:00004ef0       ??0CEditCommodityDialog@@QAE@PAVCWnd@@@Z 00405ef0 f   EditCommodityDialog.obj
 0001:00004f80       ??_GCEditCommodityDialog@@UAEPAXI@Z 00405f80 f i EditCommodityDialog.obj
 0001:00004f80       ??_ECEditCommodityDialog@@UAEPAXI@Z 00405f80 f i EditCommodityDialog.obj
 0001:00004fa0       ?DoDataExchange@CEditCommodityDialog@@MAEXPAVCDataExchange@@@Z 00405fa0 f   EditCommodityDialog.obj
 0001:00004fd0       ?_GetBaseMessageMap@CEditCommodityDialog@@KGPBUAFX_MSGMAP@@XZ 00405fd0 f   EditCommodityDialog.obj
 0001:00004fe0       ?GetMessageMap@CEditCommodityDialog@@MBEPBUAFX_MSGMAP@@XZ 00405fe0 f   EditCommodityDialog.obj
 0001:00004ff0       ?OnInitDialog@CEditCommodityDialog@@MAEHXZ 00405ff0 f   EditCommodityDialog.obj
 0001:00005280       ?OnOK@CEditCommodityDialog@@MAEXXZ 00406280 f   EditCommodityDialog.obj
 0001:000054b0       ??0CEditTrainDialog@@QAE@PAVCWnd@@@Z 004064b0 f   EditTrainDialog.obj
 0001:00005650       ??_GCEditTrainDialog@@UAEPAXI@Z 00406650 f i EditTrainDialog.obj
 0001:00005650       ??_ECEditTrainDialog@@UAEPAXI@Z 00406650 f i EditTrainDialog.obj
 0001:00005670       ??1CEditTrainDialog@@UAE@XZ 00406670 f i EditTrainDialog.obj
 0001:00005780       ?DoDataExchange@CEditTrainDialog@@MAEXPAVCDataExchange@@@Z 00406780 f   EditTrainDialog.obj
 0001:000058c0       ?_GetBaseMessageMap@CEditTrainDialog@@KGPBUAFX_MSGMAP@@XZ 004068c0 f   EditTrainDialog.obj
 0001:000058d0       ?GetMessageMap@CEditTrainDialog@@MBEPBUAFX_MSGMAP@@XZ 004068d0 f   EditTrainDialog.obj
 0001:000058e0       ?OnInitDialog@CEditTrainDialog@@MAEHXZ 004068e0 f   EditTrainDialog.obj
 0001:00005c60       ?OnAddbutton@CEditTrainDialog@@IAEXXZ 00406c60 f   EditTrainDialog.obj
 0001:00005da0       ?OnDblclkAvailablelocationlist@CEditTrainDialog@@IAEXXZ 00406da0 f   EditTrainDialog.obj
 0001:00005db0       ?OnRemovebutton@CEditTrainDialog@@IAEXXZ 00406db0 f   EditTrainDialog.obj
 0001:00005e90       ?OnSelchangeRoutelocationlist@CEditTrainDialog@@IAEXXZ 00406e90 f   EditTrainDialog.obj
 0001:00006350       ?OnSelchangeAvailablelocationlist@CEditTrainDialog@@IAEXXZ 00407350 f   EditTrainDialog.obj
 0001:00006390       ?OnUpbutton@CEditTrainDialog@@IAEXXZ 00407390 f   EditTrainDialog.obj
 0001:000064d0       ?OnDownbutton@CEditTrainDialog@@IAEXXZ 004074d0 f   EditTrainDialog.obj
 0001:00006620       ?OnItemchangedIndustrylist@CEditTrainDialog@@IAEXPAUtagNMHDR@@PAJ@Z 00407620 f   EditTrainDialog.obj
 0001:00006770       ?OnOK@CEditTrainDialog@@MAEXXZ 00407770 f   EditTrainDialog.obj
 0001:00006c00       ?OnLocalswitcher@CEditTrainDialog@@IAEXXZ 00407c00 f   EditTrainDialog.obj
 0001:00006cc0       ?OnChangeRoutecode@CEditTrainDialog@@IAEXXZ 00407cc0 f   EditTrainDialog.obj
 0001:00006cd0       ?OnChangeRoutename@CEditTrainDialog@@IAEXXZ 00407cd0 f   EditTrainDialog.obj
 0001:00006ce0       ?OnClose@CEditTrainDialog@@IAEXXZ 00407ce0 f   EditTrainDialog.obj
 0001:00006cf0       ?OnInterchangeCheck@CEditTrainDialog@@IAEXXZ 00407cf0 f   EditTrainDialog.obj
 0001:00006db0       ?OnCancel@CEditTrainDialog@@MAEXXZ 00407db0 f   EditTrainDialog.obj
 0001:00006e40       ?OnChangeMaxMoves@CEditTrainDialog@@IAEXXZ 00407e40 f   EditTrainDialog.obj
 0001:00006f00       ??_GCListBox@@UAEPAXI@Z    00407f00 f i EditTrainDialog.obj
 0001:00006f00       ??_ECListBox@@UAEPAXI@Z    00407f00 f i EditTrainDialog.obj
 0001:00006f20       ??_GCEdit@@UAEPAXI@Z       00407f20 f i EditTrainDialog.obj
 0001:00006f20       ??_ECEdit@@UAEPAXI@Z       00407f20 f i EditTrainDialog.obj
 0001:00006f40       ??0CEquipmentLocationDialog@@QAE@PAVCWnd@@@Z 00407f40 f   EquipmentLocationDialog.obj
 0001:00006fb0       ??_GCEquipmentLocationDialog@@UAEPAXI@Z 00407fb0 f i EquipmentLocationDialog.obj
 0001:00006fb0       ??_ECEquipmentLocationDialog@@UAEPAXI@Z 00407fb0 f i EquipmentLocationDialog.obj
 0001:00006fd0       ??1CEquipmentLocationDialog@@UAE@XZ 00407fd0 f i EquipmentLocationDialog.obj
 0001:00007030       ?DoDataExchange@CEquipmentLocationDialog@@MAEXPAVCDataExchange@@@Z 00408030 f   EquipmentLocationDialog.obj
 0001:00007060       ?_GetBaseMessageMap@CEquipmentLocationDialog@@KGPBUAFX_MSGMAP@@XZ 00408060 f   EquipmentLocationDialog.obj
 0001:00007070       ?GetMessageMap@CEquipmentLocationDialog@@MBEPBUAFX_MSGMAP@@XZ 00408070 f   EquipmentLocationDialog.obj
 0001:00007080       ?OnInitDialog@CEquipmentLocationDialog@@MAEHXZ 00408080 f   EquipmentLocationDialog.obj
 0001:000071b0       ?ReadDB@CEquipmentLocationDialog@@AAEXXZ 004081b0 f   EquipmentLocationDialog.obj
 0001:00007740       ?OnOK@CEquipmentLocationDialog@@MAEXXZ 00408740 f   EquipmentLocationDialog.obj
 0001:00007780       ?CleanupTree@CEquipmentLocationDialog@@AAEXXZ 00408780 f   EquipmentLocationDialog.obj
 0001:00007860       ?OnSelchangedEquipmenttree@CEquipmentLocationDialog@@IAEXPAUtagNMHDR@@PAJ@Z 00408860 f   EquipmentLocationDialog.obj
 0001:000078d0       ?GetCars@CEquipmentLocationDialog@@AAEXHH@Z 004088d0 f   EquipmentLocationDialog.obj
 0001:00008530       ?GetCarType@CEquipmentLocationDialog@@AAE?AVCString@@H@Z 00409530 f   EquipmentLocationDialog.obj
 0001:00008640       ??0CEquipmentNotFoundDialog@@QAE@PAVCWnd@@@Z 00409640 f   EquipmentNotFoundDialog.obj
 0001:000086c0       ??_GCEquipmentNotFoundDialog@@UAEPAXI@Z 004096c0 f i EquipmentNotFoundDialog.obj
 0001:000086c0       ??_ECEquipmentNotFoundDialog@@UAEPAXI@Z 004096c0 f i EquipmentNotFoundDialog.obj
 0001:000086e0       ??1CEquipmentNotFoundDialog@@UAE@XZ 004096e0 f i EquipmentNotFoundDialog.obj
 0001:00008740       ?DoDataExchange@CEquipmentNotFoundDialog@@MAEXPAVCDataExchange@@@Z 00409740 f   EquipmentNotFoundDialog.obj
 0001:00008770       ?_GetBaseMessageMap@CEquipmentNotFoundDialog@@KGPBUAFX_MSGMAP@@XZ 00409770 f   EquipmentNotFoundDialog.obj
 0001:00008780       ?GetMessageMap@CEquipmentNotFoundDialog@@MBEPBUAFX_MSGMAP@@XZ 00409780 f   EquipmentNotFoundDialog.obj
 0001:00008790       ?OnInitDialog@CEquipmentNotFoundDialog@@MAEHXZ 00409790 f   EquipmentNotFoundDialog.obj
 0001:000087e0       ?ReadDB@CEquipmentNotFoundDialog@@IAEXXZ 004097e0 f   EquipmentNotFoundDialog.obj
 0001:000089a0       ?OnOK@CEquipmentNotFoundDialog@@MAEXXZ 004099a0 f   EquipmentNotFoundDialog.obj
 0001:000089d0       ?CleanupTree@CEquipmentNotFoundDialog@@IAEXXZ 004099d0 f   EquipmentNotFoundDialog.obj
 0001:00008a80       ?OnSelchangedEquipmenttree@CEquipmentNotFoundDialog@@IAEXPAUtagNMHDR@@PAJ@Z 00409a80 f   EquipmentNotFoundDialog.obj
 0001:00008af0       ?GetCars@CEquipmentNotFoundDialog@@IAEXH@Z 00409af0 f   EquipmentNotFoundDialog.obj
 0001:00009050       ?OnPrunetohere@CEquipmentNotFoundDialog@@IAEXXZ 0040a050 f   EquipmentNotFoundDialog.obj
 0001:00009140       ?OnRclickNotfoundtree@CEquipmentNotFoundDialog@@IAEXPAUtagNMHDR@@PAJ@Z 0040a140 f   EquipmentNotFoundDialog.obj
 0001:00009230       ??1CObject@@UAE@XZ         0040a230 f i EquipmentNotFoundDialog.obj
 0001:00009240       ??_GCObject@@UAEPAXI@Z     0040a240 f i EquipmentNotFoundDialog.obj
 0001:00009240       ??_ECObject@@UAEPAXI@Z     0040a240 f i EquipmentNotFoundDialog.obj
 0001:00009260       ??_ECMenu@@UAEPAXI@Z       0040a260 f i EquipmentNotFoundDialog.obj
 0001:00009260       ??_GCMenu@@UAEPAXI@Z       0040a260 f i EquipmentNotFoundDialog.obj
 0001:00009280       ??1CMenu@@UAE@XZ           0040a280 f i EquipmentNotFoundDialog.obj
 0001:000092d0       ??_GCTreeCtrl@@UAEPAXI@Z   0040a2d0 f i EquipmentNotFoundDialog.obj
 0001:000092d0       ??_ECTreeCtrl@@UAEPAXI@Z   0040a2d0 f i EquipmentNotFoundDialog.obj
 0001:000092f0       ??0CEquipmentTrackingDialog@@QAE@PAVCWnd@@@Z 0040a2f0 f   EquipmentTrackingDialog.obj
 0001:00009360       ??_GCEquipmentTrackingDialog@@UAEPAXI@Z 0040a360 f i EquipmentTrackingDialog.obj
 0001:00009360       ??_ECEquipmentTrackingDialog@@UAEPAXI@Z 0040a360 f i EquipmentTrackingDialog.obj
 0001:00009380       ??1CEquipmentTrackingDialog@@UAE@XZ 0040a380 f i EquipmentTrackingDialog.obj
 0001:000093e0       ?DoDataExchange@CEquipmentTrackingDialog@@MAEXPAVCDataExchange@@@Z 0040a3e0 f   EquipmentTrackingDialog.obj
 0001:00009410       ?_GetBaseMessageMap@CEquipmentTrackingDialog@@KGPBUAFX_MSGMAP@@XZ 0040a410 f   EquipmentTrackingDialog.obj
 0001:00009420       ?GetMessageMap@CEquipmentTrackingDialog@@MBEPBUAFX_MSGMAP@@XZ 0040a420 f   EquipmentTrackingDialog.obj
 0001:00009430       ?OnInitDialog@CEquipmentTrackingDialog@@MAEHXZ 0040a430 f   EquipmentTrackingDialog.obj
 0001:00009550       ?ReadDB@CEquipmentTrackingDialog@@QAEXXZ 0040a550 f   EquipmentTrackingDialog.obj
 0001:000098a0       ?OnOK@CEquipmentTrackingDialog@@MAEXXZ 0040a8a0 f   EquipmentTrackingDialog.obj
 0001:000098e0       ?CleanupTree@CEquipmentTrackingDialog@@QAEXXZ 0040a8e0 f   EquipmentTrackingDialog.obj
 0001:00009990       ?OnSelchangedEquipmenttree@CEquipmentTrackingDialog@@IAEXPAUtagNMHDR@@PAJ@Z 0040a990 f   EquipmentTrackingDialog.obj
 0001:00009a00       ?GetCars@CEquipmentTrackingDialog@@QAEXH@Z 0040aa00 f   EquipmentTrackingDialog.obj
 0001:0000a160       ?_GetBaseClass@CFolderDialog@@KGPAUCRuntimeClass@@XZ 0040b160 f   FolderDlg.obj
 0001:0000a170       ?GetRuntimeClass@CFolderDialog@@UBEPAUCRuntimeClass@@XZ 0040b170 f   FolderDlg.obj
 0001:0000a180       ??0CFolderDialog@@QAE@PBD0PAVCWnd@@I@Z 0040b180 f   FolderDlg.obj
 0001:0000a260       ??_ECFolderDialog@@UAEPAXI@Z 0040b260 f i FolderDlg.obj
 0001:0000a260       ??_GCFolderDialog@@UAEPAXI@Z 0040b260 f i FolderDlg.obj
 0001:0000a280       ??1CFolderDialog@@UAE@XZ   0040b280 f   FolderDlg.obj
 0001:0000a2d0       ?_GetBaseMessageMap@CFolderDialog@@KGPBUAFX_MSGMAP@@XZ 0040b2d0 f   FolderDlg.obj
 0001:0000a2e0       ?GetMessageMap@CFolderDialog@@MBEPBUAFX_MSGMAP@@XZ 0040b2e0 f   FolderDlg.obj
 0001:0000a2f0       ?SetRootFolder@CFolderDialog@@QAEHPBD@Z 0040b2f0 f   FolderDlg.obj
 0001:0000a3d0       ?GetRootFolder@CFolderDialog@@QAEHPAD@Z 0040b3d0 f   FolderDlg.obj
 0001:0000a3f0       ?SetSelectedFolder@CFolderDialog@@QAEHPBD@Z 0040b3f0 f   FolderDlg.obj
 0001:0000a410       ?DoModal@CFolderDialog@@UAEHXZ 0040b410 f   FolderDlg.obj
 0001:0000a470       ?OnInitialized@CFolderDialog@@MAEXXZ 0040b470 f   FolderDlg.obj
 0001:0000a490       ?OnSelChanged@CFolderDialog@@MAEXPAU_ITEMIDLIST@@@Z 0040b490 f   FolderDlg.obj
 0001:0000a4f0       ?OnValidateFailed@CFolderDialog@@MAEHPBD@Z 0040b4f0 f   FolderDlg.obj
 0001:0000a500       ?OnIUnknown@CFolderDialog@@MAEXPAUIUnknown@@@Z 0040b500 f   FolderDlg.obj
 0001:0000a510       ?BrowseCallbackProc@CFolderDialog@@CGHPAUHWND__@@IJJ@Z 0040b510 f   FolderDlg.obj
 0001:0000a5d0       ?SetExpanded@CFolderDialog@@IAEXPBD@Z 0040b5d0 f   FolderDlg.obj
 0001:0000a640       ?SetOKText@CFolderDialog@@IAEXPBD@Z 0040b640 f   FolderDlg.obj
 0001:0000a6b0       ?EnableOK@CFolderDialog@@IAEXH@Z 0040b6b0 f   FolderDlg.obj
 0001:0000a6d0       ?SetSelection@CFolderDialog@@IAEXPAU_ITEMIDLIST@@@Z 0040b6d0 f   FolderDlg.obj
 0001:0000a6f0       ?SetSelection@CFolderDialog@@IAEXPBD@Z 0040b6f0 f   FolderDlg.obj
 0001:0000a710       ?SetStatusText@CFolderDialog@@IAEXPBD@Z 0040b710 f   FolderDlg.obj
 0001:0000a730       ?SetExpanded@CFolderDialog@@IAEXPAU_ITEMIDLIST@@@Z 0040b730 f   FolderDlg.obj
 0001:0000a750       ??1CCommonDialog@@UAE@XZ   0040b750 f i FolderDlg.obj
 0001:0000a760       ??0CIGDebugDialog@@QAE@PAVCWnd@@@Z 0040b760 f   IGDebugDialog.obj
 0001:0000a7c0       ??_ECIGDebugDialog@@UAEPAXI@Z 0040b7c0 f i IGDebugDialog.obj
 0001:0000a7c0       ??_GCIGDebugDialog@@UAEPAXI@Z 0040b7c0 f i IGDebugDialog.obj
 0001:0000a7e0       ??1CIGDebugDialog@@UAE@XZ  0040b7e0 f i IGDebugDialog.obj
 0001:0000a830       ?DoDataExchange@CIGDebugDialog@@MAEXPAVCDataExchange@@@Z 0040b830 f   IGDebugDialog.obj
 0001:0000a850       ?_GetBaseMessageMap@CIGDebugDialog@@KGPBUAFX_MSGMAP@@XZ 0040b850 f   IGDebugDialog.obj
 0001:0000a860       ?GetMessageMap@CIGDebugDialog@@MBEPBUAFX_MSGMAP@@XZ 0040b860 f   IGDebugDialog.obj
 0001:0000a870       ?OnOK@CIGDebugDialog@@MAEXXZ 0040b870 f   IGDebugDialog.obj
 0001:0000a880       ?OnInitDialog@CIGDebugDialog@@MAEHXZ 0040b880 f   IGDebugDialog.obj
 0001:0000a8e0       ?ClearDebug@CIGDebugDialog@@QAEXXZ 0040b8e0 f   IGDebugDialog.obj
 0001:0000a920       ?AddDebug@CIGDebugDialog@@QAEXVCString@@@Z 0040b920 f   IGDebugDialog.obj
 0001:0000a9a0       ??0CIndustriesDialog@@QAE@PAVCWnd@@@Z 0040b9a0 f   IndustriesDialog.obj
 0001:0000aa50       ??_ECIndustriesDialog@@UAEPAXI@Z 0040ba50 f i IndustriesDialog.obj
 0001:0000aa50       ??_GCIndustriesDialog@@UAEPAXI@Z 0040ba50 f i IndustriesDialog.obj
 0001:0000aa70       ??1CIndustriesDialog@@UAE@XZ 0040ba70 f i IndustriesDialog.obj
 0001:0000aaf0       ?DoDataExchange@CIndustriesDialog@@MAEXPAVCDataExchange@@@Z 0040baf0 f   IndustriesDialog.obj
 0001:0000ab50       ?_GetBaseMessageMap@CIndustriesDialog@@KGPBUAFX_MSGMAP@@XZ 0040bb50 f   IndustriesDialog.obj
 0001:0000ab60       ?GetMessageMap@CIndustriesDialog@@MBEPBUAFX_MSGMAP@@XZ 0040bb60 f   IndustriesDialog.obj
 0001:0000ab70       ?OnInitDialog@CIndustriesDialog@@MAEHXZ 0040bb70 f   IndustriesDialog.obj
 0001:0000ab90       ?ReadDB@CIndustriesDialog@@IAEXXZ 0040bb90 f   IndustriesDialog.obj
 0001:0000ae20       ?OnAddbutton@CIndustriesDialog@@IAEXXZ 0040be20 f   IndustriesDialog.obj
 0001:0000b010       ??1CIndustryDetailDialog@@UAE@XZ 0040c010 f i IndustriesDialog.obj
 0001:0000b0f0       ?OnEditbutton@CIndustriesDialog@@IAEXXZ 0040c0f0 f   IndustriesDialog.obj
 0001:0000b330       ?OnDeletebutton@CIndustriesDialog@@IAEXXZ 0040c330 f   IndustriesDialog.obj
 0001:0000b460       ?OnOK@CIndustriesDialog@@MAEXXZ 0040c460 f   IndustriesDialog.obj
 0001:0000b480       ?OnSelchangedIndustrytree@CIndustriesDialog@@IAEXPAUtagNMHDR@@PAJ@Z 0040c480 f   IndustriesDialog.obj
 0001:0000b580       ?OnDblclkIndustrytree@CIndustriesDialog@@IAEXPAUtagNMHDR@@PAJ@Z 0040c580 f   IndustriesDialog.obj
 0001:0000b5a0       ?OnTimer@CIndustriesDialog@@IAEXI@Z 0040c5a0 f   IndustriesDialog.obj
 0001:0000b5d0       ??0CIndustryCarDetailDialog@@QAE@PAVCWnd@@@Z 0040c5d0 f   IndustryCarDetailDialog.obj
 0001:0000b6c0       ??_ECIndustryCarDetailDialog@@UAEPAXI@Z 0040c6c0 f i IndustryCarDetailDialog.obj
 0001:0000b6c0       ??_GCIndustryCarDetailDialog@@UAEPAXI@Z 0040c6c0 f i IndustryCarDetailDialog.obj
 0001:0000b6e0       ??1CIndustryCarDetailDialog@@UAE@XZ 0040c6e0 f i IndustryCarDetailDialog.obj
 0001:0000b760       ?DoDataExchange@CIndustryCarDetailDialog@@MAEXPAVCDataExchange@@@Z 0040c760 f   IndustryCarDetailDialog.obj
 0001:0000b800       ?_GetBaseMessageMap@CIndustryCarDetailDialog@@KGPBUAFX_MSGMAP@@XZ 0040c800 f   IndustryCarDetailDialog.obj
 0001:0000b810       ?GetMessageMap@CIndustryCarDetailDialog@@MBEPBUAFX_MSGMAP@@XZ 0040c810 f   IndustryCarDetailDialog.obj
 0001:0000b820       ?OnInitDialog@CIndustryCarDetailDialog@@MAEHXZ 0040c820 f   IndustryCarDetailDialog.obj
 0001:0000b860       ?OnOK@CIndustryCarDetailDialog@@MAEXXZ 0040c860 f   IndustryCarDetailDialog.obj
 0001:0000b880       ?OnChangeLoadempty@CIndustryCarDetailDialog@@IAEXXZ 0040c880 f   IndustryCarDetailDialog.obj
 0001:0000b8d0       ?OnChangePercent@CIndustryCarDetailDialog@@IAEXXZ 0040c8d0 f   IndustryCarDetailDialog.obj
 0001:0000b910       ?OnChangeQuanhigh@CIndustryCarDetailDialog@@IAEXXZ 0040c910 f   IndustryCarDetailDialog.obj
 0001:0000b950       ?OnChangeQuanlow@CIndustryCarDetailDialog@@IAEXXZ 0040c950 f   IndustryCarDetailDialog.obj
 0001:0000ba20       ??0CIndustryCarOrdersDialog@@QAE@PAVCWnd@@@Z 0040ca20 f   IndustryCarOrdersDialog.obj
 0001:0000baa0       ?GetResizableWnd@CResizableDialog@@MAEPAVCWnd@@XZ 0040caa0 f i IndustryCarOrdersDialog.obj
 0001:0000bab0       ??_ECIndustryCarOrdersDialog@@UAEPAXI@Z 0040cab0 f i IndustryCarOrdersDialog.obj
 0001:0000bab0       ??_GCIndustryCarOrdersDialog@@UAEPAXI@Z 0040cab0 f i IndustryCarOrdersDialog.obj
 0001:0000bad0       ??1CIndustryCarOrdersDialog@@UAE@XZ 0040cad0 f i IndustryCarOrdersDialog.obj
 0001:0000bb20       ?DoDataExchange@CIndustryCarOrdersDialog@@MAEXPAVCDataExchange@@@Z 0040cb20 f   IndustryCarOrdersDialog.obj
 0001:0000bb40       ?_GetBaseMessageMap@CIndustryCarOrdersDialog@@KGPBUAFX_MSGMAP@@XZ 0040cb40 f   IndustryCarOrdersDialog.obj
 0001:0000bb50       ?GetMessageMap@CIndustryCarOrdersDialog@@MBEPBUAFX_MSGMAP@@XZ 0040cb50 f   IndustryCarOrdersDialog.obj
 0001:0000bb60       ?OnInitDialog@CIndustryCarOrdersDialog@@MAEHXZ 0040cb60 f   IndustryCarOrdersDialog.obj
 0001:0000bfc0       ?OnOK@CIndustryCarOrdersDialog@@MAEXXZ 0040cfc0 f   IndustryCarOrdersDialog.obj
 0001:0000bfe0       ??_ECIndustryCarOrdersDialog@@WGA@AEPAXI@Z 0040cfe0 f i IndustryCarOrdersDialog.obj
 0001:0000bff0       ?GetResizableWnd@CResizableDialog@@OBM@AEPAVCWnd@@XZ 0040cff0 f i IndustryCarOrdersDialog.obj
 0001:0000c000       ??_ECIndustryCarOrdersDialog@@WHM@AEPAXI@Z 0040d000 f i IndustryCarOrdersDialog.obj
 0001:0000c010       ??_ECIndustryCarOrdersDialog@@WMI@AEPAXI@Z 0040d010 f i IndustryCarOrdersDialog.obj
 0001:0000c020       ?GetResizableWnd@CResizableDialog@@OJI@AEPAVCWnd@@XZ 0040d020 f i IndustryCarOrdersDialog.obj
 0001:0000c030       ??_ECIndustryCarOrdersDialog@@WPI@AEPAXI@Z 0040d030 f i IndustryCarOrdersDialog.obj
 0001:0000c040       ??0CIndustryDetailDialog@@QAE@PAVCWnd@@@Z 0040d040 f   IndustryDetailDialog.obj
 0001:0000c1b0       ??_ECIndustryDetailDialog@@UAEPAXI@Z 0040d1b0 f i IndustryDetailDialog.obj
 0001:0000c1b0       ??_GCIndustryDetailDialog@@UAEPAXI@Z 0040d1b0 f i IndustryDetailDialog.obj
 0001:0000c1d0       ?DoDataExchange@CIndustryDetailDialog@@MAEXPAVCDataExchange@@@Z 0040d1d0 f   IndustryDetailDialog.obj
 0001:0000c290       ?_GetBaseMessageMap@CIndustryDetailDialog@@KGPBUAFX_MSGMAP@@XZ 0040d290 f   IndustryDetailDialog.obj
 0001:0000c2a0       ?GetMessageMap@CIndustryDetailDialog@@MBEPBUAFX_MSGMAP@@XZ 0040d2a0 f   IndustryDetailDialog.obj
 0001:0000c2b0       ?OnInitDialog@CIndustryDetailDialog@@MAEHXZ 0040d2b0 f   IndustryDetailDialog.obj
 0001:0000c530       ?RecalcRatios@CIndustryDetailDialog@@QAEXXZ 0040d530 f   IndustryDetailDialog.obj
 0001:0000cd30       ?SetIndustryID@CIndustryDetailDialog@@QAEXH@Z 0040dd30 f   IndustryDetailDialog.obj
 0001:0000cd40       ?SetIndustryDefault@CIndustryDetailDialog@@QAEXXZ 0040dd40 f   IndustryDetailDialog.obj
 0001:0000cd50       ?OnOK@CIndustryDetailDialog@@MAEXXZ 0040dd50 f   IndustryDetailDialog.obj
 0001:0000d070       ?PreTranslateMessage@CIndustryDetailDialog@@UAEHPAUtagMSG@@@Z 0040e070 f   IndustryDetailDialog.obj
 0001:0000d0a0       ??1?$vector@MV?$allocator@M@std@@@std@@QAE@XZ 0040e0a0 f i IndustryDetailDialog.obj
 0001:0000d0d0       ?size@?$vector@MV?$allocator@M@std@@@std@@QBEIXZ 0040e0d0 f i IndustryDetailDialog.obj
 0001:0000d0f0       ?_Construct@std@@YAXPAMABM@Z 0040e0f0 f i IndustryDetailDialog.obj
 0001:0000d110       ??0CIndustryDetailDialog_Cars@@QAE@PAVCWnd@@@Z 0040e110 f   IndustryDetailDialog_Cars.obj
 0001:0000d180       ??_GCIndustryDetailDialog_Cars@@UAEPAXI@Z 0040e180 f i IndustryDetailDialog_Cars.obj
 0001:0000d180       ??_ECIndustryDetailDialog_Cars@@UAEPAXI@Z 0040e180 f i IndustryDetailDialog_Cars.obj
 0001:0000d1a0       ??1CIndustryDetailDialog_Cars@@UAE@XZ 0040e1a0 f i IndustryDetailDialog_Cars.obj
 0001:0000d200       ?DoDataExchange@CIndustryDetailDialog_Cars@@MAEXPAVCDataExchange@@@Z 0040e200 f   IndustryDetailDialog_Cars.obj
 0001:0000d230       ?_GetBaseMessageMap@CIndustryDetailDialog_Cars@@KGPBUAFX_MSGMAP@@XZ 0040e230 f   IndustryDetailDialog_Cars.obj
 0001:0000d240       ?GetMessageMap@CIndustryDetailDialog_Cars@@MBEPBUAFX_MSGMAP@@XZ 0040e240 f   IndustryDetailDialog_Cars.obj
 0001:0000d250       ?OnInitDialog@CIndustryDetailDialog_Cars@@MAEHXZ 0040e250 f   IndustryDetailDialog_Cars.obj
 0001:0000d260       ?Load@CIndustryDetailDialog_Cars@@QAEXXZ 0040e260 f   IndustryDetailDialog_Cars.obj
 0001:0000d7b0       ?OnItemchangedCarlistin@CIndustryDetailDialog_Cars@@IAEXPAUtagNMHDR@@PAJ@Z 0040e7b0 f   IndustryDetailDialog_Cars.obj
 0001:0000db40       ?OnItemchangedCarlistout@CIndustryDetailDialog_Cars@@IAEXPAUtagNMHDR@@PAJ@Z 0040eb40 f   IndustryDetailDialog_Cars.obj
 0001:0000dec0       ?OnDblclkCarlistin@CIndustryDetailDialog_Cars@@IAEXPAUtagNMHDR@@PAJ@Z 0040eec0 f   IndustryDetailDialog_Cars.obj
 0001:0000e200       ?OnDblclkCarlistout@CIndustryDetailDialog_Cars@@IAEXPAUtagNMHDR@@PAJ@Z 0040f200 f   IndustryDetailDialog_Cars.obj
 0001:0000e530       ?Save@CIndustryDetailDialog_Cars@@QAEXH@Z 0040f530 f   IndustryDetailDialog_Cars.obj
 0001:0000e890       ??0CIndustryDetailDialog_Commodities@@QAE@PAVCWnd@@@Z 0040f890 f   IndustryDetailDialog_Commodities.obj
 0001:0000e900       ??_GCIndustryDetailDialog_Commodities@@UAEPAXI@Z 0040f900 f i IndustryDetailDialog_Commodities.obj
 0001:0000e900       ??_ECIndustryDetailDialog_Commodities@@UAEPAXI@Z 0040f900 f i IndustryDetailDialog_Commodities.obj
 0001:0000e920       ??1CIndustryDetailDialog_Commodities@@UAE@XZ 0040f920 f i IndustryDetailDialog_Commodities.obj
 0001:0000e980       ?DoDataExchange@CIndustryDetailDialog_Commodities@@MAEXPAVCDataExchange@@@Z 0040f980 f   IndustryDetailDialog_Commodities.obj
 0001:0000e9b0       ?_GetBaseMessageMap@CIndustryDetailDialog_Commodities@@KGPBUAFX_MSGMAP@@XZ 0040f9b0 f   IndustryDetailDialog_Commodities.obj
 0001:0000e9c0       ?GetMessageMap@CIndustryDetailDialog_Commodities@@MBEPBUAFX_MSGMAP@@XZ 0040f9c0 f   IndustryDetailDialog_Commodities.obj
 0001:0000e9d0       ?Load@CIndustryDetailDialog_Commodities@@QAEXXZ 0040f9d0 f   IndustryDetailDialog_Commodities.obj
 0001:0000ef10       ?OnItemchangedCommoditiesinlist@CIndustryDetailDialog_Commodities@@IAEXPAUtagNMHDR@@PAJ@Z 0040ff10 f   IndustryDetailDialog_Commodities.obj
 0001:0000f220       ?OnItemchangedCommoditiesoutlist@CIndustryDetailDialog_Commodities@@IAEXPAUtagNMHDR@@PAJ@Z 00410220 f   IndustryDetailDialog_Commodities.obj
 0001:0000f530       ?OnDblclkCommoditiesinlist@CIndustryDetailDialog_Commodities@@IAEXPAUtagNMHDR@@PAJ@Z 00410530 f   IndustryDetailDialog_Commodities.obj
 0001:0000f7f0       ?OnDblclkCommoditiesoutlist@CIndustryDetailDialog_Commodities@@IAEXPAUtagNMHDR@@PAJ@Z 004107f0 f   IndustryDetailDialog_Commodities.obj
 0001:0000fab0       ?Save@CIndustryDetailDialog_Commodities@@QAEXXZ 00410ab0 f   IndustryDetailDialog_Commodities.obj
 0001:0000fde0       ??0CindustryDetailTabCtrl@@QAE@XZ 00410de0 f   industryDetailTabCtrl.obj
 0001:0000fea0       ??_GCindustryDetailTabCtrl@@UAEPAXI@Z 00410ea0 f i industryDetailTabCtrl.obj
 0001:0000fea0       ??_ECindustryDetailTabCtrl@@UAEPAXI@Z 00410ea0 f i industryDetailTabCtrl.obj
 0001:0000fec0       ??1CindustryDetailTabCtrl@@UAE@XZ 00410ec0 f   industryDetailTabCtrl.obj
 0001:0000fed0       ?_GetBaseMessageMap@CindustryDetailTabCtrl@@KGPBUAFX_MSGMAP@@XZ 00410ed0 f   industryDetailTabCtrl.obj
 0001:0000fee0       ?GetMessageMap@CindustryDetailTabCtrl@@MBEPBUAFX_MSGMAP@@XZ 00410ee0 f   industryDetailTabCtrl.obj
 0001:0000fef0       ?InitDialogs@CindustryDetailTabCtrl@@QAEXXZ 00410ef0 f   industryDetailTabCtrl.obj
 0001:0000ff40       ?OnSelchange@CindustryDetailTabCtrl@@IAEXPAUtagNMHDR@@PAJ@Z 00410f40 f   industryDetailTabCtrl.obj
 0001:0000ff60       ?ActivateTabDialogs@CindustryDetailTabCtrl@@QAEXXZ 00410f60 f   industryDetailTabCtrl.obj
 0001:00010070       ??3CObject@@SGXPAX@Z       00411070 f i industryDetailTabCtrl.obj
 0001:00010080       ??0CIndustryUsageDialog@@QAE@PAVCWnd@@@Z 00411080 f   IndustryUsageDialog.obj
 0001:000100f0       ??_ECIndustryUsageDialog@@UAEPAXI@Z 004110f0 f i IndustryUsageDialog.obj
 0001:000100f0       ??_GCIndustryUsageDialog@@UAEPAXI@Z 004110f0 f i IndustryUsageDialog.obj
 0001:00010110       ??1CIndustryUsageDialog@@UAE@XZ 00411110 f i IndustryUsageDialog.obj
 0001:00010170       ?DoDataExchange@CIndustryUsageDialog@@MAEXPAVCDataExchange@@@Z 00411170 f   IndustryUsageDialog.obj
 0001:000101a0       ?_GetBaseMessageMap@CIndustryUsageDialog@@KGPBUAFX_MSGMAP@@XZ 004111a0 f   IndustryUsageDialog.obj
 0001:000101b0       ?GetMessageMap@CIndustryUsageDialog@@MBEPBUAFX_MSGMAP@@XZ 004111b0 f   IndustryUsageDialog.obj
 0001:000101c0       ?OnInitDialog@CIndustryUsageDialog@@MAEHXZ 004111c0 f   IndustryUsageDialog.obj
 0001:000102f0       ?ReadDB@CIndustryUsageDialog@@QAEXXZ 004112f0 f   IndustryUsageDialog.obj
 0001:000105c0       ?OnOK@CIndustryUsageDialog@@MAEXXZ 004115c0 f   IndustryUsageDialog.obj
 0001:00010600       ?OnSelchangedIndustrytree@CIndustryUsageDialog@@IAEXPAUtagNMHDR@@PAJ@Z 00411600 f   IndustryUsageDialog.obj
 0001:00010670       ?GetCars@CIndustryUsageDialog@@QAEXH@Z 00411670 f   IndustryUsageDialog.obj
 0001:00010e40       ??0CLocationDetailDialog@@QAE@PAVCWnd@@@Z 00411e40 f   LocationDetailDialog.obj
 0001:00010ef0       ??_GCLocationDetailDialog@@UAEPAXI@Z 00411ef0 f i LocationDetailDialog.obj
 0001:00010ef0       ??_ECLocationDetailDialog@@UAEPAXI@Z 00411ef0 f i LocationDetailDialog.obj
 0001:00010f10       ??1CLocationDetailDialog@@UAE@XZ 00411f10 f i LocationDetailDialog.obj
 0001:00010f80       ?DoDataExchange@CLocationDetailDialog@@MAEXPAVCDataExchange@@@Z 00411f80 f   LocationDetailDialog.obj
 0001:00010fc0       ?_GetBaseMessageMap@CLocationDetailDialog@@KGPBUAFX_MSGMAP@@XZ 00411fc0 f   LocationDetailDialog.obj
 0001:00010fd0       ?GetMessageMap@CLocationDetailDialog@@MBEPBUAFX_MSGMAP@@XZ 00411fd0 f   LocationDetailDialog.obj
 0001:00010fe0       ?OnInitDialog@CLocationDetailDialog@@MAEHXZ 00411fe0 f   LocationDetailDialog.obj
 0001:00011100       ?OnChangeLocationname@CLocationDetailDialog@@IAEXXZ 00412100 f   LocationDetailDialog.obj
 0001:00011130       ?OnOK@CLocationDetailDialog@@MAEXXZ 00412130 f   LocationDetailDialog.obj
 0001:00011210       ??0CLocationDialog@@QAE@PAVCWnd@@@Z 00412210 f   LocationDialog.obj
 0001:000112a0       ??_ECLocationDialog@@UAEPAXI@Z 004122a0 f i LocationDialog.obj
 0001:000112a0       ??_GCLocationDialog@@UAEPAXI@Z 004122a0 f i LocationDialog.obj
 0001:000112c0       ??1CLocationDialog@@UAE@XZ 004122c0 f i LocationDialog.obj
 0001:00011330       ?DoDataExchange@CLocationDialog@@MAEXPAVCDataExchange@@@Z 00412330 f   LocationDialog.obj
 0001:00011370       ?_GetBaseMessageMap@CLocationDialog@@KGPBUAFX_MSGMAP@@XZ 00412370 f   LocationDialog.obj
 0001:00011380       ?GetMessageMap@CLocationDialog@@MBEPBUAFX_MSGMAP@@XZ 00412380 f   LocationDialog.obj
 0001:00011390       ?OnInitDialog@CLocationDialog@@MAEHXZ 00412390 f   LocationDialog.obj
 0001:000113e0       ?ReadDB@CLocationDialog@@IAEXXZ 004123e0 f   LocationDialog.obj
 0001:00011500       ?OnAddbutton@CLocationDialog@@IAEXXZ 00412500 f   LocationDialog.obj
 0001:000116e0       ?GetLocationName@CLocationDetailDialog@@QAE?AVCString@@XZ 004126e0 f i LocationDialog.obj
 0001:00011710       ?OnDelbutton@CLocationDialog@@IAEXXZ 00412710 f   LocationDialog.obj
 0001:000117d0       ?OnItemchangedLocationlist@CLocationDialog@@IAEXPAUtagNMHDR@@PAJ@Z 004127d0 f   LocationDialog.obj
 0001:00011840       ?OnEditbutton@CLocationDialog@@IAEXXZ 00412840 f   LocationDialog.obj
 0001:00011850       ?OnDblclkLocationlist@CLocationDialog@@IAEXPAUtagNMHDR@@PAJ@Z 00412850 f   LocationDialog.obj
 0001:00011a30       ??0CLocomotiveDetailDialog@@QAE@PAVCWnd@@@Z 00412a30 f   LocomotiveDetailDialog.obj
 0001:00011b50       ??_ECLocomotiveDetailDialog@@UAEPAXI@Z 00412b50 f i LocomotiveDetailDialog.obj
 0001:00011b50       ??_GCLocomotiveDetailDialog@@UAEPAXI@Z 00412b50 f i LocomotiveDetailDialog.obj
 0001:00011b70       ??1CLocomotiveDetailDialog@@UAE@XZ 00412b70 f i LocomotiveDetailDialog.obj
 0001:00011c10       ?DoDataExchange@CLocomotiveDetailDialog@@MAEXPAVCDataExchange@@@Z 00412c10 f   LocomotiveDetailDialog.obj
 0001:00011ce0       ?_GetBaseMessageMap@CLocomotiveDetailDialog@@KGPBUAFX_MSGMAP@@XZ 00412ce0 f   LocomotiveDetailDialog.obj
 0001:00011cf0       ?GetMessageMap@CLocomotiveDetailDialog@@MBEPBUAFX_MSGMAP@@XZ 00412cf0 f   LocomotiveDetailDialog.obj
 0001:00011d00       ?OnInitDialog@CLocomotiveDetailDialog@@MAEHXZ 00412d00 f   LocomotiveDetailDialog.obj
 0001:00011ee0       ?OnOK@CLocomotiveDetailDialog@@MAEXXZ 00412ee0 f   LocomotiveDetailDialog.obj
 0001:00012130       ?CheckButtons@CLocomotiveDetailDialog@@QAEXXZ 00413130 f   LocomotiveDetailDialog.obj
 0001:00012190       ?OnChangeCarcapacity@CLocomotiveDetailDialog@@IAEXXZ 00413190 f   LocomotiveDetailDialog.obj
 0001:000121a0       ?OnChangeDescription@CLocomotiveDetailDialog@@IAEXXZ 004131a0 f   LocomotiveDetailDialog.obj
 0001:000121b0       ?OnChangeNumber@CLocomotiveDetailDialog@@IAEXXZ 004131b0 f   LocomotiveDetailDialog.obj
 0001:000121c0       ?OnChangeRoadname@CLocomotiveDetailDialog@@IAEXXZ 004131c0 f   LocomotiveDetailDialog.obj
 0001:000121d0       ??0CLocomotiveDialog@@QAE@PAVCWnd@@@Z 004131d0 f   LocomotiveDialog.obj
 0001:00012260       ??_ECLocomotiveDialog@@UAEPAXI@Z 00413260 f i LocomotiveDialog.obj
 0001:00012260       ??_GCLocomotiveDialog@@UAEPAXI@Z 00413260 f i LocomotiveDialog.obj
 0001:00012280       ??1CLocomotiveDialog@@UAE@XZ 00413280 f i LocomotiveDialog.obj
 0001:000122f0       ?DoDataExchange@CLocomotiveDialog@@MAEXPAVCDataExchange@@@Z 004132f0 f   LocomotiveDialog.obj
 0001:00012330       ?_GetBaseMessageMap@CLocomotiveDialog@@KGPBUAFX_MSGMAP@@XZ 00413330 f   LocomotiveDialog.obj
 0001:00012340       ?GetMessageMap@CLocomotiveDialog@@MBEPBUAFX_MSGMAP@@XZ 00413340 f   LocomotiveDialog.obj
 0001:00012350       ?OnInitDialog@CLocomotiveDialog@@MAEHXZ 00413350 f   LocomotiveDialog.obj
 0001:00012450       ?ReadDB@CLocomotiveDialog@@IAEXXZ 00413450 f   LocomotiveDialog.obj
 0001:000125b0       ?OnDeletebutton@CLocomotiveDialog@@IAEXXZ 004135b0 f   LocomotiveDialog.obj
 0001:00012690       ?OnClickLocolist@CLocomotiveDialog@@IAEXPAUtagNMHDR@@PAJ@Z 00413690 f   LocomotiveDialog.obj
 0001:000126c0       ?OnEditbutton@CLocomotiveDialog@@IAEXXZ 004136c0 f   LocomotiveDialog.obj
 0001:000127e0       ?OnNewbutton@CLocomotiveDialog@@IAEXXZ 004137e0 f   LocomotiveDialog.obj
 0001:00012960       ?CreateObject@CMainFrame@@SGPAVCObject@@XZ 00413960 f   MainFrm.obj
 0001:000129c0       ?_GetBaseClass@CMainFrame@@KGPAUCRuntimeClass@@XZ 004139c0 f   MainFrm.obj
 0001:000129d0       ?GetRuntimeClass@CMainFrame@@UBEPAUCRuntimeClass@@XZ 004139d0 f   MainFrm.obj
 0001:000129e0       ?OnInitMenuPopup@CMainFrame@@IAEXPAVCMenu@@IH@Z 004139e0 f   MainFrm.obj
 0001:00012a20       ?OnMeasureItem@CMainFrame@@IAEXHPAUtagMEASUREITEMSTRUCT@@@Z 00413a20 f   MainFrm.obj
 0001:00012a30       ?OnDrawItem@CMainFrame@@IAEXHPAUtagDRAWITEMSTRUCT@@@Z 00413a30 f   MainFrm.obj
 0001:00012a60       ?OnMenuChar@CMainFrame@@IAEJIIPAVCMenu@@@Z 00413a60 f   MainFrm.obj
 0001:00012aa0       ?_GetBaseMessageMap@CMainFrame@@KGPBUAFX_MSGMAP@@XZ 00413aa0 f   MainFrm.obj
 0001:00012ab0       ?GetMessageMap@CMainFrame@@MBEPBUAFX_MSGMAP@@XZ 00413ab0 f   MainFrm.obj
 0001:00012ac0       ??0CMainFrame@@IAE@XZ      00413ac0 f   MainFrm.obj
 0001:00012b50       ??_ECMainFrame@@UAEPAXI@Z  00413b50 f i MainFrm.obj
 0001:00012b50       ??_GCMainFrame@@UAEPAXI@Z  00413b50 f i MainFrm.obj
 0001:00012b70       ??1CStatusBarXP@@UAE@XZ    00413b70 f i MainFrm.obj
 0001:00012b80       ??1CReBar@@UAE@XZ          00413b80 f i MainFrm.obj
 0001:00012b90       ??_GCStatusBarXP@@UAEPAXI@Z 00413b90 f i MainFrm.obj
 0001:00012b90       ??_ECStatusBarXP@@UAEPAXI@Z 00413b90 f i MainFrm.obj
 0001:00012bb0       ??1CMainFrame@@UAE@XZ      00413bb0 f   MainFrm.obj
 0001:00012c40       ?OnCreate@CMainFrame@@IAEHPAUtagCREATESTRUCTA@@@Z 00413c40 f   MainFrm.obj
 0001:00012d90       ?PreCreateWindow@CMainFrame@@UAEHAAUtagCREATESTRUCTA@@@Z 00413d90 f   MainFrm.obj
 0001:00012db0       ?OnAppAbout@CMainFrame@@QAEXXZ 00413db0 f   MainFrm.obj
 0001:00012ef0       ?OnFilePreferences@CMainFrame@@QAEXXZ 00413ef0 f   MainFrm.obj
 0001:00012fd0       ??1CPreferencesDialog@@UAE@XZ 00413fd0 f i MainFrm.obj
 0001:00013070       ??_DCAMSDateEdit@@QAEXXZ   00414070 f i MainFrm.obj
 0001:00013090       ??1CAMSDateEdit@@UAE@XZ    00414090 f i MainFrm.obj
 0001:000130a0       ?OnConfigureLocations@CMainFrame@@IAEXXZ 004140a0 f   MainFrm.obj
 0001:00013140       ?OnConfigureSidings@CMainFrame@@IAEXXZ 00414140 f   MainFrm.obj
 0001:00013200       ??1CSidingsDialog@@UAE@XZ  00414200 f i MainFrm.obj
 0001:00013280       ?OnConfigureIndustries@CMainFrame@@IAEXXZ 00414280 f   MainFrm.obj
 0001:00013340       ?OnConfigureCartypes@CMainFrame@@IAEXXZ 00414340 f   MainFrm.obj
 0001:00013400       ?OnConfigureCommodities@CMainFrame@@IAEXXZ 00414400 f   MainFrm.obj
 0001:00013480       ?OnConfigureCars@CMainFrame@@IAEXXZ 00414480 f   MainFrm.obj
 0001:00013550       ?OnConfigureLocomotives@CMainFrame@@IAEXXZ 00414550 f   MainFrm.obj
 0001:000135f0       ?OnConfigureCaboose@CMainFrame@@IAEXXZ 004145f0 f   MainFrm.obj
 0001:000136b0       ?OnTrains@CMainFrame@@IAEXXZ 004146b0 f   MainFrm.obj
 0001:00013770       ??1CTrainsDialog@@UAE@XZ   00414770 f i MainFrm.obj
 0001:000137f0       ?OnRuntrainsRuntrains@CMainFrame@@IAEXXZ 004147f0 f   MainFrm.obj
 0001:00013960       ??1CRunTrainsDialog@@UAE@XZ 00414960 f i MainFrm.obj
 0001:00013a70       ?OnReportsCarlocation@CMainFrame@@IAEXXZ 00414a70 f   MainFrm.obj
 0001:00013a80       ?OnReportsCarlocationreportsCarlocationsortedall@CMainFrame@@IAEXXZ 00414a80 f   MainFrm.obj
 0001:00013a90       ?OnReportsCarsnotfound@CMainFrame@@IAEXXZ 00414a90 f   MainFrm.obj
 0001:00013b20       ?OnReportsCarlocationreportsCarlocationtrains@CMainFrame@@IAEXXZ 00414b20 f   MainFrm.obj
 0001:00013bc0       ?OnConfigurePhysicallayout@CMainFrame@@IAEXXZ 00414bc0 f   MainFrm.obj
 0001:00013d30       ??1CPhysicalLayoutDialog@@UAE@XZ 00414d30 f i MainFrm.obj
 0001:00013e40       ?OnHelpTopics@CMainFrame@@IAEXXZ 00414e40 f   MainFrm.obj
 0001:00013e60       ?OnHelpRegister@CMainFrame@@IAEXXZ 00414e60 f   MainFrm.obj
 0001:00013e80       ?OnHelpSendDB@CMainFrame@@IAEXXZ 00414e80 f   MainFrm.obj
 0001:00014250       ?OnReportsEquipmentlocation@CMainFrame@@IAEXXZ 00415250 f   MainFrm.obj
 0001:000142e0       ?OnUpdateConfigureCommodities@CMainFrame@@IAEXPAVCCmdUI@@@Z 004152e0 f   MainFrm.obj
 0001:00014300       ?LoadFrame@CMainFrame@@UAEHIKPAVCWnd@@PAUCCreateContext@@@Z 00415300 f   MainFrm.obj
 0001:00014340       ?OnReportsEquipmentTracking@CMainFrame@@IAEXXZ 00415340 f   MainFrm.obj
 0001:000143d0       ?OnReportsIndustryusage@CMainFrame@@IAEXXZ 004153d0 f   MainFrm.obj
 0001:00014460       ?OnHelpReleaseNotes@CMainFrame@@IAEXXZ 00415460 f   MainFrm.obj
 0001:00014550       ?OnReportsCarsNeeded@CMainFrame@@IAEXXZ 00415550 f   MainFrm.obj
 0001:000145d0       ?OnHelpSupportOpendatadirectory@CMainFrame@@IAEXXZ 004155d0 f   MainFrm.obj
 0001:000146c0       ?OnReportsTrainBuildingForm@CMainFrame@@IAEXXZ 004156c0 f   MainFrm.obj
 0001:000146d0       ??_ECGdiObject@@UAEPAXI@Z  004156d0 f i MainFrm.obj
 0001:000146d0       ??_GCGdiObject@@UAEPAXI@Z  004156d0 f i MainFrm.obj
 0001:000146f0       ??1CGdiObject@@UAE@XZ      004156f0 f i MainFrm.obj
 0001:00014740       ??0CNewVersionDialog@@QAE@PAVCWnd@@@Z 00415740 f   NewVersionDialog.obj
 0001:00014760       ??_ECNewVersionDialog@@UAEPAXI@Z 00415760 f i NewVersionDialog.obj
 0001:00014760       ??_GCNewVersionDialog@@UAEPAXI@Z 00415760 f i NewVersionDialog.obj
 0001:00014780       ??1CNewVersionDialog@@UAE@XZ 00415780 f i NewVersionDialog.obj
 0001:00014790       ?DoDataExchange@CNewVersionDialog@@MAEXPAVCDataExchange@@@Z 00415790 f   NewVersionDialog.obj
 0001:000147a0       ?_GetBaseMessageMap@CNewVersionDialog@@KGPBUAFX_MSGMAP@@XZ 004157a0 f   NewVersionDialog.obj
 0001:000147b0       ?GetMessageMap@CNewVersionDialog@@MBEPBUAFX_MSGMAP@@XZ 004157b0 f   NewVersionDialog.obj
 0001:000147c0       ?OnViewreadmebutton@CNewVersionDialog@@IAEXXZ 004157c0 f   NewVersionDialog.obj
 0001:000147e0       ?OnCancel@CNewVersionDialog@@MAEXXZ 004157e0 f   NewVersionDialog.obj
 0001:000147f0       ?OnOK@CNewVersionDialog@@MAEXXZ 004157f0 f   NewVersionDialog.obj
 0001:00014800       ??0CPDFViewerDialog@@QAE@PAVCWnd@@@Z 00415800 f   PDFViewerDialog.obj
 0001:00014860       ??_GCPDFViewerDialog@@UAEPAXI@Z 00415860 f i PDFViewerDialog.obj
 0001:00014860       ??_ECPDFViewerDialog@@UAEPAXI@Z 00415860 f i PDFViewerDialog.obj
 0001:00014880       ??1CPDFViewerDialog@@UAE@XZ 00415880 f i PDFViewerDialog.obj
 0001:000148d0       ?DoDataExchange@CPDFViewerDialog@@MAEXPAVCDataExchange@@@Z 004158d0 f   PDFViewerDialog.obj
 0001:000148e0       ?_GetBaseMessageMap@CPDFViewerDialog@@KGPBUAFX_MSGMAP@@XZ 004158e0 f   PDFViewerDialog.obj
 0001:000148f0       ?GetMessageMap@CPDFViewerDialog@@MBEPBUAFX_MSGMAP@@XZ 004158f0 f   PDFViewerDialog.obj
 0001:00014900       ?OnClose@CPDFViewerDialog@@IAEXXZ 00415900 f   PDFViewerDialog.obj
 0001:00014910       ?_GetBaseEventSinkMap@CPDFViewerDialog@@KGPBUAFX_EVENTSINKMAP@@XZ 00415910 f   PDFViewerDialog.obj
 0001:00014920       ?GetEventSinkMap@CPDFViewerDialog@@MBEPBUAFX_EVENTSINKMAP@@XZ 00415920 f   PDFViewerDialog.obj
 0001:00014930       ?OnInitDialog@CPDFViewerDialog@@MAEHXZ 00415930 f   PDFViewerDialog.obj
 0001:000149d0       ??0CPhysicalLayoutDialog@@QAE@PAVCWnd@@@Z 004159d0 f   PhysicalLayoutDialog.obj
 0001:00014b40       ??_ECPhysicalLayoutDialog@@UAEPAXI@Z 00415b40 f i PhysicalLayoutDialog.obj
 0001:00014b40       ??_GCPhysicalLayoutDialog@@UAEPAXI@Z 00415b40 f i PhysicalLayoutDialog.obj
 0001:00014b60       ?DoDataExchange@CPhysicalLayoutDialog@@MAEXPAVCDataExchange@@@Z 00415b60 f   PhysicalLayoutDialog.obj
 0001:00014c30       ?_GetBaseMessageMap@CPhysicalLayoutDialog@@KGPBUAFX_MSGMAP@@XZ 00415c30 f   PhysicalLayoutDialog.obj
 0001:00014c40       ?GetMessageMap@CPhysicalLayoutDialog@@MBEPBUAFX_MSGMAP@@XZ 00415c40 f   PhysicalLayoutDialog.obj
 0001:00014c50       ?OnInitDialog@CPhysicalLayoutDialog@@MAEHXZ 00415c50 f   PhysicalLayoutDialog.obj
 0001:00015080       ?ReadDB@CPhysicalLayoutDialog@@QAEXXZ 00416080 f   PhysicalLayoutDialog.obj
 0001:00015900       ?OnRclickLayout@CPhysicalLayoutDialog@@IAEXPAUtagNMHDR@@PAJ@Z 00416900 f   PhysicalLayoutDialog.obj
 0001:00015c50       ?OnDblclkLayout@CPhysicalLayoutDialog@@IAEXPAUtagNMHDR@@PAJ@Z 00416c50 f   PhysicalLayoutDialog.obj
 0001:00015d30       ?OnIndustrymenuDeleteindustry@CPhysicalLayoutDialog@@IAEXXZ 00416d30 f   PhysicalLayoutDialog.obj
 0001:00015d40       ?OnIndustrymenuEditindustry@CPhysicalLayoutDialog@@IAEXXZ 00416d40 f   PhysicalLayoutDialog.obj
 0001:00015f00       ?OnIndustrymenuNewindustry@CPhysicalLayoutDialog@@IAEXXZ 00416f00 f   PhysicalLayoutDialog.obj
 0001:00016090       ?OnLocationmenuEditlocation@CPhysicalLayoutDialog@@IAEXXZ 00417090 f   PhysicalLayoutDialog.obj
 0001:00016190       ?OnLocationmenuNewlocation@CPhysicalLayoutDialog@@IAEXXZ 00417190 f   PhysicalLayoutDialog.obj
 0001:00016260       ?OnLocationnmenuDeletelocation@CPhysicalLayoutDialog@@IAEXXZ 00417260 f   PhysicalLayoutDialog.obj
 0001:00016270       ?OnSidingmenuDeletesiding@CPhysicalLayoutDialog@@IAEXXZ 00417270 f   PhysicalLayoutDialog.obj
 0001:00016280       ?OnSidingmenuEditsiding@CPhysicalLayoutDialog@@IAEXXZ 00417280 f   PhysicalLayoutDialog.obj
 0001:000163a0       ??1CSidingDetailDialog@@UAE@XZ 004173a0 f i PhysicalLayoutDialog.obj
 0001:00016430       ?OnSidingmenuNewsiding@CPhysicalLayoutDialog@@IAEXXZ 00417430 f   PhysicalLayoutDialog.obj
 0001:000165e0       ?SetSidingLocation@CSidingDetailDialog@@QAEXVCString@@@Z 004175e0 f i PhysicalLayoutDialog.obj
 0001:00016630       ?OnClickLayout@CPhysicalLayoutDialog@@IAEXPAUtagNMHDR@@PAJ@Z 00417630 f   PhysicalLayoutDialog.obj
 0001:00016830       ?OnEditindustrybutton@CPhysicalLayoutDialog@@IAEXXZ 00417830 f   PhysicalLayoutDialog.obj
 0001:00016840       ?OnEditlocationbutton@CPhysicalLayoutDialog@@IAEXXZ 00417840 f   PhysicalLayoutDialog.obj
 0001:00016850       ?OnEditsidingbutton@CPhysicalLayoutDialog@@IAEXXZ 00417850 f   PhysicalLayoutDialog.obj
 0001:00016860       ?OnNewindustrybutton@CPhysicalLayoutDialog@@IAEXXZ 00417860 f   PhysicalLayoutDialog.obj
 0001:00016870       ?OnNewlocationbutton@CPhysicalLayoutDialog@@IAEXXZ 00417870 f   PhysicalLayoutDialog.obj
 0001:00016880       ?OnNewsidingbutton@CPhysicalLayoutDialog@@IAEXXZ 00417880 f   PhysicalLayoutDialog.obj
 0001:00016890       ?OnDeleteButton@CPhysicalLayoutDialog@@IAEXXZ 00417890 f   PhysicalLayoutDialog.obj
 0001:00016a90       ?OnOK@CPhysicalLayoutDialog@@MAEXXZ 00417a90 f   PhysicalLayoutDialog.obj
 0001:00016ab0       ?OnCancel@CPhysicalLayoutDialog@@MAEXXZ 00417ab0 f   PhysicalLayoutDialog.obj
 0001:00016ad0       ?OnDownbutton@CPhysicalLayoutDialog@@IAEXXZ 00417ad0 f   PhysicalLayoutDialog.obj
 0001:00016dd0       ?OnUpbutton@CPhysicalLayoutDialog@@IAEXXZ 00417dd0 f   PhysicalLayoutDialog.obj
 0001:00017070       ?ExpandTreeItem@CPhysicalLayoutDialog@@QAEXAAVCTreeCtrl@@PAU_TREEITEM@@I@Z 00418070 f   PhysicalLayoutDialog.obj
 0001:000170e0       ?MoveTreeItem@CPhysicalLayoutDialog@@QAEPAU_TREEITEM@@AAVCTreeCtrl@@PAU2@1HP6AJABV3@1J@Z1@Z 004180e0 f   PhysicalLayoutDialog.obj
 0001:000172a0       ??_ECPhysicalLayoutDialog@@WGA@AEPAXI@Z 004182a0 f i PhysicalLayoutDialog.obj
 0001:000172b0       ??_ECPhysicalLayoutDialog@@WHM@AEPAXI@Z 004182b0 f i PhysicalLayoutDialog.obj
 0001:000172c0       ??_ECPhysicalLayoutDialog@@WMI@AEPAXI@Z 004182c0 f i PhysicalLayoutDialog.obj
 0001:000172d0       ??_ECPhysicalLayoutDialog@@WPI@AEPAXI@Z 004182d0 f i PhysicalLayoutDialog.obj
 0001:000172e0       ??_ECFont@@UAEPAXI@Z       004182e0 f i PhysicalLayoutDialog.obj
 0001:000172e0       ??_GCFont@@UAEPAXI@Z       004182e0 f i PhysicalLayoutDialog.obj
 0001:00017300       ??1CFont@@UAE@XZ           00418300 f i PhysicalLayoutDialog.obj
 0001:00017350       ??0CPreferencesDialog@@QAE@PAVCWnd@@@Z 00418350 f   PreferencesDialog.obj
 0001:00017450       ??_ECPreferencesDialog@@UAEPAXI@Z 00418450 f i PreferencesDialog.obj
 0001:00017450       ??_GCPreferencesDialog@@UAEPAXI@Z 00418450 f i PreferencesDialog.obj
 0001:00017470       ?DoDataExchange@CPreferencesDialog@@MAEXPAVCDataExchange@@@Z 00418470 f   PreferencesDialog.obj
 0001:00017550       ?_GetBaseMessageMap@CPreferencesDialog@@KGPBUAFX_MSGMAP@@XZ 00418550 f   PreferencesDialog.obj
 0001:00017560       ?GetMessageMap@CPreferencesDialog@@MBEPBUAFX_MSGMAP@@XZ 00418560 f   PreferencesDialog.obj
 0001:00017570       ?OnInitDialog@CPreferencesDialog@@MAEHXZ 00418570 f   PreferencesDialog.obj
 0001:000177e0       ?OnOK@CPreferencesDialog@@MAEXXZ 004187e0 f   PreferencesDialog.obj
 0001:000179b0       ?OnBrowse@CPreferencesDialog@@IAEXXZ 004189b0 f   PreferencesDialog.obj
 0001:00017a90       ??1CFileDialog@@UAE@XZ     00418a90 f i PreferencesDialog.obj
 0001:00017ae0       ?error_handler@@YGXKKPAX@Z 00418ae0 f   Reports.obj
 0001:00017af0       ?DoCarLocationReport@@YAXH@Z 00418af0 f   Reports.obj
 0001:000185e0       ?DoCarLocationSortedReport@@YAXH@Z 004195e0 f   Reports.obj
 0001:00018d10       ?CheckCaboose@@YAXPAXH@Z   00419d10 f   Reports.obj
 0001:00018e90       ?AllCaboose@@YAXPAX@Z      00419e90 f   Reports.obj
 0001:000190a0       ?GetSiding@@YAHH@Z         0041a0a0 f   Reports.obj
 0001:000191d0       ?PrintSwitchlist@@YAXH@Z   0041a1d0 f   Reports.obj
 0001:00019200       ?PrintRealisticSwitchlist@@YAXH@Z 0041a200 f   Reports.obj
 0001:0001b750       ?PrintSimpleSwitchlist@@YAXH@Z 0041c750 f   Reports.obj
 0001:0001ce90       ?GetTrainOrderNumber@@YAHXZ 0041de90 f   Reports.obj
 0001:0001ced0       ?GetOperator@@YA?AVCString@@ABV1@@Z 0041ded0 f   Reports.obj
 0001:0001cf80       ?PrintForm19s@@YAXH@Z      0041df80 f   Reports.obj
 0001:0001e1f0       ?PrintBadOrderCards@@YAXH@Z 0041f1f0 f   Reports.obj
 0001:0001f050       ?DoCarsNotFoundReport@@YAXHH@Z 00420050 f   Reports.obj
 0001:0001f060       ?GetWorkDirectory@@YA?AVCString@@XZ 00420060 f   Reports.obj
 0001:0001f140       ?Watermark@@YAXPAX0@Z      00420140 f   Reports.obj
 0001:0001f150       ?ShowPDF@@YAXPAD@Z         00420150 f   Reports.obj
 0001:0001f170       ?DoTrainBuildingForm@@YAXXZ 00420170 f   Reports.obj
 0001:0001f640       ??1?$vector@VCCar@@V?$allocator@VCCar@@@std@@@std@@QAE@XZ 00420640 f i Reports.obj
 0001:0001f670       ?size@?$vector@VCCar@@V?$allocator@VCCar@@@std@@@std@@QBEIXZ 00420670 f i Reports.obj
 0001:0001f6a0       ?_Destroy@?$vector@VCCar@@V?$allocator@VCCar@@@std@@@std@@IAEXPAVCCar@@0@Z 004206a0 f i Reports.obj
 0001:0001f6b0       ?insert@?$vector@VCCar@@V?$allocator@VCCar@@@std@@@std@@QAEXPAVCCar@@IABV3@@Z 004206b0 f i Reports.obj
 0001:0001f9b0       ?_Ucopy@?$vector@VCCar@@V?$allocator@VCCar@@@std@@@std@@IAEPAVCCar@@PBV3@0PAV3@@Z 004209b0 f i Reports.obj
 0001:0001f9f0       ?_Ufill@?$vector@VCCar@@V?$allocator@VCCar@@@std@@@std@@IAEXPAVCCar@@IABV3@@Z 004209f0 f i Reports.obj
 0001:0001fa20       ??1?$CArray@HH@@UAE@XZ     00420a20 f i Reports.obj
 0001:0001fa50       ?Serialize@?$CArray@HH@@UAEXAAVCArchive@@@Z 00420a50 f i Reports.obj
 0001:0001fbe0       ?GetAt@?$CArray@VCString@@V1@@@QBE?AVCString@@H@Z 00420be0 f i Reports.obj
 0001:0001fc10       ?Add@?$CArray@VCString@@V1@@@QAEHVCString@@@Z 00420c10 f i Reports.obj
 0001:0001fc80       ??1?$CArray@VCString@@V1@@@UAE@XZ 00420c80 f i Reports.obj
 0001:0001fce0       ?Serialize@?$CArray@VCString@@V1@@@UAEXAAVCArchive@@@Z 00420ce0 f i Reports.obj
 0001:0001fe60       ??_E?$CArray@HH@@UAEPAXI@Z 00420e60 f i Reports.obj
 0001:0001fe60       ??_G?$CArray@HH@@UAEPAXI@Z 00420e60 f i Reports.obj
 0001:0001fe80       ??_E?$CArray@VCString@@V1@@@UAEPAXI@Z 00420e80 f i Reports.obj
 0001:0001fe80       ??_G?$CArray@VCString@@V1@@@UAEPAXI@Z 00420e80 f i Reports.obj
 0001:0001fea0       ?SetSize@?$CArray@HH@@QAEXHH@Z 00420ea0 f i Reports.obj
 0001:0001ffe0       ?SetAtGrow@?$CArray@VCString@@V1@@@QAEXHVCString@@@Z 00420fe0 f i Reports.obj
 0001:00020210       ??0CRunTrainsDialog@@QAE@PAVCWnd@@@Z 00421210 f   RunTrainsDialog.obj
 0001:00020330       ??_ECRunTrainsDialog@@UAEPAXI@Z 00421330 f i RunTrainsDialog.obj
 0001:00020330       ??_GCRunTrainsDialog@@UAEPAXI@Z 00421330 f i RunTrainsDialog.obj
 0001:00020350       ?DoDataExchange@CRunTrainsDialog@@MAEXPAVCDataExchange@@@Z 00421350 f   RunTrainsDialog.obj
 0001:000203f0       ?_GetBaseMessageMap@CRunTrainsDialog@@KGPBUAFX_MSGMAP@@XZ 004213f0 f   RunTrainsDialog.obj
 0001:00020400       ?GetMessageMap@CRunTrainsDialog@@MBEPBUAFX_MSGMAP@@XZ 00421400 f   RunTrainsDialog.obj
 0001:00020410       ?OnInitDialog@CRunTrainsDialog@@MAEHXZ 00421410 f   RunTrainsDialog.obj
 0001:00020760       ?ReadDB@CRunTrainsDialog@@IAEXXZ 00421760 f   RunTrainsDialog.obj
 0001:00020bb0       ?OnRuntrainbutton@CRunTrainsDialog@@IAEXXZ 00421bb0 f   RunTrainsDialog.obj
 0001:00020bd0       ?BuildByCars@CRunTrainsDialog@@IAEXXZ 00421bd0 f   RunTrainsDialog.obj
 0001:00021aa0       ?TRACE@@YAXPBDZZ           00422aa0 f i RunTrainsDialog.obj
 0001:00021af0       ?BuildByCommodities@CRunTrainsDialog@@IAEXXZ 00422af0 f   RunTrainsDialog.obj
 0001:00021b00       ?ValidateTrain@CRunTrainsDialog@@IAEXH@Z 00422b00 f   RunTrainsDialog.obj
 0001:000222a0       ?GetTrainNotes@CTrainDetailDialog@@QAE?AVCString@@XZ 004232a0 f i RunTrainsDialog.obj
 0001:000222d0       ??1CTrainDetailDialog@@UAE@XZ 004232d0 f i RunTrainsDialog.obj
 0001:000223b0       ??1CAMSAlphanumericEdit@@UAE@XZ 004233b0 f i RunTrainsDialog.obj
 0001:00022420       ??1AlphanumericBehavior@CAMSEdit@@UAE@XZ 00423420 f i RunTrainsDialog.obj
 0001:00022470       ?GetCarType@CRunTrainsDialog@@IAE?AVCString@@H@Z 00423470 f   RunTrainsDialog.obj
 0001:00022580       ?GetFirstTrainLocation@CRunTrainsDialog@@IAEHH@Z 00423580 f   RunTrainsDialog.obj
 0001:00022650       ?GetLastTrainLocation@CRunTrainsDialog@@IAEHH@Z 00423650 f   RunTrainsDialog.obj
 0001:00022720       ?NeedThisCar@CRunTrainsDialog@@IAEHHH@Z 00423720 f   RunTrainsDialog.obj
 0001:00022820       ?CarReadyForPickup@CRunTrainsDialog@@IAEHH@Z 00423820 f   RunTrainsDialog.obj
 0001:00022900       ?NeedThisCommodity@CRunTrainsDialog@@IAEHHH@Z 00423900 f   RunTrainsDialog.obj
 0001:00022910       ?GetCarQuantity@CRunTrainsDialog@@IAEHHHH@Z 00423910 f   RunTrainsDialog.obj
 0001:00022960       ?GetCarFromOffLayout@CRunTrainsDialog@@IAEPAVCFoundCar@@HHH@Z 00423960 f   RunTrainsDialog.obj
 0001:00022c50       ?GetScheduledCars@CRunTrainsDialog@@IAE?AVCString@@XZ 00423c50 f   RunTrainsDialog.obj
 0001:00022ee0       ?GetInterchangeSiding@CRunTrainsDialog@@IAEHHHHPAH0@Z 00423ee0 f   RunTrainsDialog.obj
 0001:00023170       ?GetEmptyCar@CRunTrainsDialog@@IAEPAVCFoundCar@@HHH@Z 00424170 f   RunTrainsDialog.obj
 0001:000236a0       ?GetLoadedCar@CRunTrainsDialog@@IAEPAVCFoundCar@@HHH@Z 004246a0 f   RunTrainsDialog.obj
 0001:00023950       ?GetFirstYardSiding@CRunTrainsDialog@@IAEHHH@Z 00424950 f   RunTrainsDialog.obj
 0001:00023b40       ?GetYardSiding@CRunTrainsDialog@@IAE_NHHPAH0@Z 00424b40 f   RunTrainsDialog.obj
 0001:00023d20       ?GetYardSidingForEmpties@CRunTrainsDialog@@IAE_NHHPAH0@Z 00424d20 f   RunTrainsDialog.obj
 0001:00023ea0       ?AnyYardSidings@CRunTrainsDialog@@IAE_NXZ 00424ea0 f   RunTrainsDialog.obj
 0001:00023f50       ?CarOnTrain@CRunTrainsDialog@@IAEHH@Z 00424f50 f   RunTrainsDialog.obj
 0001:00024010       ?SwitchingSiding@CRunTrainsDialog@@IAE_NHH@Z 00425010 f   RunTrainsDialog.obj
 0001:00024140       ?CarHasReturnTo@CRunTrainsDialog@@IAE_NHPAH0@Z 00425140 f   RunTrainsDialog.obj
 0001:00024290       ?LocationOnRoute@CRunTrainsDialog@@IAE_NHHH@Z 00425290 f   RunTrainsDialog.obj
 0001:000243a0       ?OnItemchangedTrainlist@CRunTrainsDialog@@IAEXPAUtagNMHDR@@PAJ@Z 004253a0 f   RunTrainsDialog.obj
 0001:000243c0       ?CheckButtons@CRunTrainsDialog@@IAEXXZ 004253c0 f   RunTrainsDialog.obj
 0001:00024480       ?OnItemchangedLocolist@CRunTrainsDialog@@IAEXPAUtagNMHDR@@PAJ@Z 00425480 f   RunTrainsDialog.obj
 0001:000244d0       ?OnItemchangedRunningtrainslist@CRunTrainsDialog@@IAEXPAUtagNMHDR@@PAJ@Z 004254d0 f   RunTrainsDialog.obj
 0001:000244f0       ?OnDeletebutton@CRunTrainsDialog@@IAEXXZ 004254f0 f   RunTrainsDialog.obj
 0001:00024690       ?OnTerminatebutton@CRunTrainsDialog@@IAEXXZ 00425690 f   RunTrainsDialog.obj
 0001:00024790       ??1CTerminateTrainDialog@@UAE@XZ 00425790 f i RunTrainsDialog.obj
 0001:000247f0       ?OnAdvance@CRunTrainsDialog@@IAEXXZ 004257f0 f   RunTrainsDialog.obj
 0001:00024960       ?AdvanceTheDate@CRunTrainsDialog@@IAEXXZ 00425960 f   RunTrainsDialog.obj
 0001:00025030       ?OnItemchangingTrainlist@CRunTrainsDialog@@IAEXPAUtagNMHDR@@PAJ@Z 00426030 f   RunTrainsDialog.obj
 0001:000251b0       ?OnItemchangedCabooselist@CRunTrainsDialog@@IAEXPAUtagNMHDR@@PAJ@Z 004261b0 f   RunTrainsDialog.obj
 0001:00025200       ?DestroyWindow@CRunTrainsDialog@@UAEHXZ 00426200 f   RunTrainsDialog.obj
 0001:00025210       ?GetTrainFK@CRunTrainsDialog@@IAEHH@Z 00426210 f   RunTrainsDialog.obj
 0001:00025300       ?OnTrainDetailButton@CRunTrainsDialog@@IAEXXZ 00426300 f   RunTrainsDialog.obj
 0001:00025850       ?OnForms@CRunTrainsDialog@@IAEXXZ 00426850 f   RunTrainsDialog.obj
 0001:00025980       ?OnSwitchlist@CRunTrainsDialog@@IAEXXZ 00426980 f   RunTrainsDialog.obj
 0001:000259e0       ?OnForm19@CRunTrainsDialog@@IAEXXZ 004269e0 f   RunTrainsDialog.obj
 0001:00025a40       ?OnBadOrder@CRunTrainsDialog@@IAEXXZ 00426a40 f   RunTrainsDialog.obj
 0001:00025b70       ?OnOK@CRunTrainsDialog@@MAEXXZ 00426b70 f   RunTrainsDialog.obj
 0001:00025ba0       ?OnReports@CRunTrainsDialog@@IAEXXZ 00426ba0 f   RunTrainsDialog.obj
 0001:00025c30       ??1CScheduledTrainsReportsDialog@@UAE@XZ 00426c30 f i RunTrainsDialog.obj
 0001:00025c90       ?OnRecalc@CRunTrainsDialog@@IAEXXZ 00426c90 f   RunTrainsDialog.obj
 0001:000261d0       ?copy@std@@YAPAVCCar@@PAV2@00@Z 004271d0 f i RunTrainsDialog.obj
 0001:00026210       ??0CScheduledTrainsReportsDialog@@QAE@PAVCWnd@@@Z 00427210 f   ScheduledTrainsReportsDialog.obj
 0001:00026290       ??_GCScheduledTrainsReportsDialog@@UAEPAXI@Z 00427290 f i ScheduledTrainsReportsDialog.obj
 0001:00026290       ??_ECScheduledTrainsReportsDialog@@UAEPAXI@Z 00427290 f i ScheduledTrainsReportsDialog.obj
 0001:000262b0       ?DoDataExchange@CScheduledTrainsReportsDialog@@MAEXPAVCDataExchange@@@Z 004272b0 f   ScheduledTrainsReportsDialog.obj
 0001:000262e0       ?_GetBaseMessageMap@CScheduledTrainsReportsDialog@@KGPBUAFX_MSGMAP@@XZ 004272e0 f   ScheduledTrainsReportsDialog.obj
 0001:000262f0       ?GetMessageMap@CScheduledTrainsReportsDialog@@MBEPBUAFX_MSGMAP@@XZ 004272f0 f   ScheduledTrainsReportsDialog.obj
 0001:00026300       ?OnInitDialog@CScheduledTrainsReportsDialog@@MAEHXZ 00427300 f   ScheduledTrainsReportsDialog.obj
 0001:000265f0       ?OnPrint@CScheduledTrainsReportsDialog@@IAEXXZ 004275f0 f   ScheduledTrainsReportsDialog.obj
 0001:00026730       ?OnClickTrainsTree@CScheduledTrainsReportsDialog@@IAEXPAUtagNMHDR@@PAJ@Z 00427730 f   ScheduledTrainsReportsDialog.obj
 0001:000267c0       ?OnCheckStateChanged@CScheduledTrainsReportsDialog@@IAEJIJ@Z 004277c0 f   ScheduledTrainsReportsDialog.obj
 0001:000268b0       ??0CSidingDetailDialog@@QAE@PAVCWnd@@@Z 004278b0 f   SidingDetailDialog.obj
 0001:000269b0       ??_ECSidingDetailDialog@@UAEPAXI@Z 004279b0 f i SidingDetailDialog.obj
 0001:000269b0       ??_GCSidingDetailDialog@@UAEPAXI@Z 004279b0 f i SidingDetailDialog.obj
 0001:000269d0       ?DoDataExchange@CSidingDetailDialog@@MAEXPAVCDataExchange@@@Z 004279d0 f   SidingDetailDialog.obj
 0001:00026a70       ?_GetBaseMessageMap@CSidingDetailDialog@@KGPBUAFX_MSGMAP@@XZ 00427a70 f   SidingDetailDialog.obj
 0001:00026a80       ?GetMessageMap@CSidingDetailDialog@@MBEPBUAFX_MSGMAP@@XZ 00427a80 f   SidingDetailDialog.obj
 0001:00026a90       ?OnInitDialog@CSidingDetailDialog@@MAEHXZ 00427a90 f   SidingDetailDialog.obj
 0001:00026da0       ?SetSidingID@CSidingDetailDialog@@QAEXH@Z 00427da0 f   SidingDetailDialog.obj
 0001:00026db0       ?SetSidingDefault@CSidingDetailDialog@@QAEXXZ 00427db0 f   SidingDetailDialog.obj
 0001:00026dc0       ?OnOK@CSidingDetailDialog@@MAEXXZ 00427dc0 f   SidingDetailDialog.obj
 0001:00026f70       ??0CSidingsDialog@@QAE@PAVCWnd@@@Z 00427f70 f   SidingsDialog.obj
 0001:00027020       ??_ECSidingsDialog@@UAEPAXI@Z 00428020 f i SidingsDialog.obj
 0001:00027020       ??_GCSidingsDialog@@UAEPAXI@Z 00428020 f i SidingsDialog.obj
 0001:00027040       ?DoDataExchange@CSidingsDialog@@MAEXPAVCDataExchange@@@Z 00428040 f   SidingsDialog.obj
 0001:000270a0       ?_GetBaseMessageMap@CSidingsDialog@@KGPBUAFX_MSGMAP@@XZ 004280a0 f   SidingsDialog.obj
 0001:000270b0       ?GetMessageMap@CSidingsDialog@@MBEPBUAFX_MSGMAP@@XZ 004280b0 f   SidingsDialog.obj
 0001:000270c0       ?OnInitDialog@CSidingsDialog@@MAEHXZ 004280c0 f   SidingsDialog.obj
 0001:000270e0       ?ReadDB@CSidingsDialog@@IAEXXZ 004280e0 f   SidingsDialog.obj
 0001:00027390       ?OnAddbutton@CSidingsDialog@@IAEXXZ 00428390 f   SidingsDialog.obj
 0001:00027640       ?GetSidingLocation@CSidingDetailDialog@@QAE?AVCString@@XZ 00428640 f i SidingsDialog.obj
 0001:00027670       ?OnEditbutton@CSidingsDialog@@IAEXXZ 00428670 f   SidingsDialog.obj
 0001:00027800       ?OnDeletebutton@CSidingsDialog@@IAEXXZ 00428800 f   SidingsDialog.obj
 0001:000278f0       ?OnOK@CSidingsDialog@@MAEXXZ 004288f0 f   SidingsDialog.obj
 0001:00027910       ?OnSelchangedSidingstree@CSidingsDialog@@IAEXPAUtagNMHDR@@PAJ@Z 00428910 f   SidingsDialog.obj
 0001:00027a10       ?OnDblclkSidingstree@CSidingsDialog@@IAEXPAUtagNMHDR@@PAJ@Z 00428a10 f   SidingsDialog.obj
 0001:00027a30       ?OnTimer@CSidingsDialog@@IAEXI@Z 00428a30 f   SidingsDialog.obj
 0001:00027b60       ?FileExists@@YA_NPBD@Z     00428b60 f   StdAfx.obj
 0001:00027b80       ??0CTerminateNewLocationDialog@@QAE@PAVCWnd@@@Z 00428b80 f   TerminateNewLocationDialog.obj
 0001:00027c80       ??_GCTerminateNewLocationDialog@@UAEPAXI@Z 00428c80 f i TerminateNewLocationDialog.obj
 0001:00027c80       ??_ECTerminateNewLocationDialog@@UAEPAXI@Z 00428c80 f i TerminateNewLocationDialog.obj
 0001:00027ca0       ??1CTerminateNewLocationDialog@@UAE@XZ 00428ca0 f i TerminateNewLocationDialog.obj
 0001:00027d40       ?DoDataExchange@CTerminateNewLocationDialog@@MAEXPAVCDataExchange@@@Z 00428d40 f   TerminateNewLocationDialog.obj
 0001:00027dc0       ?_GetBaseMessageMap@CTerminateNewLocationDialog@@KGPBUAFX_MSGMAP@@XZ 00428dc0 f   TerminateNewLocationDialog.obj
 0001:00027dd0       ?GetMessageMap@CTerminateNewLocationDialog@@MBEPBUAFX_MSGMAP@@XZ 00428dd0 f   TerminateNewLocationDialog.obj
 0001:00027de0       ?OnInitDialog@CTerminateNewLocationDialog@@MAEHXZ 00428de0 f   TerminateNewLocationDialog.obj
 0001:00027ed0       ?OnSelchangeLocationlist@CTerminateNewLocationDialog@@IAEXXZ 00428ed0 f   TerminateNewLocationDialog.obj
 0001:00028140       ?OnOK@CTerminateNewLocationDialog@@MAEXXZ 00429140 f   TerminateNewLocationDialog.obj
 0001:000281d0       ?OnSelchangeIndustrylist@CTerminateNewLocationDialog@@IAEXXZ 004291d0 f   TerminateNewLocationDialog.obj
 0001:000281f0       ?OnSelchangeSidinglist@CTerminateNewLocationDialog@@IAEXXZ 004291f0 f   TerminateNewLocationDialog.obj
 0001:000282a0       ??0CTerminateTrainDialog@@QAE@PAVCWnd@@@Z 004292a0 f   TerminateTrainDialog.obj
 0001:00028350       ??_GCTerminateTrainDialog@@UAEPAXI@Z 00429350 f i TerminateTrainDialog.obj
 0001:00028350       ??_ECTerminateTrainDialog@@UAEPAXI@Z 00429350 f i TerminateTrainDialog.obj
 0001:00028370       ?DoDataExchange@CTerminateTrainDialog@@MAEXPAVCDataExchange@@@Z 00429370 f   TerminateTrainDialog.obj
 0001:000283b0       ?_GetBaseMessageMap@CTerminateTrainDialog@@KGPBUAFX_MSGMAP@@XZ 004293b0 f   TerminateTrainDialog.obj
 0001:000283c0       ?GetMessageMap@CTerminateTrainDialog@@MBEPBUAFX_MSGMAP@@XZ 004293c0 f   TerminateTrainDialog.obj
 0001:000283d0       ?OnInitDialog@CTerminateTrainDialog@@MAEHXZ 004293d0 f   TerminateTrainDialog.obj
 0001:00028be0       ?OnOK@CTerminateTrainDialog@@MAEXXZ 00429be0 f   TerminateTrainDialog.obj
 0001:00028f30       ?OnRclickTrainlist@CTerminateTrainDialog@@IAEXPAUtagNMHDR@@PAJ@Z 00429f30 f   TerminateTrainDialog.obj
 0001:00029180       ?OnCancel@CTerminateTrainDialog@@MAEXXZ 0042a180 f   TerminateTrainDialog.obj
 0001:000291b0       ?OnClose@CTerminateTrainDialog@@IAEXXZ 0042a1b0 f   TerminateTrainDialog.obj
 0001:000291e0       ??_ECTerminateTrainDialog@@WGA@AEPAXI@Z 0042a1e0 f i TerminateTrainDialog.obj
 0001:000291f0       ??_ECTerminateTrainDialog@@WHM@AEPAXI@Z 0042a1f0 f i TerminateTrainDialog.obj
 0001:00029200       ??_ECTerminateTrainDialog@@WMI@AEPAXI@Z 0042a200 f i TerminateTrainDialog.obj
 0001:00029210       ??_ECTerminateTrainDialog@@WPI@AEPAXI@Z 0042a210 f i TerminateTrainDialog.obj
 0001:00029220       ??0CTrainDetailDialog@@QAE@PAVCWnd@@@Z 0042a220 f   TrainDetailDialog.obj
 0001:00029350       ??_GCTrainDetailDialog@@UAEPAXI@Z 0042a350 f i TrainDetailDialog.obj
 0001:00029350       ??_ECTrainDetailDialog@@UAEPAXI@Z 0042a350 f i TrainDetailDialog.obj
 0001:00029370       ?DoDataExchange@CTrainDetailDialog@@MAEXPAVCDataExchange@@@Z 0042a370 f   TrainDetailDialog.obj
 0001:00029410       ?_GetBaseMessageMap@CTrainDetailDialog@@KGPBUAFX_MSGMAP@@XZ 0042a410 f   TrainDetailDialog.obj
 0001:00029420       ?GetMessageMap@CTrainDetailDialog@@MBEPBUAFX_MSGMAP@@XZ 0042a420 f   TrainDetailDialog.obj
 0001:00029430       ?OnInitDialog@CTrainDetailDialog@@MAEHXZ 0042a430 f   TrainDetailDialog.obj
 0001:0002af20       ?GetSiding@CTrainDetailDialog@@QAEHH@Z 0042bf20 f   TrainDetailDialog.obj
 0001:0002b050       ?OnClickTraindetail@CTrainDetailDialog@@IAEXPAUtagNMHDR@@PAJ@Z 0042c050 f   TrainDetailDialog.obj
 0001:0002b0e0       ?OnCheckStateChanged@CTrainDetailDialog@@IAEJIJ@Z 0042c0e0 f   TrainDetailDialog.obj
 0001:0002b7b0       ?GetLastLocation@CTrainDetailDialog@@QAEPAU_TREEITEM@@XZ 0042c7b0 f   TrainDetailDialog.obj
 0001:0002b880       ?GetSelectedLocoCapacity@CTrainDetailDialog@@IAEHXZ 0042c880 f   TrainDetailDialog.obj
 0001:0002b990       ?GetMaxMoves@CTrainDetailDialog@@QAEHH@Z 0042c990 f   TrainDetailDialog.obj
 0001:0002ba60       ?ValidateTrain@CTrainDetailDialog@@IAEXXZ 0042ca60 f   TrainDetailDialog.obj
 0001:0002bf30       ?OnCancel@CTrainDetailDialog@@MAEXXZ 0042cf30 f   TrainDetailDialog.obj
 0001:0002bf50       ?OnOK@CTrainDetailDialog@@MAEXXZ 0042cf50 f   TrainDetailDialog.obj
 0001:0002c120       ?CleanupTree@CTrainDetailDialog@@QAEXXZ 0042d120 f   TrainDetailDialog.obj
 0001:0002c210       ??1node_data@@QAE@XZ       0042d210 f i TrainDetailDialog.obj
 0001:0002c250       ?GetLocomotive@CTrainDetailDialog@@QAEHXZ 0042d250 f   TrainDetailDialog.obj
 0001:0002c260       ?GetCaboose@CTrainDetailDialog@@QAEHXZ 0042d260 f   TrainDetailDialog.obj
 0001:0002c270       ?GetIndustrySidingCapacity@CTrainDetailDialog@@QAEHH@Z 0042d270 f   TrainDetailDialog.obj
 0001:0002c340       ?GetSidingCapacity@CTrainDetailDialog@@QAEHH@Z 0042d340 f   TrainDetailDialog.obj
 0001:0002c360       ?OnIgnorerestrictions@CTrainDetailDialog@@IAEXXZ 0042d360 f   TrainDetailDialog.obj
 0001:0002c370       ?OnSelChangeLocomotiveList@CTrainDetailDialog@@IAEXXZ 0042d370 f   TrainDetailDialog.obj
 0001:0002c400       ?CrashCallback@@YGHPAX@Z   0042d400 f   TrainOps.obj
 0001:0002c560       ?_GetBaseMessageMap@CTrainOpsApp@@KGPBUAFX_MSGMAP@@XZ 0042d560 f   TrainOps.obj
 0001:0002c570       ?GetMessageMap@CTrainOpsApp@@MBEPBUAFX_MSGMAP@@XZ 0042d570 f   TrainOps.obj
 0001:0002c580       ??0CTrainOpsApp@@QAE@XZ    0042d580 f   TrainOps.obj
 0001:0002c5f0       ??_ECTrainOpsApp@@UAEPAXI@Z 0042d5f0 f i TrainOps.obj
 0001:0002c5f0       ??_GCTrainOpsApp@@UAEPAXI@Z 0042d5f0 f i TrainOps.obj
 0001:0002c610       ??1CTrainOpsApp@@UAE@XZ    0042d610 f   TrainOps.obj
 0001:0002c6d0       ?InitInstance@CTrainOpsApp@@UAEHXZ 0042d6d0 f   TrainOps.obj
 0001:0002cc50       ?SetTitle@CTrainOpsApp@@QAEXXZ 0042dc50 f   TrainOps.obj
 0001:0002cd70       ?OpenDatabase@CTrainOpsApp@@QAEXXZ 0042dd70 f   TrainOps.obj
 0001:0002cec0       ?CloseDatabase@CTrainOpsApp@@QAEXXZ 0042dec0 f   TrainOps.obj
 0001:0002ced0       ?StartupProcessing@CTrainOpsApp@@QAEHXZ 0042ded0 f   TrainOps.obj
 0001:0002cf60       ?GetProgramPath@CTrainOpsApp@@IAE?AVCString@@XZ 0042df60 f   TrainOps.obj
 0001:0002d050       ?RunCommands@CTrainOpsApp@@QAEXPAVCppSQLite3DB@@@Z 0042e050 f   TrainOps.obj
 0001:0002d410       ?CheckTables@CTrainOpsApp@@QAEXPAVCppSQLite3DB@@@Z 0042e410 f   TrainOps.obj
 0001:0002d670       ?CreateTable@CTrainOpsApp@@QAEXVCString@@PAVCppSQLite3DB@@@Z 0042e670 f   TrainOps.obj
 0001:0002dba0       ?UpdateTable@CTrainOpsApp@@QAEXVCString@@PAVCppSQLite3DB@@@Z 0042eba0 f   TrainOps.obj
 0001:0002e190       ?FillCarTypesData@CTrainOpsApp@@QAEXPAVCppSQLite3DB@@@Z 0042f190 f   TrainOps.obj
 0001:0002e250       ?VerifyLocationTablesData@CTrainOpsApp@@QAEXPAVCppSQLite3DB@@@Z 0042f250 f   TrainOps.obj
 0001:0002e260       ?VerifySidingTablesData@CTrainOpsApp@@QAEXPAVCppSQLite3DB@@@Z 0042f260 f   TrainOps.obj
 0001:0002e410       ?VerifyIndustryTablesData@CTrainOpsApp@@QAEXPAVCppSQLite3DB@@@Z 0042f410 f   TrainOps.obj
 0001:0002e6b0       ?VerifyCarTablesData@CTrainOpsApp@@QAEXPAVCppSQLite3DB@@@Z 0042f6b0 f   TrainOps.obj
 0001:0002ec80       ?VerifyConfigData@CTrainOpsApp@@QAEXPAVCppSQLite3DB@@@Z 0042fc80 f   TrainOps.obj
 0001:0002ed40       ?SetupConfig@CTrainOpsApp@@QAEXPAVCppSQLite3DB@@@Z 0042fd40 f   TrainOps.obj
 0001:0002ed60       ?GetDate@CTrainOpsApp@@QAEHXZ 0042fd60 f   TrainOps.obj
 0001:0002ede0       ?GetDateString@CTrainOpsApp@@QAE?AVCString@@XZ 0042fde0 f   TrainOps.obj
 0001:0002eed0       ?ExitInstance@CTrainOpsApp@@UAEHXZ 0042fed0 f   TrainOps.obj
 0001:0002eef0       ?VersionCheck@CTrainOpsApp@@QAEXXZ 0042fef0 f   TrainOps.obj
 0001:0002f150       ?WinHelpA@CTrainOpsApp@@UAEXKI@Z 00430150 f   TrainOps.obj
 0001:0002f2c0       ?GetIndustryRatios@CTrainOpsApp@@QAE?AVCString@@HHPAH@Z 004302c0 f   TrainOps.obj
 0001:0002f650       ??0?$vector@PAU_tagXMLNode@@V?$allocator@PAU_tagXMLNode@@@std@@@std@@QAE@ABV?$allocator@PAU_tagXMLNode@@@1@@Z 00430650 f i TrainOps.obj
 0001:0002f670       ??1?$vector@PAU_tagXMLNode@@V?$allocator@PAU_tagXMLNode@@@std@@@std@@QAE@XZ 00430670 f i TrainOps.obj
 0001:0002f6a0       ?size@?$vector@PAU_tagXMLNode@@V?$allocator@PAU_tagXMLNode@@@std@@@std@@QBEIXZ 004306a0 f i TrainOps.obj
 0001:0002f6c0       ??0?$vector@PAU_tagXMLAttr@@V?$allocator@PAU_tagXMLAttr@@@std@@@std@@QAE@ABV?$allocator@PAU_tagXMLAttr@@@1@@Z 004306c0 f i TrainOps.obj
 0001:0002f6e0       ?capacity@?$vector@PAU_tagXMLNode@@V?$allocator@PAU_tagXMLNode@@@std@@@std@@QBEIXZ 004306e0 f i TrainOps.obj
 0001:0002f700       ?_Destroy@?$vector@PAU_tagXMLNode@@V?$allocator@PAU_tagXMLNode@@@std@@@std@@IAEXPAPAU_tagXMLNode@@0@Z 00430700 f i TrainOps.obj
 0001:0002f710       ?_Ucopy@?$vector@PAU_tagXMLNode@@V?$allocator@PAU_tagXMLNode@@@std@@@std@@IAEPAPAU_tagXMLNode@@PBQAU3@0PAPAU3@@Z 00430710 f i TrainOps.obj
 0001:0002f740       ?copy@std@@YAPAPAU_tagXMLNode@@PBQAU2@0PAPAU2@@Z 00430740 f i TrainOps.obj
 0001:0002f770       ?CreateObject@CTrainOpsDoc@@SGPAVCObject@@XZ 00430770 f   TrainOpsDoc.obj
 0001:0002f7d0       ?_GetBaseClass@CTrainOpsDoc@@KGPAUCRuntimeClass@@XZ 004307d0 f   TrainOpsDoc.obj
 0001:0002f7e0       ?GetRuntimeClass@CTrainOpsDoc@@UBEPAUCRuntimeClass@@XZ 004307e0 f   TrainOpsDoc.obj
 0001:0002f7f0       ?_GetBaseMessageMap@CTrainOpsDoc@@KGPBUAFX_MSGMAP@@XZ 004307f0 f   TrainOpsDoc.obj
 0001:0002f800       ?GetMessageMap@CTrainOpsDoc@@MBEPBUAFX_MSGMAP@@XZ 00430800 f   TrainOpsDoc.obj
 0001:0002f810       ??0CTrainOpsDoc@@IAE@XZ    00430810 f   TrainOpsDoc.obj
 0001:0002f830       ??_ECTrainOpsDoc@@UAEPAXI@Z 00430830 f i TrainOpsDoc.obj
 0001:0002f830       ??_GCTrainOpsDoc@@UAEPAXI@Z 00430830 f i TrainOpsDoc.obj
 0001:0002f850       ??1CTrainOpsDoc@@UAE@XZ    00430850 f   TrainOpsDoc.obj
 0001:0002f860       ?OnNewDocument@CTrainOpsDoc@@UAEHXZ 00430860 f   TrainOpsDoc.obj
 0001:0002f890       ?Serialize@CTrainOpsDoc@@UAEXAAVCArchive@@@Z 00430890 f   TrainOpsDoc.obj
 0001:0002f8a0       ?IsModified@CDocument@@UAEHXZ 004308a0 f i TrainOpsDoc.obj
 0001:0002f8b0       ?SetModifiedFlag@CDocument@@UAEXH@Z 004308b0 f i TrainOpsDoc.obj
 0001:0002f8c0       ?CreateObject@CTrainOpsView@@SGPAVCObject@@XZ 004308c0 f   TrainOpsView.obj
 0001:0002f920       ?_GetBaseClass@CTrainOpsView@@KGPAUCRuntimeClass@@XZ 00430920 f   TrainOpsView.obj
 0001:0002f930       ?GetRuntimeClass@CTrainOpsView@@UBEPAUCRuntimeClass@@XZ 00430930 f   TrainOpsView.obj
 0001:0002f940       ?_GetBaseMessageMap@CTrainOpsView@@KGPBUAFX_MSGMAP@@XZ 00430940 f   TrainOpsView.obj
 0001:0002f950       ?GetMessageMap@CTrainOpsView@@MBEPBUAFX_MSGMAP@@XZ 00430950 f   TrainOpsView.obj
 0001:0002f960       ??0CTrainOpsView@@IAE@XZ   00430960 f   TrainOpsView.obj
 0001:0002f980       ??_ECTrainOpsView@@UAEPAXI@Z 00430980 f i TrainOpsView.obj
 0001:0002f980       ??_GCTrainOpsView@@UAEPAXI@Z 00430980 f i TrainOpsView.obj
 0001:0002f9a0       ??1CTrainOpsView@@UAE@XZ   004309a0 f   TrainOpsView.obj
 0001:0002f9b0       ?PreCreateWindow@CTrainOpsView@@UAEHAAUtagCREATESTRUCTA@@@Z 004309b0 f   TrainOpsView.obj
 0001:0002f9c0       ?OnDraw@CTrainOpsView@@UAEXPAVCDC@@@Z 004309c0 f   TrainOpsView.obj
 0001:0002f9d0       ?OnPreparePrinting@CTrainOpsView@@MAEHPAUCPrintInfo@@@Z 004309d0 f   TrainOpsView.obj
 0001:0002f9e0       ?OnBeginPrinting@CTrainOpsView@@MAEXPAVCDC@@PAUCPrintInfo@@@Z 004309e0 f   TrainOpsView.obj
 0001:0002f9f0       ?OnEndPrinting@CTrainOpsView@@MAEXPAVCDC@@PAUCPrintInfo@@@Z 004309f0 f   TrainOpsView.obj
 0001:0002fa00       ?OnNcPaint@CTrainOpsView@@IAEXXZ 00430a00 f   TrainOpsView.obj
 0001:0002faf0       ?OnInitialUpdate@CTrainOpsView@@UAEXXZ 00430af0 f   TrainOpsView.obj
 0001:0002fb00       ??0CTrainsDialog@@QAE@PAVCWnd@@@Z 00430b00 f   TrainsDialog.obj
 0001:0002fbb0       ??_ECTrainsDialog@@UAEPAXI@Z 00430bb0 f i TrainsDialog.obj
 0001:0002fbb0       ??_GCTrainsDialog@@UAEPAXI@Z 00430bb0 f i TrainsDialog.obj
 0001:0002fbd0       ?DoDataExchange@CTrainsDialog@@MAEXPAVCDataExchange@@@Z 00430bd0 f   TrainsDialog.obj
 0001:0002fc30       ?_GetBaseMessageMap@CTrainsDialog@@KGPBUAFX_MSGMAP@@XZ 00430c30 f   TrainsDialog.obj
 0001:0002fc40       ?GetMessageMap@CTrainsDialog@@MBEPBUAFX_MSGMAP@@XZ 00430c40 f   TrainsDialog.obj
 0001:0002fc50       ?OnInitDialog@CTrainsDialog@@MAEHXZ 00430c50 f   TrainsDialog.obj
 0001:0002fc70       ?ReadDB@CTrainsDialog@@IAEXXZ 00430c70 f   TrainsDialog.obj
 0001:0002fff0       ?OnEditTrain@CTrainsDialog@@IAEXXZ 00430ff0 f   TrainsDialog.obj
 0001:000301b0       ?OnDeleteTrain@CTrainsDialog@@IAEXXZ 004311b0 f   TrainsDialog.obj
 0001:00030390       ?OnNewTrain@CTrainsDialog@@IAEXXZ 00431390 f   TrainsDialog.obj
 0001:00030530       ?OnClickTrains@CTrainsDialog@@IAEXPAUtagNMHDR@@PAJ@Z 00431530 f   TrainsDialog.obj
 0001:00030630       ?OnDblclkTrains@CTrainsDialog@@IAEXPAUtagNMHDR@@PAJ@Z 00431630 f   TrainsDialog.obj
 0001:00030890       ?OnOK@CTrainsDialog@@MAEXXZ 00431890 f   TrainsDialog.obj
 0001:000308b0       ?GetName@COleFont@@QAE?AVCString@@XZ 004318b0 f   font.obj
 0001:00030930       ?SetName@COleFont@@QAEXPBD@Z 00431930 f   font.obj
 0001:00030950       ?GetSize@COleFont@@QAE?ATtagCY@@XZ 00431950 f   font.obj
 0001:00030980       ?SetSize@COleFont@@QAEXABTtagCY@@@Z 00431980 f   font.obj
 0001:000309a0       ?GetBold@COleFont@@QAEHXZ  004319a0 f   font.obj
 0001:000309c0       ?SetBold@COleFont@@QAEXH@Z 004319c0 f   font.obj
 0001:000309e0       ?GetItalic@COleFont@@QAEHXZ 004319e0 f   font.obj
 0001:00030a00       ?SetItalic@COleFont@@QAEXH@Z 00431a00 f   font.obj
 0001:00030a20       ?GetUnderline@COleFont@@QAEHXZ 00431a20 f   font.obj
 0001:00030a40       ?SetUnderline@COleFont@@QAEXH@Z 00431a40 f   font.obj
 0001:00030a60       ?GetStrikethrough@COleFont@@QAEHXZ 00431a60 f   font.obj
 0001:00030a80       ?SetStrikethrough@COleFont@@QAEXH@Z 00431a80 f   font.obj
 0001:00030aa0       ?GetWeight@COleFont@@QAEFXZ 00431aa0 f   font.obj
 0001:00030ac0       ?SetWeight@COleFont@@QAEXF@Z 00431ac0 f   font.obj
 0001:00030ae0       ?GetCharset@COleFont@@QAEFXZ 00431ae0 f   font.obj
 0001:00030b00       ?SetCharset@COleFont@@QAEXF@Z 00431b00 f   font.obj
 0001:00030b20       ?CreateObject@CMSChart@@SGPAVCObject@@XZ 00431b20 f   mschart.obj
 0001:00030b70       ?Create@CMSChart@@UAEHPBD0KABUtagRECT@@PAVCWnd@@IPAUCCreateContext@@@Z 00431b70 f i mschart.obj
 0001:00030ba0       ??_GCMSChart@@UAEPAXI@Z    00431ba0 f i mschart.obj
 0001:00030ba0       ??_ECMSChart@@UAEPAXI@Z    00431ba0 f i mschart.obj
 0001:00030bc0       ??1CMSChart@@UAE@XZ        00431bc0 f i mschart.obj
 0001:00030bd0       ?_GetBaseClass@CMSChart@@KGPAUCRuntimeClass@@XZ 00431bd0 f   mschart.obj
 0001:00030be0       ?GetRuntimeClass@CMSChart@@UBEPAUCRuntimeClass@@XZ 00431be0 f   mschart.obj
 0001:00030bf0       ?GetAutoIncrement@CMSChart@@QAEHXZ 00431bf0 f   mschart.obj
 0001:00030c10       ?SetAutoIncrement@CMSChart@@QAEXH@Z 00431c10 f   mschart.obj
 0001:00030c30       ?GetRandomFill@CMSChart@@QAEHXZ 00431c30 f   mschart.obj
 0001:00030c50       ?SetRandomFill@CMSChart@@QAEXH@Z 00431c50 f   mschart.obj
 0001:00030c70       ?GetChartType@CMSChart@@QAEJXZ 00431c70 f   mschart.obj
 0001:00030c90       ?SetChartType@CMSChart@@QAEXJ@Z 00431c90 f   mschart.obj
 0001:00030cb0       ?GetColumn@CMSChart@@QAEFXZ 00431cb0 f   mschart.obj
 0001:00030cd0       ?SetColumn@CMSChart@@QAEXF@Z 00431cd0 f   mschart.obj
 0001:00030cf0       ?GetColumnCount@CMSChart@@QAEFXZ 00431cf0 f   mschart.obj
 0001:00030d10       ?SetColumnCount@CMSChart@@QAEXF@Z 00431d10 f   mschart.obj
 0001:00030d30       ?GetColumnLabel@CMSChart@@QAE?AVCString@@XZ 00431d30 f   mschart.obj
 0001:00030dc0       ?SetColumnLabel@CMSChart@@QAEXPBD@Z 00431dc0 f   mschart.obj
 0001:00030de0       ?GetColumnLabelCount@CMSChart@@QAEFXZ 00431de0 f   mschart.obj
 0001:00030e00       ?SetColumnLabelCount@CMSChart@@QAEXF@Z 00431e00 f   mschart.obj
 0001:00030e20       ?GetColumnLabelIndex@CMSChart@@QAEFXZ 00431e20 f   mschart.obj
 0001:00030e40       ?SetColumnLabelIndex@CMSChart@@QAEXF@Z 00431e40 f   mschart.obj
 0001:00030e60       ?GetData@CMSChart@@QAE?AVCString@@XZ 00431e60 f   mschart.obj
 0001:00030ef0       ?SetData@CMSChart@@QAEXPBD@Z 00431ef0 f   mschart.obj
 0001:00030f10       ?GetFootnoteText@CMSChart@@QAE?AVCString@@XZ 00431f10 f   mschart.obj
 0001:00030fa0       ?SetFootnoteText@CMSChart@@QAEXPBD@Z 00431fa0 f   mschart.obj
 0001:00030fc0       ?GetRepaint@CMSChart@@QAEHXZ 00431fc0 f   mschart.obj
 0001:00030fe0       ?SetRepaint@CMSChart@@QAEXH@Z 00431fe0 f   mschart.obj
 0001:00031000       ?GetRow@CMSChart@@QAEFXZ   00432000 f   mschart.obj
 0001:00031020       ?SetRow@CMSChart@@QAEXF@Z  00432020 f   mschart.obj
 0001:00031040       ?GetRowCount@CMSChart@@QAEFXZ 00432040 f   mschart.obj
 0001:00031060       ?SetRowCount@CMSChart@@QAEXF@Z 00432060 f   mschart.obj
 0001:00031080       ?GetRowLabel@CMSChart@@QAE?AVCString@@XZ 00432080 f   mschart.obj
 0001:00031110       ?SetRowLabel@CMSChart@@QAEXPBD@Z 00432110 f   mschart.obj
 0001:00031130       ?GetRowLabelCount@CMSChart@@QAEFXZ 00432130 f   mschart.obj
 0001:00031150       ?SetRowLabelCount@CMSChart@@QAEXF@Z 00432150 f   mschart.obj
 0001:00031170       ?GetRowLabelIndex@CMSChart@@QAEFXZ 00432170 f   mschart.obj
 0001:00031190       ?SetRowLabelIndex@CMSChart@@QAEXF@Z 00432190 f   mschart.obj
 0001:000311b0       ?GetSeriesColumn@CMSChart@@QAEFXZ 004321b0 f   mschart.obj
 0001:000311d0       ?SetSeriesColumn@CMSChart@@QAEXF@Z 004321d0 f   mschart.obj
 0001:000311f0       ?GetSeriesType@CMSChart@@QAEJXZ 004321f0 f   mschart.obj
 0001:00031210       ?SetSeriesType@CMSChart@@QAEXJ@Z 00432210 f   mschart.obj
 0001:00031230       ?GetShowLegend@CMSChart@@QAEHXZ 00432230 f   mschart.obj
 0001:00031250       ?SetShowLegend@CMSChart@@QAEXH@Z 00432250 f   mschart.obj
 0001:00031270       ?GetDrawMode@CMSChart@@QAEJXZ 00432270 f   mschart.obj
 0001:00031290       ?SetDrawMode@CMSChart@@QAEXJ@Z 00432290 f   mschart.obj
 0001:000312b0       ?GetBorderStyle@CMSChart@@QAEJXZ 004322b0 f   mschart.obj
 0001:000312d0       ?SetBorderStyle@CMSChart@@QAEXJ@Z 004322d0 f   mschart.obj
 0001:00031300       ?GetEnabled@CMSChart@@QAEHXZ 00432300 f   mschart.obj
 0001:00031320       ?SetEnabled@CMSChart@@QAEXH@Z 00432320 f   mschart.obj
 0001:00031350       ?GetHWnd@CMSChart@@QAEJXZ  00432350 f   mschart.obj
 0001:00031370       ?GetTitle@CMSChart@@QAE?AVCVcTitle@@XZ 00432370 f   mschart.obj
 0001:000313b0       ?GetFootnote@CMSChart@@QAE?AVCVcFootnote@@XZ 004323b0 f   mschart.obj
 0001:000313f0       ?GetTitleText@CMSChart@@QAE?AVCString@@XZ 004323f0 f   mschart.obj
 0001:00031480       ?SetTitleText@CMSChart@@QAEXPBD@Z 00432480 f   mschart.obj
 0001:000314a0       ?GetStacking@CMSChart@@QAEHXZ 004324a0 f   mschart.obj
 0001:000314c0       ?SetStacking@CMSChart@@QAEXH@Z 004324c0 f   mschart.obj
 0001:000314e0       ?GetTextLengthType@CMSChart@@QAEJXZ 004324e0 f   mschart.obj
 0001:00031500       ?SetTextLengthType@CMSChart@@QAEXJ@Z 00432500 f   mschart.obj
 0001:00031520       ?GetAllowSelections@CMSChart@@QAEHXZ 00432520 f   mschart.obj
 0001:00031540       ?SetAllowSelections@CMSChart@@QAEXH@Z 00432540 f   mschart.obj
 0001:00031560       ?GetAllowSeriesSelection@CMSChart@@QAEHXZ 00432560 f   mschart.obj
 0001:00031580       ?SetAllowSeriesSelection@CMSChart@@QAEXH@Z 00432580 f   mschart.obj
 0001:000315a0       ?GetAllowDynamicRotation@CMSChart@@QAEHXZ 004325a0 f   mschart.obj
 0001:000315c0       ?SetAllowDynamicRotation@CMSChart@@QAEXH@Z 004325c0 f   mschart.obj
 0001:000315e0       ?GetActiveSeriesCount@CMSChart@@QAEFXZ 004325e0 f   mschart.obj
 0001:00031600       ?GetBackdrop@CMSChart@@QAE?AVCVcBackdrop@@XZ 00432600 f   mschart.obj
 0001:00031640       ?GetLegend@CMSChart@@QAE?AVCVcLegend@@XZ 00432640 f   mschart.obj
 0001:00031680       ?GetDataGrid@CMSChart@@QAE?AVCVcDataGrid@@XZ 00432680 f   mschart.obj
 0001:000316c0       ?GetPlot@CMSChart@@QAE?AVCVcPlot@@XZ 004326c0 f   mschart.obj
 0001:00031700       ?GetAllowDithering@CMSChart@@QAEHXZ 00432700 f   mschart.obj
 0001:00031720       ?SetAllowDithering@CMSChart@@QAEXH@Z 00432720 f   mschart.obj
 0001:00031740       ?GetDoSetCursor@CMSChart@@QAEHXZ 00432740 f   mschart.obj
 0001:00031760       ?SetDoSetCursor@CMSChart@@QAEXH@Z 00432760 f   mschart.obj
 0001:00031780       ?GetChart3d@CMSChart@@QAEHXZ 00432780 f   mschart.obj
 0001:000317a0       ?GetChartData@CMSChart@@QAE?AUtagVARIANT@@XZ 004327a0 f   mschart.obj
 0001:000317e0       ?SetChartData@CMSChart@@QAEXABUtagVARIANT@@@Z 004327e0 f   mschart.obj
 0001:00031800       ?GetMousePointer@CMSChart@@QAEJXZ 00432800 f   mschart.obj
 0001:00031820       ?SetMousePointer@CMSChart@@QAEXJ@Z 00432820 f   mschart.obj
 0001:00031840       ?Refresh@CMSChart@@QAEXXZ  00432840 f   mschart.obj
 0001:00031860       ?EditPaste@CMSChart@@QAEXXZ 00432860 f   mschart.obj
 0001:00031880       ?EditCopy@CMSChart@@QAEXXZ 00432880 f   mschart.obj
 0001:000318a0       ?Layout@CMSChart@@QAEXXZ   004328a0 f   mschart.obj
 0001:000318c0       ?ToDefaults@CMSChart@@QAEXXZ 004328c0 f   mschart.obj
 0001:000318e0       ?SelectPart@CMSChart@@QAEXFFFFF@Z 004328e0 f   mschart.obj
 0001:00031920       ?GetSelectedPart@CMSChart@@QAEXPAF0000@Z 00432920 f   mschart.obj
 0001:00031960       ?TwipsToChartPart@CMSChart@@QAEXJJPAF0000@Z 00432960 f   mschart.obj
 0001:000319a0       ?GetOLEDragMode@CMSChart@@QAEJXZ 004329a0 f   mschart.obj
 0001:000319c0       ?SetOLEDragMode@CMSChart@@QAEXJ@Z 004329c0 f   mschart.obj
 0001:000319f0       ?GetOLEDropMode@CMSChart@@QAEJXZ 004329f0 f   mschart.obj
 0001:00031a10       ?SetOLEDropMode@CMSChart@@QAEXJ@Z 00432a10 f   mschart.obj
 0001:00031a40       ?OLEDrag@CMSChart@@QAEXXZ  00432a40 f   mschart.obj
 0001:00031a60       ?GetDataSource@CMSChart@@QAEPAUIUnknown@@XZ 00432a60 f   mschart.obj
 0001:00031a80       ?SetRefDataSource@CMSChart@@QAEXPAUIUnknown@@@Z 00432a80 f   mschart.obj
 0001:00031aa0       ?GetDataMember@CMSChart@@QAE?AVCString@@XZ 00432aa0 f   mschart.obj
 0001:00031b30       ?SetDataMember@CMSChart@@QAEXPBD@Z 00432b30 f   mschart.obj
 0001:00031b50       ?GetPen@CVcAxis@@QAE?AVCVcPen@@XZ 00432b50 f   vcaxis.obj
 0001:00031b90       ?GetLabelLevelCount@CVcAxis@@QAEFXZ 00432b90 f   vcaxis.obj
 0001:00031bb0       ?GetCategoryScale@CVcAxis@@QAE?AVCVcCategoryScale@@XZ 00432bb0 f   vcaxis.obj
 0001:00031bf0       ?GetAxisGrid@CVcAxis@@QAE?AVCVcAxisGrid@@XZ 00432bf0 f   vcaxis.obj
 0001:00031c30       ?GetIntersection@CVcAxis@@QAE?AVCVcIntersection@@XZ 00432c30 f   vcaxis.obj
 0001:00031c70       ?GetTick@CVcAxis@@QAE?AVCVcTick@@XZ 00432c70 f   vcaxis.obj
 0001:00031cb0       ?GetAxisScale@CVcAxis@@QAE?AVCVcAxisScale@@XZ 00432cb0 f   vcaxis.obj
 0001:00031cf0       ?GetValueScale@CVcAxis@@QAE?AVCVcValueScale@@XZ 00432cf0 f   vcaxis.obj
 0001:00031d30       ?GetAxisTitle@CVcAxis@@QAE?AVCVcAxisTitle@@XZ 00432d30 f   vcaxis.obj
 0001:00031d70       ?GetLabels@CVcAxis@@QAE?AVCVcLabels@@XZ 00432d70 f   vcaxis.obj
 0001:00031db0       ?GetMinorPen@CVcAxisGrid@@QAE?AVCVcPen@@XZ 00432db0 f   vcaxisgrid.obj
 0001:00031df0       ?GetMajorPen@CVcAxisGrid@@QAE?AVCVcPen@@XZ 00432df0 f   vcaxisgrid.obj
 0001:00031e30       ?GetHide@CVcAxisScale@@QAEHXZ 00432e30 f   vcaxisscale.obj
 0001:00031e50       ?SetHide@CVcAxisScale@@QAEXH@Z 00432e50 f   vcaxisscale.obj
 0001:00031e70       ?GetType@CVcAxisScale@@QAEJXZ 00432e70 f   vcaxisscale.obj
 0001:00031e90       ?SetType@CVcAxisScale@@QAEXJ@Z 00432e90 f   vcaxisscale.obj
 0001:00031eb0       ?GetLogBase@CVcAxisScale@@QAEFXZ 00432eb0 f   vcaxisscale.obj
 0001:00031ed0       ?SetLogBase@CVcAxisScale@@QAEXF@Z 00432ed0 f   vcaxisscale.obj
 0001:00031ef0       ?GetPercentBasis@CVcAxisScale@@QAEJXZ 00432ef0 f   vcaxisscale.obj
 0001:00031f10       ?SetPercentBasis@CVcAxisScale@@QAEXJ@Z 00432f10 f   vcaxisscale.obj
 0001:00031f30       ?GetText@CVcAxisTitle@@QAE?AVCString@@XZ 00432f30 f   vcaxistitle.obj
 0001:00031fc0       ?SetText@CVcAxisTitle@@QAEXPBD@Z 00432fc0 f   vcaxistitle.obj
 0001:00031fe0       ?GetBackdrop@CVcAxisTitle@@QAE?AVCVcBackdrop@@XZ 00432fe0 f   vcaxistitle.obj
 0001:00032020       ?GetVtFont@CVcAxisTitle@@QAE?AVCVcFont@@XZ 00433020 f   vcaxistitle.obj
 0001:00032060       ?GetVisible@CVcAxisTitle@@QAEHXZ 00433060 f   vcaxistitle.obj
 0001:00032080       ?SetVisible@CVcAxisTitle@@QAEXH@Z 00433080 f   vcaxistitle.obj
 0001:000320a0       ?GetTextLayout@CVcAxisTitle@@QAE?AVCVcTextLayout@@XZ 004330a0 f   vcaxistitle.obj
 0001:000320e0       ?GetTextLength@CVcAxisTitle@@QAEFXZ 004330e0 f   vcaxistitle.obj
 0001:00032100       ?SetRefFont@CVcAxisTitle@@QAEXPAUIDispatch@@@Z 00433100 f   vcaxistitle.obj
 0001:00032120       ?GetFont@CVcAxisTitle@@QAE?AVCOleFont@@XZ 00433120 f   vcaxistitle.obj
 0001:00032160       ?GetShadow@CVcBackdrop@@QAE?AVCVcShadow@@XZ 00433160 f   vcbackdrop.obj
 0001:000321a0       ?GetFrame@CVcBackdrop@@QAE?AVCVcFrame@@XZ 004331a0 f   vcbackdrop.obj
 0001:000321e0       ?GetFill@CVcBackdrop@@QAE?AVCVcFill@@XZ 004331e0 f   vcbackdrop.obj
 0001:00032220       ?GetStyle@CVcBrush@@QAEJXZ 00433220 f   vcbrush.obj
 0001:00032240       ?SetStyle@CVcBrush@@QAEXJ@Z 00433240 f   vcbrush.obj
 0001:00032260       ?GetFillColor@CVcBrush@@QAE?AVCVcColor@@XZ 00433260 f   vcbrush.obj
 0001:000322a0       ?GetPatternColor@CVcBrush@@QAE?AVCVcColor@@XZ 004332a0 f   vcbrush.obj
 0001:000322e0       ?GetIndex@CVcBrush@@QAEJXZ 004332e0 f   vcbrush.obj
 0001:00032300       ?SetIndex@CVcBrush@@QAEXJ@Z 00433300 f   vcbrush.obj
 0001:00032320       ?GetAuto@CVcCategoryScale@@QAEHXZ 00433320 f   vccategoryscale.obj
 0001:00032340       ?SetAuto@CVcCategoryScale@@QAEXH@Z 00433340 f   vccategoryscale.obj
 0001:00032360       ?GetDivisionsPerLabel@CVcCategoryScale@@QAEFXZ 00433360 f   vccategoryscale.obj
 0001:00032380       ?SetDivisionsPerLabel@CVcCategoryScale@@QAEXF@Z 00433380 f   vccategoryscale.obj
 0001:000323a0       ?GetDivisionsPerTick@CVcCategoryScale@@QAEFXZ 004333a0 f   vccategoryscale.obj
 0001:000323c0       ?SetDivisionsPerTick@CVcCategoryScale@@QAEXF@Z 004333c0 f   vccategoryscale.obj
 0001:000323e0       ?GetLabelTick@CVcCategoryScale@@QAEHXZ 004333e0 f   vccategoryscale.obj
 0001:00032400       ?SetLabelTick@CVcCategoryScale@@QAEXH@Z 00433400 f   vccategoryscale.obj
 0001:00032420       ?GetRed@CVcColor@@QAEFXZ   00433420 f   vccolor.obj
 0001:00032440       ?SetRed@CVcColor@@QAEXF@Z  00433440 f   vccolor.obj
 0001:00032460       ?GetGreen@CVcColor@@QAEFXZ 00433460 f   vccolor.obj
 0001:00032480       ?SetGreen@CVcColor@@QAEXF@Z 00433480 f   vccolor.obj
 0001:000324a0       ?GetBlue@CVcColor@@QAEFXZ  004334a0 f   vccolor.obj
 0001:000324c0       ?SetBlue@CVcColor@@QAEXF@Z 004334c0 f   vccolor.obj
 0001:000324e0       ?GetAutomatic@CVcColor@@QAEHXZ 004334e0 f   vccolor.obj
 0001:00032500       ?SetAutomatic@CVcColor@@QAEXH@Z 00433500 f   vccolor.obj
 0001:00032520       ?Set@CVcColor@@QAEXFFF@Z   00433520 f   vccolor.obj
 0001:00032550       ?GetX@CVcCoor@@QAEMXZ      00433550 f   vccoor.obj
 0001:00032570       ?SetX@CVcCoor@@QAEXM@Z     00433570 f   vccoor.obj
 0001:000325a0       ?GetY@CVcCoor@@QAEMXZ      004335a0 f   vccoor.obj
 0001:000325c0       ?SetY@CVcCoor@@QAEXM@Z     004335c0 f   vccoor.obj
 0001:000325f0       ?Set@CVcCoor@@QAEXMM@Z     004335f0 f   vccoor.obj
 0001:00032620       ?GetColumnCount@CVcDataGrid@@QAEFXZ 00433620 f   vcdatagrid.obj
 0001:00032640       ?SetColumnCount@CVcDataGrid@@QAEXF@Z 00433640 f   vcdatagrid.obj
 0001:00032660       ?GetColumnLabelCount@CVcDataGrid@@QAEFXZ 00433660 f   vcdatagrid.obj
 0001:00032680       ?SetColumnLabelCount@CVcDataGrid@@QAEXF@Z 00433680 f   vcdatagrid.obj
 0001:000326a0       ?GetRowLabelCount@CVcDataGrid@@QAEFXZ 004336a0 f   vcdatagrid.obj
 0001:000326c0       ?SetRowLabelCount@CVcDataGrid@@QAEXF@Z 004336c0 f   vcdatagrid.obj
 0001:000326e0       ?GetRowCount@CVcDataGrid@@QAEFXZ 004336e0 f   vcdatagrid.obj
 0001:00032700       ?SetRowCount@CVcDataGrid@@QAEXF@Z 00433700 f   vcdatagrid.obj
 0001:00032720       ?DeleteColumns@CVcDataGrid@@QAEXFF@Z 00433720 f   vcdatagrid.obj
 0001:00032750       ?InsertColumns@CVcDataGrid@@QAEXFF@Z 00433750 f   vcdatagrid.obj
 0001:00032780       ?DeleteColumnLabels@CVcDataGrid@@QAEXFF@Z 00433780 f   vcdatagrid.obj
 0001:000327b0       ?InsertColumnLabels@CVcDataGrid@@QAEXFF@Z 004337b0 f   vcdatagrid.obj
 0001:000327e0       ?DeleteRows@CVcDataGrid@@QAEXFF@Z 004337e0 f   vcdatagrid.obj
 0001:00032810       ?InsertRows@CVcDataGrid@@QAEXFF@Z 00433810 f   vcdatagrid.obj
 0001:00032840       ?DeleteRowLabels@CVcDataGrid@@QAEXFF@Z 00433840 f   vcdatagrid.obj
 0001:00032870       ?InsertRowLabels@CVcDataGrid@@QAEXFF@Z 00433870 f   vcdatagrid.obj
 0001:000328a0       ?RandomDataFill@CVcDataGrid@@QAEXXZ 004338a0 f   vcdatagrid.obj
 0001:000328c0       ?SetSize@CVcDataGrid@@QAEXFFFF@Z 004338c0 f   vcdatagrid.obj
 0001:00032900       ?InitializeLabels@CVcDataGrid@@QAEXXZ 00433900 f   vcdatagrid.obj
 0001:00032920       ?RandomFillColumns@CVcDataGrid@@QAEXFF@Z 00433920 f   vcdatagrid.obj
 0001:00032950       ?RandomFillRows@CVcDataGrid@@QAEXFF@Z 00433950 f   vcdatagrid.obj
 0001:00032980       ?MoveData@CVcDataGrid@@QAEXFFFFFF@Z 00433980 f   vcdatagrid.obj
 0001:000329c0       ?GetData@CVcDataGrid@@QAEXFFPANPAF@Z 004339c0 f   vcdatagrid.obj
 0001:000329f0       ?SetData@CVcDataGrid@@QAEXFFNF@Z 004339f0 f   vcdatagrid.obj
 0001:00032a30       ?GetColumnLabel@CVcDataGrid@@QAE?AVCString@@FF@Z 00433a30 f   vcdatagrid.obj
 0001:00032ad0       ?SetColumnLabel@CVcDataGrid@@QAEXFFPBD@Z 00433ad0 f   vcdatagrid.obj
 0001:00032b00       ?GetCompositeColumnLabel@CVcDataGrid@@QAE?AVCString@@F@Z 00433b00 f   vcdatagrid.obj
 0001:00032b90       ?GetCompositeRowLabel@CVcDataGrid@@QAE?AVCString@@F@Z 00433b90 f   vcdatagrid.obj
 0001:00032c20       ?GetRowLabel@CVcDataGrid@@QAE?AVCString@@FF@Z 00433c20 f   vcdatagrid.obj
 0001:00032cc0       ?SetRowLabel@CVcDataGrid@@QAEXFFPBD@Z 00433cc0 f   vcdatagrid.obj
 0001:00032cf0       ?GetDataPointLabel@CVcDataPoint@@QAE?AVCVcDataPointLabel@@XZ 00433cf0 f   vcdatapoint.obj
 0001:00032d30       ?GetBrush@CVcDataPoint@@QAE?AVCVcBrush@@XZ 00433d30 f   vcdatapoint.obj
 0001:00032d70       ?GetEdgePen@CVcDataPoint@@QAE?AVCVcPen@@XZ 00433d70 f   vcdatapoint.obj
 0001:00032db0       ?GetMarker@CVcDataPoint@@QAE?AVCVcMarker@@XZ 00433db0 f   vcdatapoint.obj
 0001:00032df0       ?GetOffset@CVcDataPoint@@QAEMXZ 00433df0 f   vcdatapoint.obj
 0001:00032e10       ?SetOffset@CVcDataPoint@@QAEXM@Z 00433e10 f   vcdatapoint.obj
 0001:00032e40       ?ResetCustom@CVcDataPoint@@QAEXXZ 00433e40 f   vcdatapoint.obj
 0001:00032e60       ?Select@CVcDataPoint@@QAEXXZ 00433e60 f   vcdatapoint.obj
 0001:00032e80       ?GetText@CVcDataPointLabel@@QAE?AVCString@@XZ 00433e80 f   vcdatapointlabel.obj
 0001:00032f10       ?SetText@CVcDataPointLabel@@QAEXPBD@Z 00433f10 f   vcdatapointlabel.obj
 0001:00032f30       ?GetBackdrop@CVcDataPointLabel@@QAE?AVCVcBackdrop@@XZ 00433f30 f   vcdatapointlabel.obj
 0001:00032f70       ?GetVtFont@CVcDataPointLabel@@QAE?AVCVcFont@@XZ 00433f70 f   vcdatapointlabel.obj
 0001:00032fb0       ?GetOffset@CVcDataPointLabel@@QAE?AVCVcLCoor@@XZ 00433fb0 f   vcdatapointlabel.obj
 0001:00032ff0       ?GetTextLayout@CVcDataPointLabel@@QAE?AVCVcTextLayout@@XZ 00433ff0 f   vcdatapointlabel.obj
 0001:00033030       ?GetLocationType@CVcDataPointLabel@@QAEJXZ 00434030 f   vcdatapointlabel.obj
 0001:00033050       ?SetLocationType@CVcDataPointLabel@@QAEXJ@Z 00434050 f   vcdatapointlabel.obj
 0001:00033070       ?GetCustom@CVcDataPointLabel@@QAEHXZ 00434070 f   vcdatapointlabel.obj
 0001:00033090       ?SetCustom@CVcDataPointLabel@@QAEXH@Z 00434090 f   vcdatapointlabel.obj
 0001:000330b0       ?GetComponent@CVcDataPointLabel@@QAEFXZ 004340b0 f   vcdatapointlabel.obj
 0001:000330d0       ?SetComponent@CVcDataPointLabel@@QAEXF@Z 004340d0 f   vcdatapointlabel.obj
 0001:000330f0       ?GetLineStyle@CVcDataPointLabel@@QAEJXZ 004340f0 f   vcdatapointlabel.obj
 0001:00033110       ?SetLineStyle@CVcDataPointLabel@@QAEXJ@Z 00434110 f   vcdatapointlabel.obj
 0001:00033130       ?GetValueFormat@CVcDataPointLabel@@QAE?AVCString@@XZ 00434130 f   vcdatapointlabel.obj
 0001:000331c0       ?SetValueFormat@CVcDataPointLabel@@QAEXPBD@Z 004341c0 f   vcdatapointlabel.obj
 0001:000331e0       ?GetPercentFormat@CVcDataPointLabel@@QAE?AVCString@@XZ 004341e0 f   vcdatapointlabel.obj
 0001:00033270       ?SetPercentFormat@CVcDataPointLabel@@QAEXPBD@Z 00434270 f   vcdatapointlabel.obj
 0001:00033290       ?GetTextLength@CVcDataPointLabel@@QAEFXZ 00434290 f   vcdatapointlabel.obj
 0001:000332b0       ?SetRefFont@CVcDataPointLabel@@QAEXPAUIDispatch@@@Z 004342b0 f   vcdatapointlabel.obj
 0001:000332d0       ?GetFont@CVcDataPointLabel@@QAE?AVCOleFont@@XZ 004342d0 f   vcdatapointlabel.obj
 0001:00033310       ?ResetCustomLabel@CVcDataPointLabel@@QAEXXZ 00434310 f   vcdatapointlabel.obj
 0001:00033330       ?Select@CVcDataPointLabel@@QAEXXZ 00434330 f   vcdatapointlabel.obj
 0001:00033350       ?GetCount@CVcDataPoints@@QAEJXZ 00434350 f   vcdatapoints.obj
 0001:00033370       ?GetItem@CVcDataPoints@@QAE?AVCVcDataPoint@@F@Z 00434370 f   vcdatapoints.obj
 0001:000333c0       ?GetStyle@CVcFill@@QAEJXZ  004343c0 f   vcfill.obj
 0001:000333e0       ?SetStyle@CVcFill@@QAEXJ@Z 004343e0 f   vcfill.obj
 0001:00033400       ?GetBrush@CVcFill@@QAE?AVCVcBrush@@XZ 00434400 f   vcfill.obj
 0001:00033440       ?GetName@CVcFont@@QAE?AVCString@@XZ 00434440 f   vcfont.obj
 0001:000334d0       ?SetName@CVcFont@@QAEXPBD@Z 004344d0 f   vcfont.obj
 0001:000334f0       ?GetSize@CVcFont@@QAEMXZ   004344f0 f   vcfont.obj
 0001:00033510       ?SetSize@CVcFont@@QAEXM@Z  00434510 f   vcfont.obj
 0001:00033540       ?GetStyle@CVcFont@@QAEFXZ  00434540 f   vcfont.obj
 0001:00033560       ?SetStyle@CVcFont@@QAEXF@Z 00434560 f   vcfont.obj
 0001:00033580       ?GetEffect@CVcFont@@QAEFXZ 00434580 f   vcfont.obj
 0001:000335a0       ?SetEffect@CVcFont@@QAEXF@Z 004345a0 f   vcfont.obj
 0001:000335c0       ?GetVtColor@CVcFont@@QAE?AVCVcColor@@XZ 004345c0 f   vcfont.obj
 0001:00033600       ?GetTextLayout@CVcFootnote@@QAE?AVCVcTextLayout@@XZ 00434600 f   vcfootnote.obj
 0001:00033640       ?GetLocation@CVcFootnote@@QAE?AVCVcLocation@@XZ 00434640 f   vcfootnote.obj
 0001:00033680       ?GetBackdrop@CVcFootnote@@QAE?AVCVcBackdrop@@XZ 00434680 f   vcfootnote.obj
 0001:000336c0       ?GetVtFont@CVcFootnote@@QAE?AVCVcFont@@XZ 004346c0 f   vcfootnote.obj
 0001:00033700       ?GetText@CVcFootnote@@QAE?AVCString@@XZ 00434700 f   vcfootnote.obj
 0001:00033790       ?SetText@CVcFootnote@@QAEXPBD@Z 00434790 f   vcfootnote.obj
 0001:000337b0       ?GetTextLength@CVcFootnote@@QAEFXZ 004347b0 f   vcfootnote.obj
 0001:000337d0       ?SetRefFont@CVcFootnote@@QAEXPAUIDispatch@@@Z 004347d0 f   vcfootnote.obj
 0001:000337f0       ?GetFont@CVcFootnote@@QAE?AVCOleFont@@XZ 004347f0 f   vcfootnote.obj
 0001:00033830       ?Select@CVcFootnote@@QAEXXZ 00434830 f   vcfootnote.obj
 0001:00033850       ?GetStyle@CVcFrame@@QAEJXZ 00434850 f   vcframe.obj
 0001:00033870       ?SetStyle@CVcFrame@@QAEXJ@Z 00434870 f   vcframe.obj
 0001:00033890       ?GetFrameColor@CVcFrame@@QAE?AVCVcColor@@XZ 00434890 f   vcframe.obj
 0001:000338d0       ?GetSpaceColor@CVcFrame@@QAE?AVCVcColor@@XZ 004348d0 f   vcframe.obj
 0001:00033910       ?GetWidth@CVcFrame@@QAEMXZ 00434910 f   vcframe.obj
 0001:00033930       ?SetWidth@CVcFrame@@QAEXM@Z 00434930 f   vcframe.obj
 0001:00033960       ?GetAuto@CVcIntersection@@QAEHXZ 00434960 f   vcintersection.obj
 0001:00033980       ?SetAuto@CVcIntersection@@QAEXH@Z 00434980 f   vcintersection.obj
 0001:000339a0       ?GetPoint@CVcIntersection@@QAENXZ 004349a0 f   vcintersection.obj
 0001:000339c0       ?SetPoint@CVcIntersection@@QAEXN@Z 004349c0 f   vcintersection.obj
 0001:000339f0       ?GetAxisID@CVcIntersection@@QAEJXZ 004349f0 f   vcintersection.obj
 0001:00033a10       ?GetIndex@CVcIntersection@@QAEFXZ 00434a10 f   vcintersection.obj
 0001:00033a30       ?GetLabelsInsidePlot@CVcIntersection@@QAEHXZ 00434a30 f   vcintersection.obj
 0001:00033a50       ?SetLabelsInsidePlot@CVcIntersection@@QAEXH@Z 00434a50 f   vcintersection.obj
 0001:00033a70       ?GetBackdrop@CVcLabel@@QAE?AVCVcBackdrop@@XZ 00434a70 f   vclabel.obj
 0001:00033ab0       ?GetFormat@CVcLabel@@QAE?AVCString@@XZ 00434ab0 f   vclabel.obj
 0001:00033b40       ?SetFormat@CVcLabel@@QAEXPBD@Z 00434b40 f   vclabel.obj
 0001:00033b60       ?GetVtFont@CVcLabel@@QAE?AVCVcFont@@XZ 00434b60 f   vclabel.obj
 0001:00033ba0       ?GetAuto@CVcLabel@@QAEHXZ  00434ba0 f   vclabel.obj
 0001:00033bc0       ?SetAuto@CVcLabel@@QAEXH@Z 00434bc0 f   vclabel.obj
 0001:00033be0       ?GetStanding@CVcLabel@@QAEHXZ 00434be0 f   vclabel.obj
 0001:00033c00       ?SetStanding@CVcLabel@@QAEXH@Z 00434c00 f   vclabel.obj
 0001:00033c20       ?GetTextLayout@CVcLabel@@QAE?AVCVcTextLayout@@XZ 00434c20 f   vclabel.obj
 0001:00033c60       ?GetFormatLength@CVcLabel@@QAEFXZ 00434c60 f   vclabel.obj
 0001:00033c80       ?SetRefFont@CVcLabel@@QAEXPAUIDispatch@@@Z 00434c80 f   vclabel.obj
 0001:00033ca0       ?GetFont@CVcLabel@@QAE?AVCOleFont@@XZ 00434ca0 f   vclabel.obj
 0001:00033ce0       ?GetCount@CVcLabels@@QAEJXZ 00434ce0 f   vclabels.obj
 0001:00033d00       ?GetItem@CVcLabels@@QAE?AVCVcLabel@@F@Z 00434d00 f   vclabels.obj
 0001:00033d50       ?GetX@CVcLCoor@@QAEJXZ     00434d50 f   vclcoor.obj
 0001:00033d70       ?SetX@CVcLCoor@@QAEXJ@Z    00434d70 f   vclcoor.obj
 0001:00033d90       ?GetY@CVcLCoor@@QAEJXZ     00434d90 f   vclcoor.obj
 0001:00033db0       ?SetY@CVcLCoor@@QAEXJ@Z    00434db0 f   vclcoor.obj
 0001:00033dd0       ?Set@CVcLCoor@@QAEXJJ@Z    00434dd0 f   vclcoor.obj
 0001:00033e00       ?GetLocation@CVcLegend@@QAE?AVCVcLocation@@XZ 00434e00 f   vclegend.obj
 0001:00033e40       ?GetBackdrop@CVcLegend@@QAE?AVCVcBackdrop@@XZ 00434e40 f   vclegend.obj
 0001:00033e80       ?GetVtFont@CVcLegend@@QAE?AVCVcFont@@XZ 00434e80 f   vclegend.obj
 0001:00033ec0       ?GetTextLayout@CVcLegend@@QAE?AVCVcTextLayout@@XZ 00434ec0 f   vclegend.obj
 0001:00033f00       ?SetRefFont@CVcLegend@@QAEXPAUIDispatch@@@Z 00434f00 f   vclegend.obj
 0001:00033f20       ?GetFont@CVcLegend@@QAE?AVCOleFont@@XZ 00434f20 f   vclegend.obj
 0001:00033f60       ?Select@CVcLegend@@QAEXXZ  00434f60 f   vclegend.obj
 0001:00033f80       ?GetAmbientIntensity@CVcLight@@QAEMXZ 00434f80 f   vclight.obj
 0001:00033fa0       ?SetAmbientIntensity@CVcLight@@QAEXM@Z 00434fa0 f   vclight.obj
 0001:00033fd0       ?GetEdgeIntensity@CVcLight@@QAEMXZ 00434fd0 f   vclight.obj
 0001:00033ff0       ?SetEdgeIntensity@CVcLight@@QAEXM@Z 00434ff0 f   vclight.obj
 0001:00034020       ?GetEdgeVisible@CVcLight@@QAEHXZ 00435020 f   vclight.obj
 0001:00034040       ?SetEdgeVisible@CVcLight@@QAEXH@Z 00435040 f   vclight.obj
 0001:00034060       ?GetLightSources@CVcLight@@QAE?AVCVcLightSources@@XZ 00435060 f   vclight.obj
 0001:000340a0       ?GetIntensity@CVcLightSource@@QAEMXZ 004350a0 f   vclightsource.obj
 0001:000340c0       ?SetIntensity@CVcLightSource@@QAEXM@Z 004350c0 f   vclightsource.obj
 0001:000340f0       ?GetX@CVcLightSource@@QAEMXZ 004350f0 f   vclightsource.obj
 0001:00034110       ?SetX@CVcLightSource@@QAEXM@Z 00435110 f   vclightsource.obj
 0001:00034140       ?GetY@CVcLightSource@@QAEMXZ 00435140 f   vclightsource.obj
 0001:00034160       ?SetY@CVcLightSource@@QAEXM@Z 00435160 f   vclightsource.obj
 0001:00034190       ?GetZ@CVcLightSource@@QAEMXZ 00435190 f   vclightsource.obj
 0001:000341b0       ?SetZ@CVcLightSource@@QAEXM@Z 004351b0 f   vclightsource.obj
 0001:000341e0       ?Set@CVcLightSource@@QAEXMMMM@Z 004351e0 f   vclightsource.obj
 0001:00034230       ?GetCount@CVcLightSources@@QAEJXZ 00435230 f   vclightsources.obj
 0001:00034250       ?Add@CVcLightSources@@QAE?AVCVcLightSource@@MMMM@Z 00435250 f   vclightsources.obj
 0001:000342c0       ?Remove@CVcLightSources@@QAEXF@Z 004352c0 f   vclightsources.obj
 0001:000342e0       ?GetItem@CVcLightSources@@QAE?AVCVcLightSource@@F@Z 004352e0 f   vclightsources.obj
 0001:00034330       ?GetRect@CVcLocation@@QAE?AVCVcRect@@XZ 00435330 f   vclocation.obj
 0001:00034370       ?GetVisible@CVcLocation@@QAEHXZ 00435370 f   vclocation.obj
 0001:00034390       ?SetVisible@CVcLocation@@QAEXH@Z 00435390 f   vclocation.obj
 0001:000343b0       ?GetLocationType@CVcLocation@@QAEJXZ 004353b0 f   vclocation.obj
 0001:000343d0       ?SetLocationType@CVcLocation@@QAEXJ@Z 004353d0 f   vclocation.obj
 0001:000343f0       ?GetVisible@CVcMarker@@QAEHXZ 004353f0 f   vcmarker.obj
 0001:00034410       ?SetVisible@CVcMarker@@QAEXH@Z 00435410 f   vcmarker.obj
 0001:00034430       ?GetStyle@CVcMarker@@QAEJXZ 00435430 f   vcmarker.obj
 0001:00034450       ?SetStyle@CVcMarker@@QAEXJ@Z 00435450 f   vcmarker.obj
 0001:00034470       ?GetPen@CVcMarker@@QAE?AVCVcPen@@XZ 00435470 f   vcmarker.obj
 0001:000344b0       ?GetSize@CVcMarker@@QAEMXZ 004354b0 f   vcmarker.obj
 0001:000344d0       ?SetSize@CVcMarker@@QAEXM@Z 004354d0 f   vcmarker.obj
 0001:00034500       ?GetFillColor@CVcMarker@@QAE?AVCVcColor@@XZ 00435500 f   vcmarker.obj
 0001:00034540       ?GetStyle@CVcPen@@QAEJXZ   00435540 f   vcpen.obj
 0001:00034560       ?SetStyle@CVcPen@@QAEXJ@Z  00435560 f   vcpen.obj
 0001:00034580       ?GetJoin@CVcPen@@QAEJXZ    00435580 f   vcpen.obj
 0001:000345a0       ?SetJoin@CVcPen@@QAEXJ@Z   004355a0 f   vcpen.obj
 0001:000345c0       ?GetCap@CVcPen@@QAEJXZ     004355c0 f   vcpen.obj
 0001:000345e0       ?SetCap@CVcPen@@QAEXJ@Z    004355e0 f   vcpen.obj
 0001:00034600       ?GetVtColor@CVcPen@@QAE?AVCVcColor@@XZ 00435600 f   vcpen.obj
 0001:00034640       ?GetWidth@CVcPen@@QAEMXZ   00435640 f   vcpen.obj
 0001:00034660       ?SetWidth@CVcPen@@QAEXM@Z  00435660 f   vcpen.obj
 0001:00034690       ?GetLimit@CVcPen@@QAEMXZ   00435690 f   vcpen.obj
 0001:000346b0       ?SetLimit@CVcPen@@QAEXM@Z  004356b0 f   vcpen.obj
 0001:000346e0       ?GetAngleUnit@CVcPlot@@QAEJXZ 004356e0 f   vcplot.obj
 0001:00034700       ?SetAngleUnit@CVcPlot@@QAEXJ@Z 00435700 f   vcplot.obj
 0001:00034720       ?GetClockwise@CVcPlot@@QAEHXZ 00435720 f   vcplot.obj
 0001:00034740       ?SetClockwise@CVcPlot@@QAEXH@Z 00435740 f   vcplot.obj
 0001:00034760       ?GetSort@CVcPlot@@QAEJXZ   00435760 f   vcplot.obj
 0001:00034780       ?SetSort@CVcPlot@@QAEXJ@Z  00435780 f   vcplot.obj
 0001:000347a0       ?GetBackdrop@CVcPlot@@QAE?AVCVcBackdrop@@XZ 004357a0 f   vcplot.obj
 0001:000347e0       ?GetStartingAngle@CVcPlot@@QAEMXZ 004357e0 f   vcplot.obj
 0001:00034800       ?SetStartingAngle@CVcPlot@@QAEXM@Z 00435800 f   vcplot.obj
 0001:00034830       ?GetSubPlotLabelPosition@CVcPlot@@QAEJXZ 00435830 f   vcplot.obj
 0001:00034850       ?SetSubPlotLabelPosition@CVcPlot@@QAEXJ@Z 00435850 f   vcplot.obj
 0001:00034870       ?GetBarGap@CVcPlot@@QAEMXZ 00435870 f   vcplot.obj
 0001:00034890       ?SetBarGap@CVcPlot@@QAEXM@Z 00435890 f   vcplot.obj
 0001:000348c0       ?GetXGap@CVcPlot@@QAEMXZ   004358c0 f   vcplot.obj
 0001:000348e0       ?SetXGap@CVcPlot@@QAEXM@Z  004358e0 f   vcplot.obj
 0001:00034910       ?GetAutoLayout@CVcPlot@@QAEHXZ 00435910 f   vcplot.obj
 0001:00034930       ?SetAutoLayout@CVcPlot@@QAEXH@Z 00435930 f   vcplot.obj
 0001:00034950       ?GetWidthToHeightRatio@CVcPlot@@QAEMXZ 00435950 f   vcplot.obj
 0001:00034970       ?SetWidthToHeightRatio@CVcPlot@@QAEXM@Z 00435970 f   vcplot.obj
 0001:000349a0       ?GetDepthToHeightRatio@CVcPlot@@QAEMXZ 004359a0 f   vcplot.obj
 0001:000349c0       ?SetDepthToHeightRatio@CVcPlot@@QAEXM@Z 004359c0 f   vcplot.obj
 0001:000349f0       ?GetLocationRect@CVcPlot@@QAE?AVCVcRect@@XZ 004359f0 f   vcplot.obj
 0001:00034a30       ?GetProjection@CVcPlot@@QAEJXZ 00435a30 f   vcplot.obj
 0001:00034a50       ?SetProjection@CVcPlot@@QAEXJ@Z 00435a50 f   vcplot.obj
 0001:00034a70       ?GetZGap@CVcPlot@@QAEMXZ   00435a70 f   vcplot.obj
 0001:00034a90       ?SetZGap@CVcPlot@@QAEXM@Z  00435a90 f   vcplot.obj
 0001:00034ac0       ?GetView3d@CVcPlot@@QAE?AVCVcView3d@@XZ 00435ac0 f   vcplot.obj
 0001:00034b00       ?GetPlotBase@CVcPlot@@QAE?AVCVcPlotBase@@XZ 00435b00 f   vcplot.obj
 0001:00034b40       ?GetWeighting@CVcPlot@@QAE?AVCVcWeighting@@XZ 00435b40 f   vcplot.obj
 0001:00034b80       ?GetWall@CVcPlot@@QAE?AVCVcWall@@XZ 00435b80 f   vcplot.obj
 0001:00034bc0       ?GetSeriesCollection@CVcPlot@@QAE?AVCVcSeriesCollection@@XZ 00435bc0 f   vcplot.obj
 0001:00034c00       ?GetDataSeriesInRow@CVcPlot@@QAEHXZ 00435c00 f   vcplot.obj
 0001:00034c20       ?SetDataSeriesInRow@CVcPlot@@QAEXH@Z 00435c20 f   vcplot.obj
 0001:00034c40       ?GetLight@CVcPlot@@QAE?AVCVcLight@@XZ 00435c40 f   vcplot.obj
 0001:00034c80       ?GetDefaultPercentBasis@CVcPlot@@QAEJXZ 00435c80 f   vcplot.obj
 0001:00034ca0       ?GetUniformAxis@CVcPlot@@QAEHXZ 00435ca0 f   vcplot.obj
 0001:00034cc0       ?SetUniformAxis@CVcPlot@@QAEXH@Z 00435cc0 f   vcplot.obj
 0001:00034ce0       ?GetAxis@CVcPlot@@QAE?AVCVcAxis@@JABUtagVARIANT@@@Z 00435ce0 f   vcplot.obj
 0001:00034d30       ?GetBaseHeight@CVcPlotBase@@QAEMXZ 00435d30 f   vcplotbase.obj
 0001:00034d50       ?SetBaseHeight@CVcPlotBase@@QAEXM@Z 00435d50 f   vcplotbase.obj
 0001:00034d80       ?GetBrush@CVcPlotBase@@QAE?AVCVcBrush@@XZ 00435d80 f   vcplotbase.obj
 0001:00034dc0       ?GetPen@CVcPlotBase@@QAE?AVCVcPen@@XZ 00435dc0 f   vcplotbase.obj
 0001:00034e00       ?GetMin@CVcRect@@QAE?AVCVcCoor@@XZ 00435e00 f   vcrect.obj
 0001:00034e40       ?GetMax@CVcRect@@QAE?AVCVcCoor@@XZ 00435e40 f   vcrect.obj
 0001:00034e80       ?GetSecondaryAxis@CVcSeries@@QAEHXZ 00435e80 f   vcseries.obj
 0001:00034ea0       ?SetSecondaryAxis@CVcSeries@@QAEXH@Z 00435ea0 f   vcseries.obj
 0001:00034ec0       ?GetSeriesType@CVcSeries@@QAEJXZ 00435ec0 f   vcseries.obj
 0001:00034ee0       ?SetSeriesType@CVcSeries@@QAEXJ@Z 00435ee0 f   vcseries.obj
 0001:00034f00       ?GetGuideLinePen@CVcSeries@@QAE?AVCVcPen@@XZ 00435f00 f   vcseries.obj
 0001:00034f40       ?GetShowLine@CVcSeries@@QAEHXZ 00435f40 f   vcseries.obj
 0001:00034f60       ?SetShowLine@CVcSeries@@QAEXH@Z 00435f60 f   vcseries.obj
 0001:00034f80       ?GetPen@CVcSeries@@QAE?AVCVcPen@@XZ 00435f80 f   vcseries.obj
 0001:00034fc0       ?GetPosition@CVcSeries@@QAE?AVCVcSeriesPosition@@XZ 00435fc0 f   vcseries.obj
 0001:00035000       ?GetSeriesMarker@CVcSeries@@QAE?AVCVcSeriesMarker@@XZ 00436000 f   vcseries.obj
 0001:00035040       ?GetStatLine@CVcSeries@@QAE?AVCVcStatLine@@XZ 00436040 f   vcseries.obj
 0001:00035080       ?GetDataPoints@CVcSeries@@QAE?AVCVcDataPoints@@XZ 00436080 f   vcseries.obj
 0001:000350c0       ?GetLegendText@CVcSeries@@QAE?AVCString@@XZ 004360c0 f   vcseries.obj
 0001:00035150       ?SetLegendText@CVcSeries@@QAEXPBD@Z 00436150 f   vcseries.obj
 0001:00035170       ?Select@CVcSeries@@QAEXXZ  00436170 f   vcseries.obj
 0001:00035190       ?GetShowGuideLine@CVcSeries@@QAEHJ@Z 00436190 f   vcseries.obj
 0001:000351c0       ?SetShowGuideLine@CVcSeries@@QAEXJH@Z 004361c0 f   vcseries.obj
 0001:000351f0       ?GetTypeByChartType@CVcSeries@@QAEJJ@Z 004361f0 f   vcseries.obj
 0001:00035220       ?Count@CVcSeriesCollection@@QAEJXZ 00436220 f   vcseriescollection.obj
 0001:00035240       ?GetItem@CVcSeriesCollection@@QAE?AVCVcSeries@@F@Z 00436240 f   vcseriescollection.obj
 0001:00035290       ?GetAuto@CVcSeriesMarker@@QAEHXZ 00436290 f   vcseriesmarker.obj
 0001:000352b0       ?SetAuto@CVcSeriesMarker@@QAEXH@Z 004362b0 f   vcseriesmarker.obj
 0001:000352d0       ?GetShow@CVcSeriesMarker@@QAEHXZ 004362d0 f   vcseriesmarker.obj
 0001:000352f0       ?SetShow@CVcSeriesMarker@@QAEXH@Z 004362f0 f   vcseriesmarker.obj
 0001:00035310       ?GetExcluded@CVcSeriesPosition@@QAEHXZ 00436310 f   vcseriesposition.obj
 0001:00035330       ?SetExcluded@CVcSeriesPosition@@QAEXH@Z 00436330 f   vcseriesposition.obj
 0001:00035350       ?GetHidden@CVcSeriesPosition@@QAEHXZ 00436350 f   vcseriesposition.obj
 0001:00035370       ?SetHidden@CVcSeriesPosition@@QAEXH@Z 00436370 f   vcseriesposition.obj
 0001:00035390       ?GetOrder@CVcSeriesPosition@@QAEFXZ 00436390 f   vcseriesposition.obj
 0001:000353b0       ?SetOrder@CVcSeriesPosition@@QAEXF@Z 004363b0 f   vcseriesposition.obj
 0001:000353d0       ?GetStackOrder@CVcSeriesPosition@@QAEFXZ 004363d0 f   vcseriesposition.obj
 0001:000353f0       ?SetStackOrder@CVcSeriesPosition@@QAEXF@Z 004363f0 f   vcseriesposition.obj
 0001:00035410       ?GetStyle@CVcShadow@@QAEJXZ 00436410 f   vcshadow.obj
 0001:00035430       ?SetStyle@CVcShadow@@QAEXJ@Z 00436430 f   vcshadow.obj
 0001:00035450       ?GetBrush@CVcShadow@@QAE?AVCVcBrush@@XZ 00436450 f   vcshadow.obj
 0001:00035490       ?GetOffset@CVcShadow@@QAE?AVCVcCoor@@XZ 00436490 f   vcshadow.obj
 0001:000354d0       ?GetFlag@CVcStatLine@@QAEFXZ 004364d0 f   vcstatline.obj
 0001:000354f0       ?SetFlag@CVcStatLine@@QAEXF@Z 004364f0 f   vcstatline.obj
 0001:00035510       ?GetVtColor@CVcStatLine@@QAE?AVCVcColor@@XZ 00436510 f   vcstatline.obj
 0001:00035550       ?GetWidth@CVcStatLine@@QAEMXZ 00436550 f   vcstatline.obj
 0001:00035570       ?SetWidth@CVcStatLine@@QAEXM@Z 00436570 f   vcstatline.obj
 0001:000355a0       ?GetStyle@CVcStatLine@@QAEJJ@Z 004365a0 f   vcstatline.obj
 0001:000355d0       ?SetStyle@CVcStatLine@@QAEXJJ@Z 004365d0 f   vcstatline.obj
 0001:00035600       ?GetHorzAlignment@CVcTextLayout@@QAEJXZ 00436600 f   vctextlayout.obj
 0001:00035620       ?SetHorzAlignment@CVcTextLayout@@QAEXJ@Z 00436620 f   vctextlayout.obj
 0001:00035640       ?GetVertAlignment@CVcTextLayout@@QAEJXZ 00436640 f   vctextlayout.obj
 0001:00035660       ?SetVertAlignment@CVcTextLayout@@QAEXJ@Z 00436660 f   vctextlayout.obj
 0001:00035680       ?GetOrientation@CVcTextLayout@@QAEJXZ 00436680 f   vctextlayout.obj
 0001:000356a0       ?SetOrientation@CVcTextLayout@@QAEXJ@Z 004366a0 f   vctextlayout.obj
 0001:000356c0       ?GetWordWrap@CVcTextLayout@@QAEHXZ 004366c0 f   vctextlayout.obj
 0001:000356e0       ?SetWordWrap@CVcTextLayout@@QAEXH@Z 004366e0 f   vctextlayout.obj
 0001:00035700       ?GetLength@CVcTick@@QAEMXZ 00436700 f   vctick.obj
 0001:00035720       ?SetLength@CVcTick@@QAEXM@Z 00436720 f   vctick.obj
 0001:00035750       ?GetStyle@CVcTick@@QAEJXZ  00436750 f   vctick.obj
 0001:00035770       ?SetStyle@CVcTick@@QAEXJ@Z 00436770 f   vctick.obj
 0001:00035790       ?GetTextLayout@CVcTitle@@QAE?AVCVcTextLayout@@XZ 00436790 f   vctitle.obj
 0001:000357d0       ?GetText@CVcTitle@@QAE?AVCString@@XZ 004367d0 f   vctitle.obj
 0001:00035860       ?SetText@CVcTitle@@QAEXPBD@Z 00436860 f   vctitle.obj
 0001:00035880       ?GetLocation@CVcTitle@@QAE?AVCVcLocation@@XZ 00436880 f   vctitle.obj
 0001:000358c0       ?GetBackdrop@CVcTitle@@QAE?AVCVcBackdrop@@XZ 004368c0 f   vctitle.obj
 0001:00035900       ?GetVtFont@CVcTitle@@QAE?AVCVcFont@@XZ 00436900 f   vctitle.obj
 0001:00035940       ?GetTextLength@CVcTitle@@QAEFXZ 00436940 f   vctitle.obj
 0001:00035960       ?SetRefFont@CVcTitle@@QAEXPAUIDispatch@@@Z 00436960 f   vctitle.obj
 0001:00035980       ?GetFont@CVcTitle@@QAE?AVCOleFont@@XZ 00436980 f   vctitle.obj
 0001:000359c0       ?Select@CVcTitle@@QAEXXZ   004369c0 f   vctitle.obj
 0001:000359e0       ?GetAuto@CVcValueScale@@QAEHXZ 004369e0 f   vcvaluescale.obj
 0001:00035a00       ?SetAuto@CVcValueScale@@QAEXH@Z 00436a00 f   vcvaluescale.obj
 0001:00035a20       ?GetMinimum@CVcValueScale@@QAENXZ 00436a20 f   vcvaluescale.obj
 0001:00035a40       ?SetMinimum@CVcValueScale@@QAEXN@Z 00436a40 f   vcvaluescale.obj
 0001:00035a70       ?GetMaximum@CVcValueScale@@QAENXZ 00436a70 f   vcvaluescale.obj
 0001:00035a90       ?SetMaximum@CVcValueScale@@QAEXN@Z 00436a90 f   vcvaluescale.obj
 0001:00035ac0       ?GetMajorDivision@CVcValueScale@@QAEFXZ 00436ac0 f   vcvaluescale.obj
 0001:00035ae0       ?SetMajorDivision@CVcValueScale@@QAEXF@Z 00436ae0 f   vcvaluescale.obj
 0001:00035b00       ?GetMinorDivision@CVcValueScale@@QAEFXZ 00436b00 f   vcvaluescale.obj
 0001:00035b20       ?SetMinorDivision@CVcValueScale@@QAEXF@Z 00436b20 f   vcvaluescale.obj
 0001:00035b40       ?GetRotation@CVcView3d@@QAEMXZ 00436b40 f   vcview3d.obj
 0001:00035b60       ?SetRotation@CVcView3d@@QAEXM@Z 00436b60 f   vcview3d.obj
 0001:00035b90       ?GetElevation@CVcView3d@@QAEMXZ 00436b90 f   vcview3d.obj
 0001:00035bb0       ?SetElevation@CVcView3d@@QAEXM@Z 00436bb0 f   vcview3d.obj
 0001:00035be0       ?Set@CVcView3d@@QAEXMM@Z   00436be0 f   vcview3d.obj
 0001:00035c10       ?GetWidth@CVcWall@@QAEMXZ  00436c10 f   vcwall.obj
 0001:00035c30       ?SetWidth@CVcWall@@QAEXM@Z 00436c30 f   vcwall.obj
 0001:00035c60       ?GetBrush@CVcWall@@QAE?AVCVcBrush@@XZ 00436c60 f   vcwall.obj
 0001:00035ca0       ?GetPen@CVcWall@@QAE?AVCVcPen@@XZ 00436ca0 f   vcwall.obj
 0001:00035ce0       ?GetBasis@CVcWeighting@@QAEJXZ 00436ce0 f   vcweighting.obj
 0001:00035d00       ?SetBasis@CVcWeighting@@QAEXJ@Z 00436d00 f   vcweighting.obj
 0001:00035d20       ?GetStyle@CVcWeighting@@QAEJXZ 00436d20 f   vcweighting.obj
 0001:00035d40       ?SetStyle@CVcWeighting@@QAEXJ@Z 00436d40 f   vcweighting.obj
 0001:00035d60       ?Set@CVcWeighting@@QAEXJJ@Z 00436d60 f   vcweighting.obj
 0001:00035d90       ??0CAMSEdit@@QAE@XZ        00436d90 f   amsEdit.obj
 0001:00035dc0       ??_ECAMSEdit@@UAEPAXI@Z    00436dc0 f i amsEdit.obj
 0001:00035dc0       ??_GCAMSEdit@@UAEPAXI@Z    00436dc0 f i amsEdit.obj
 0001:00035de0       ??1CAMSEdit@@UAE@XZ        00436de0 f   amsEdit.obj
 0001:00035e50       ?_GetBaseMessageMap@CAMSEdit@@KGPBUAFX_MSGMAP@@XZ 00436e50 f   amsEdit.obj
 0001:00035e60       ?GetMessageMap@CAMSEdit@@MBEPBUAFX_MSGMAP@@XZ 00436e60 f   amsEdit.obj
 0001:00035e70       ?GetText@CAMSEdit@@QBE?AVCString@@XZ 00436e70 f   amsEdit.obj
 0001:00035ef0       ?GetTrimmedText@CAMSEdit@@QBE?AVCString@@XZ 00436ef0 f   amsEdit.obj
 0001:00035f70       ?SetText@CAMSEdit@@QAEXABVCString@@@Z 00436f70 f   amsEdit.obj
 0001:00035f80       ?SetBackgroundColor@CAMSEdit@@QAEXK@Z 00436f80 f   amsEdit.obj
 0001:00035fc0       ?GetBackgroundColor@CAMSEdit@@QBEKXZ 00436fc0 f   amsEdit.obj
 0001:00036020       ?SetTextColor@CAMSEdit@@QAEXK@Z 00437020 f   amsEdit.obj
 0001:00036050       ?GetTextColor@CAMSEdit@@QBEKXZ 00437050 f   amsEdit.obj
 0001:00036090       ?IsReadOnly@CAMSEdit@@QBE_NXZ 00437090 f   amsEdit.obj
 0001:000360a0       ?GetValidText@CAMSEdit@@MBE?AVCString@@XZ 004370a0 f   amsEdit.obj
 0001:000360c0       ?Redraw@CAMSEdit@@MAEXXZ   004370c0 f   amsEdit.obj
 0001:00036160       ?ShouldEnter@CAMSEdit@@MBE_ND@Z 00437160 f   amsEdit.obj
 0001:00036170       ?OnCut@CAMSEdit@@IAEJIJ@Z  00437170 f   amsEdit.obj
 0001:000361d0       ?OnClear@CAMSEdit@@IAEJIJ@Z 004371d0 f   amsEdit.obj
 0001:00036220       ?OnPaste@CAMSEdit@@IAEJIJ@Z 00437220 f   amsEdit.obj
 0001:00036300       ?OnChildNotify@CAMSEdit@@MAEHIIJPAJ@Z 00437300 f   amsEdit.obj
 0001:000363a0       ?OnSetText@CAMSEdit@@IAEJIJ@Z 004373a0 f   amsEdit.obj
 0001:00036430       ??0SelectionSaver@CAMSEdit@@QAE@PAVCEdit@@@Z 00437430 f   amsEdit.obj
 0001:00036460       ??0SelectionSaver@CAMSEdit@@QAE@PAVCEdit@@HH@Z 00437460 f   amsEdit.obj
 0001:00036480       ??1SelectionSaver@CAMSEdit@@QAE@XZ 00437480 f   amsEdit.obj
 0001:000364a0       ?MoveTo@SelectionSaver@CAMSEdit@@QAEXHH@Z 004374a0 f   amsEdit.obj
 0001:000364c0       ?MoveBy@SelectionSaver@CAMSEdit@@QAEXHH@Z 004374c0 f   amsEdit.obj
 0001:000364e0       ?MoveBy@SelectionSaver@CAMSEdit@@QAEXH@Z 004374e0 f   amsEdit.obj
 0001:00036500       ??YSelectionSaver@CAMSEdit@@QAEXH@Z 00437500 f   amsEdit.obj
 0001:00036510       ?GetStart@SelectionSaver@CAMSEdit@@QBEHXZ 00437510 f   amsEdit.obj
 0001:00036520       ?GetEnd@SelectionSaver@CAMSEdit@@QBEHXZ 00437520 f   amsEdit.obj
 0001:00036530       ?Update@SelectionSaver@CAMSEdit@@QAEXXZ 00437530 f   amsEdit.obj
 0001:00036550       ?Disable@SelectionSaver@CAMSEdit@@QAEXXZ 00437550 f   amsEdit.obj
 0001:00036560       ??0Behavior@CAMSEdit@@IAE@PAV1@@Z 00437560 f   amsEdit.obj
 0001:00036580       ??_GBehavior@CAMSEdit@@MAEPAXI@Z 00437580 f i amsEdit.obj
 0001:00036580       ??_EBehavior@CAMSEdit@@MAEPAXI@Z 00437580 f i amsEdit.obj
 0001:000365a0       ??1Behavior@CAMSEdit@@MAE@XZ 004375a0 f   amsEdit.obj
 0001:000365b0       ?ModifyFlags@Behavior@CAMSEdit@@QAE_NII@Z 004375b0 f   amsEdit.obj
 0001:000365e0       ?GetFlags@Behavior@CAMSEdit@@QBEIXZ 004375e0 f   amsEdit.obj
 0001:000365f0       ?_OnChar@Behavior@CAMSEdit@@UAEXIII@Z 004375f0 f   amsEdit.obj
 0001:00036600       ?_OnKeyDown@Behavior@CAMSEdit@@UAEXIII@Z 00437600 f   amsEdit.obj
 0001:00036610       ?_OnKillFocus@Behavior@CAMSEdit@@UAEXPAVCWnd@@@Z 00437610 f   amsEdit.obj
 0001:00036620       ?_OnPaste@Behavior@CAMSEdit@@UAEJIJ@Z 00437620 f   amsEdit.obj
 0001:00036640       ?_Default@Behavior@CAMSEdit@@MAEJXZ 00437640 f   amsEdit.obj
 0001:00036650       ?_Redraw@Behavior@CAMSEdit@@MAEXXZ 00437650 f   amsEdit.obj
 0001:00036660       ?_ShouldEnter@Behavior@CAMSEdit@@MBE_ND@Z 00437660 f   amsEdit.obj
 0001:00036680       ??0AlphanumericBehavior@CAMSEdit@@QAE@PAV1@HABVCString@@@Z 00437680 f   amsEdit.obj
 0001:000366e0       ??_EAlphanumericBehavior@CAMSEdit@@UAEPAXI@Z 004376e0 f i amsEdit.obj
 0001:000366e0       ??_GAlphanumericBehavior@CAMSEdit@@UAEPAXI@Z 004376e0 f i amsEdit.obj
 0001:00036700       ?SetInvalidCharacters@AlphanumericBehavior@CAMSEdit@@QAEXABVCString@@@Z 00437700 f   amsEdit.obj
 0001:00036740       ?GetInvalidCharacters@AlphanumericBehavior@CAMSEdit@@QBEABVCString@@XZ 00437740 f   amsEdit.obj
 0001:00036750       ?SetMaxCharacters@AlphanumericBehavior@CAMSEdit@@QAEXH@Z 00437750 f   amsEdit.obj
 0001:00036770       ?GetMaxCharacters@AlphanumericBehavior@CAMSEdit@@QBEHXZ 00437770 f   amsEdit.obj
 0001:00036780       ?_GetValidText@AlphanumericBehavior@CAMSEdit@@MBE?AVCString@@XZ 00437780 f   amsEdit.obj
 0001:000368e0       ?_OnChar@AlphanumericBehavior@CAMSEdit@@MAEXIII@Z 004378e0 f   amsEdit.obj
 0001:00036a80       ??0MaskedBehavior@CAMSEdit@@QAE@PAV1@ABVCString@@@Z 00437a80 f   amsEdit.obj
 0001:00036cd0       ??_GMaskedBehavior@CAMSEdit@@UAEPAXI@Z 00437cd0 f i amsEdit.obj
 0001:00036cd0       ??_EMaskedBehavior@CAMSEdit@@UAEPAXI@Z 00437cd0 f i amsEdit.obj
 0001:00036cf0       ??1MaskedBehavior@CAMSEdit@@UAE@XZ 00437cf0 f i amsEdit.obj
 0001:00036d90       ?GetMask@MaskedBehavior@CAMSEdit@@QBEABVCString@@XZ 00437d90 f   amsEdit.obj
 0001:00036da0       ?SetMask@MaskedBehavior@CAMSEdit@@QAEXABVCString@@@Z 00437da0 f   amsEdit.obj
 0001:00036de0       ?GetNumericText@MaskedBehavior@CAMSEdit@@QBE?AVCString@@XZ 00437de0 f   amsEdit.obj
 0001:00036eb0       ?_GetValidText@MaskedBehavior@CAMSEdit@@MBE?AVCString@@XZ 00437eb0 f   amsEdit.obj
 0001:000371b0       ?_OnChar@MaskedBehavior@CAMSEdit@@MAEXIII@Z 004381b0 f   amsEdit.obj
 0001:000375b0       ?_OnKeyDown@MaskedBehavior@CAMSEdit@@MAEXIII@Z 004385b0 f   amsEdit.obj
 0001:00037680       ?GetSymbolArray@MaskedBehavior@CAMSEdit@@QAEAAV?$CArray@VSymbol@MaskedBehavior@CAMSEdit@@ABV123@@@XZ 00438680 f   amsEdit.obj
 0001:00037690       ??0Symbol@MaskedBehavior@CAMSEdit@@QAE@XZ 00438690 f   amsEdit.obj
 0001:000376b0       ??_ESymbol@MaskedBehavior@CAMSEdit@@UAEPAXI@Z 004386b0 f i amsEdit.obj
 0001:000376b0       ??_GSymbol@MaskedBehavior@CAMSEdit@@UAEPAXI@Z 004386b0 f i amsEdit.obj
 0001:000376d0       ??0Symbol@MaskedBehavior@CAMSEdit@@QAE@DP6AHI@ZP6AII@Z@Z 004386d0 f   amsEdit.obj
 0001:000376f0       ??1Symbol@MaskedBehavior@CAMSEdit@@UAE@XZ 004386f0 f   amsEdit.obj
 0001:00037700       ?Validate@Symbol@MaskedBehavior@CAMSEdit@@UBE_ND@Z 00438700 f   amsEdit.obj
 0001:00037720       ?Convert@Symbol@MaskedBehavior@CAMSEdit@@UBEDD@Z 00438720 f   amsEdit.obj
 0001:00037740       ?Set@Symbol@MaskedBehavior@CAMSEdit@@QAEXD@Z 00438740 f   amsEdit.obj
 0001:00037750       ?Get@Symbol@MaskedBehavior@CAMSEdit@@QBEDXZ 00438750 f   amsEdit.obj
 0001:00037760       ??BSymbol@MaskedBehavior@CAMSEdit@@QBEDXZ 00438760 f   amsEdit.obj
 0001:00037770       ??0NumericBehavior@CAMSEdit@@QAE@PAV1@HH@Z 00438770 f   amsEdit.obj
 0001:00037890       ??_GNumericBehavior@CAMSEdit@@UAEPAXI@Z 00438890 f i amsEdit.obj
 0001:00037890       ??_ENumericBehavior@CAMSEdit@@UAEPAXI@Z 00438890 f i amsEdit.obj
 0001:000378b0       ??1NumericBehavior@CAMSEdit@@UAE@XZ 004388b0 f i amsEdit.obj
 0001:00037900       ?SetMaxWholeDigits@NumericBehavior@CAMSEdit@@QAEXH@Z 00438900 f   amsEdit.obj
 0001:00037960       ?GetMaxWholeDigits@NumericBehavior@CAMSEdit@@QBEHXZ 00438960 f   amsEdit.obj
 0001:00037970       ?SetMaxDecimalPlaces@NumericBehavior@CAMSEdit@@QAEXH@Z 00438970 f   amsEdit.obj
 0001:00037990       ?GetMaxDecimalPlaces@NumericBehavior@CAMSEdit@@QBEHXZ 00438990 f   amsEdit.obj
 0001:000379a0       ?AllowNegative@NumericBehavior@CAMSEdit@@QAEX_N@Z 004389a0 f   amsEdit.obj
 0001:000379d0       ?IsNegativeAllowed@NumericBehavior@CAMSEdit@@QBE_NXZ 004389d0 f   amsEdit.obj
 0001:000379e0       ?SetDigitsInGroup@NumericBehavior@CAMSEdit@@QAEXH@Z 004389e0 f   amsEdit.obj
 0001:00037a00       ?GetDigitsInGroup@NumericBehavior@CAMSEdit@@QBEHXZ 00438a00 f   amsEdit.obj
 0001:00037a10       ?SetSeparators@NumericBehavior@CAMSEdit@@QAEXDD@Z 00438a10 f   amsEdit.obj
 0001:00037a50       ?GetSeparators@NumericBehavior@CAMSEdit@@QBEXPAD0@Z 00438a50 f   amsEdit.obj
 0001:00037a70       ?SetPrefix@NumericBehavior@CAMSEdit@@QAEXABVCString@@@Z 00438a70 f   amsEdit.obj
 0001:00037ab0       ?GetPrefix@NumericBehavior@CAMSEdit@@QBEABVCString@@XZ 00438ab0 f   amsEdit.obj
 0001:00037ac0       ?SetMask@NumericBehavior@CAMSEdit@@QAEXABVCString@@@Z 00438ac0 f   amsEdit.obj
 0001:00037bd0       ?GetMask@NumericBehavior@CAMSEdit@@QBE?AVCString@@XZ 00438bd0 f   amsEdit.obj
 0001:00037cf0       ?SetRange@NumericBehavior@CAMSEdit@@QAEXNN@Z 00438cf0 f   amsEdit.obj
 0001:00037d20       ?GetRange@NumericBehavior@CAMSEdit@@QBEXPAN0@Z 00438d20 f   amsEdit.obj
 0001:00037d50       ?GetGroupSeparatorCount@NumericBehavior@CAMSEdit@@IBEHABVCString@@@Z 00438d50 f   amsEdit.obj
 0001:00037d80       ?GetNumericText@NumericBehavior@CAMSEdit@@IBE?AVCString@@ABV3@_N@Z 00438d80 f   amsEdit.obj
 0001:00037e90       ?GetDoubleText@NumericBehavior@CAMSEdit@@IBE?AVCString@@N_N@Z 00438e90 f   amsEdit.obj
 0001:00037f50       ?SetDouble@NumericBehavior@CAMSEdit@@QAEXN_N@Z 00438f50 f   amsEdit.obj
 0001:00037fc0       ?GetDouble@NumericBehavior@CAMSEdit@@QBENXZ 00438fc0 f   amsEdit.obj
 0001:00038040       ?SetInt@NumericBehavior@CAMSEdit@@QAEXH@Z 00439040 f   amsEdit.obj
 0001:000380c0       ?GetInt@NumericBehavior@CAMSEdit@@QBEHXZ 004390c0 f   amsEdit.obj
 0001:00038140       ?AdjustSeparators@NumericBehavior@CAMSEdit@@IAEXH@Z 00439140 f   amsEdit.obj
 0001:00038230       ?GetSeparatedText@NumericBehavior@CAMSEdit@@IBE?AVCString@@ABV3@@Z 00439230 f   amsEdit.obj
 0001:00038470       ?InsertZeros@NumericBehavior@CAMSEdit@@KAXPAVCString@@HH@Z 00439470 f   amsEdit.obj
 0001:000384b0       ?_GetValidText@NumericBehavior@CAMSEdit@@MBE?AVCString@@XZ 004394b0 f   amsEdit.obj
 0001:000386b0       ?_OnChar@NumericBehavior@CAMSEdit@@MAEXIII@Z 004396b0 f   amsEdit.obj
 0001:00038de0       ?_OnKeyDown@NumericBehavior@CAMSEdit@@MAEXIII@Z 00439de0 f   amsEdit.obj
 0001:00038f30       ?_OnKillFocus@NumericBehavior@CAMSEdit@@MAEXPAVCWnd@@@Z 00439f30 f   amsEdit.obj
 0001:00039200       ?IsValid@NumericBehavior@CAMSEdit@@UBE_NXZ 0043a200 f   amsEdit.obj
 0001:00039230       ?CheckIfValid@NumericBehavior@CAMSEdit@@QAE_N_N@Z 0043a230 f   amsEdit.obj
 0001:00039280       ?ShowErrorMessage@NumericBehavior@CAMSEdit@@MBEXXZ 0043a280 f   amsEdit.obj
 0001:00039520       ?AdjustWithinRange@NumericBehavior@CAMSEdit@@IAEXXZ 0043a520 f   amsEdit.obj
 0001:000395e0       ??0DateBehavior@CAMSEdit@@QAE@PAV1@@Z 0043a5e0 f   amsEdit.obj
 0001:00039770       ?_OnChar@DateBehavior@CAMSEdit@@MAEXIII@Z 0043a770 f   amsEdit.obj
 0001:0003af60       ?_OnKeyDown@DateBehavior@CAMSEdit@@MAEXIII@Z 0043bf60 f   amsEdit.obj
 0001:0003b2c0       ?_OnKillFocus@DateBehavior@CAMSEdit@@MAEXPAVCWnd@@@Z 0043c2c0 f   amsEdit.obj
 0001:0003b420       ?GetString@DateBehavior@CAMSEdit@@SA?AVCString@@H_N@Z 0043c420 f   amsEdit.obj
 0001:0003b4c0       ?GetMonthStartPosition@DateBehavior@CAMSEdit@@IBEHXZ 0043c4c0 f   amsEdit.obj
 0001:0003b4e0       ?GetDayStartPosition@DateBehavior@CAMSEdit@@IBEHXZ 0043c4e0 f   amsEdit.obj
 0001:0003b500       ?GetYearStartPosition@DateBehavior@CAMSEdit@@IBEHXZ 0043c500 f   amsEdit.obj
 0001:0003b510       ?GetMaxMonth@DateBehavior@CAMSEdit@@IBEHXZ 0043c510 f   amsEdit.obj
 0001:0003b540       ?GetMinMonth@DateBehavior@CAMSEdit@@IBEHXZ 0043c540 f   amsEdit.obj
 0001:0003b570       ?GetMaxDay@DateBehavior@CAMSEdit@@IBEHXZ 0043c570 f   amsEdit.obj
 0001:0003b5c0       ?GetMinDay@DateBehavior@CAMSEdit@@IBEHXZ 0043c5c0 f   amsEdit.obj
 0001:0003b610       ?GetMaxDayOfMonth@DateBehavior@CAMSEdit@@SAHHH@Z 0043c610 f   amsEdit.obj
 0001:0003b670       ?GetMaxMonthDigit@DateBehavior@CAMSEdit@@IBEDH@Z 0043c670 f   amsEdit.obj
 0001:0003b7e0       ?GetMinMonthDigit@DateBehavior@CAMSEdit@@IBEDH@Z 0043c7e0 f   amsEdit.obj
 0001:0003b960       ??_ECBrush@@UAEPAXI@Z      0043c960 f i amsEdit.obj
 0001:0003b960       ??_GCBrush@@UAEPAXI@Z      0043c960 f i amsEdit.obj
 0001:0003b980       ??1CBrush@@UAE@XZ          0043c980 f i amsEdit.obj
 0001:0003b9d0       ?IsValidMonthDigit@DateBehavior@CAMSEdit@@IBE_NDH@Z 0043c9d0 f   amsEdit.obj
 0001:0003ba10       ?IsValidMonth@DateBehavior@CAMSEdit@@IBE_NH@Z 0043ca10 f   amsEdit.obj
 0001:0003ba60       ?GetMaxDayDigit@DateBehavior@CAMSEdit@@IBEDH@Z 0043ca60 f   amsEdit.obj
 0001:0003bc80       ?GetMinDayDigit@DateBehavior@CAMSEdit@@IBEDH@Z 0043cc80 f   amsEdit.obj
 0001:0003be10       ?IsValidDayDigit@DateBehavior@CAMSEdit@@IBE_NDH@Z 0043ce10 f   amsEdit.obj
 0001:0003be50       ?IsValidDay@DateBehavior@CAMSEdit@@IBE_NH@Z 0043ce50 f   amsEdit.obj
 0001:0003bea0       ?IsValidYear@DateBehavior@CAMSEdit@@IBE_NH@Z 0043cea0 f   amsEdit.obj
 0001:0003bee0       ?AdjustMaxMonthAndDay@DateBehavior@CAMSEdit@@IAE_NXZ 0043cee0 f   amsEdit.obj
 0001:0003bf20       ?AdjustMaxDay@DateBehavior@CAMSEdit@@IAE_NXZ 0043cf20 f   amsEdit.obj
 0001:0003bf50       ?GetMaxYearDigit@DateBehavior@CAMSEdit@@IBEDH@Z 0043cf50 f   amsEdit.obj
 0001:0003c080       ?GetMinYearDigit@DateBehavior@CAMSEdit@@IBEDH_N@Z 0043d080 f   amsEdit.obj
 0001:0003c1d0       ?IsValidYearDigit@DateBehavior@CAMSEdit@@IBE_NDH@Z 0043d1d0 f   amsEdit.obj
 0001:0003c210       ?GetMonth@DateBehavior@CAMSEdit@@QBEHXZ 0043d210 f   amsEdit.obj
 0001:0003c2d0       ?GetValidMonth@DateBehavior@CAMSEdit@@IBEHXZ 0043d2d0 f   amsEdit.obj
 0001:0003c310       ?GetDay@DateBehavior@CAMSEdit@@QBEHXZ 0043d310 f   amsEdit.obj
 0001:0003c3d0       ?GetValidDay@DateBehavior@CAMSEdit@@IBEHXZ 0043d3d0 f   amsEdit.obj
 0001:0003c410       ?GetYear@DateBehavior@CAMSEdit@@QBEHXZ 0043d410 f   amsEdit.obj
 0001:0003c4d0       ?GetValidYear@DateBehavior@CAMSEdit@@IBEHXZ 0043d4d0 f   amsEdit.obj
 0001:0003c540       ?SetMonth@DateBehavior@CAMSEdit@@QAEXH@Z 0043d540 f   amsEdit.obj
 0001:0003c640       ?SetDay@DateBehavior@CAMSEdit@@QAEXH@Z 0043d640 f   amsEdit.obj
 0001:0003c740       ?SetYear@DateBehavior@CAMSEdit@@QAEXH@Z 0043d740 f   amsEdit.obj
 0001:0003c840       ?GetDate@DateBehavior@CAMSEdit@@QBE?AVCTime@@XZ 0043d840 f   amsEdit.obj
 0001:0003c880       ?GetOleDate@DateBehavior@CAMSEdit@@QBE?AVCOleDateTime@@XZ 0043d880 f   amsEdit.obj
 0001:0003c8d0       ?SetDate@DateBehavior@CAMSEdit@@QAEXHHH@Z 0043d8d0 f   amsEdit.obj
 0001:0003c940       ?SetDate@DateBehavior@CAMSEdit@@QAEXABVCTime@@@Z 0043d940 f   amsEdit.obj
 0001:0003c990       ?SetDate@DateBehavior@CAMSEdit@@QAEXABVCOleDateTime@@@Z 0043d990 f   amsEdit.obj
 0001:0003c9c0       ?SetDateToToday@DateBehavior@CAMSEdit@@QAEXXZ 0043d9c0 f   amsEdit.obj
 0001:0003c9e0       ?IsLeapYear@DateBehavior@CAMSEdit@@SA_NH@Z 0043d9e0 f   amsEdit.obj
 0001:0003ca10       ?IsValid@DateBehavior@CAMSEdit@@UBE_NXZ 0043da10 f   amsEdit.obj
 0001:0003ca60       ?CheckIfValid@DateBehavior@CAMSEdit@@QAE_N_N@Z 0043da60 f   amsEdit.obj
 0001:0003cab0       ?ShowErrorMessage@DateBehavior@CAMSEdit@@MBEXXZ 0043dab0 f   amsEdit.obj
 0001:0003cbf0       ?SetRange@DateBehavior@CAMSEdit@@QAEXABVCTime@@0@Z 0043dbf0 f   amsEdit.obj
 0001:0003cc90       ?SetRange@DateBehavior@CAMSEdit@@QAEXABVCOleDateTime@@0@Z 0043dc90 f   amsEdit.obj
 0001:0003ccd0       ?GetRange@DateBehavior@CAMSEdit@@QBEXPAVCTime@@0@Z 0043dcd0 f   amsEdit.obj
 0001:0003cd50       ?GetRange@DateBehavior@CAMSEdit@@QBEXPAVCOleDateTime@@0@Z 0043dd50 f   amsEdit.obj
 0001:0003cd90       ?IsWithinRange@DateBehavior@CAMSEdit@@MBE_NABVCOleDateTime@@_N@Z 0043dd90 f   amsEdit.obj
 0001:0003cdd0       ?SetSeparator@DateBehavior@CAMSEdit@@QAEXD@Z 0043ddd0 f   amsEdit.obj
 0001:0003ce00       ?GetSeparator@DateBehavior@CAMSEdit@@QBEDXZ 0043de00 f   amsEdit.obj
 0001:0003ce10       ?ShowDayBeforeMonth@DateBehavior@CAMSEdit@@QAEX_N@Z 0043de10 f   amsEdit.obj
 0001:0003ce50       ?IsDayShownBeforeMonth@DateBehavior@CAMSEdit@@QBE_NXZ 0043de50 f   amsEdit.obj
 0001:0003ce60       ?_GetValidText@DateBehavior@CAMSEdit@@MBE?AVCString@@XZ 0043de60 f   amsEdit.obj
 0001:0003d020       ?GetFormattedDate@DateBehavior@CAMSEdit@@IBE?AVCString@@HHH@Z 0043e020 f   amsEdit.obj
 0001:0003d0f0       ??0TimeBehavior@CAMSEdit@@QAE@PAV1@@Z 0043e0f0 f   amsEdit.obj
 0001:0003d2e0       ?_OnChar@TimeBehavior@CAMSEdit@@MAEXIII@Z 0043e2e0 f   amsEdit.obj
 0001:0003df30       ?_OnKeyDown@TimeBehavior@CAMSEdit@@MAEXIII@Z 0043ef30 f   amsEdit.obj
 0001:0003e510       ?_OnKillFocus@TimeBehavior@CAMSEdit@@MAEXPAVCWnd@@@Z 0043f510 f   amsEdit.obj
 0001:0003e660       ?GetHourStartPosition@TimeBehavior@CAMSEdit@@IBEHXZ 0043f660 f   amsEdit.obj
 0001:0003e670       ?GetMinuteStartPosition@TimeBehavior@CAMSEdit@@IBEHXZ 0043f670 f   amsEdit.obj
 0001:0003e680       ?GetSecondStartPosition@TimeBehavior@CAMSEdit@@IBEHXZ 0043f680 f   amsEdit.obj
 0001:0003e690       ?GetAMPMStartPosition@TimeBehavior@CAMSEdit@@IBEHXZ 0043f690 f   amsEdit.obj
 0001:0003e6b0       ?GetMaxHour@TimeBehavior@CAMSEdit@@IBEH_N@Z 0043f6b0 f   amsEdit.obj
 0001:0003e6d0       ?GetMinHour@TimeBehavior@CAMSEdit@@IBEH_N@Z 0043f6d0 f   amsEdit.obj
 0001:0003e6f0       ?GetMaxMinute@TimeBehavior@CAMSEdit@@IBEHXZ 0043f6f0 f   amsEdit.obj
 0001:0003e700       ?GetMinMinute@TimeBehavior@CAMSEdit@@IBEHXZ 0043f700 f   amsEdit.obj
 0001:0003e710       ?GetMaxSecond@TimeBehavior@CAMSEdit@@IBEHXZ 0043f710 f   amsEdit.obj
 0001:0003e720       ?GetMinSecond@TimeBehavior@CAMSEdit@@IBEHXZ 0043f720 f   amsEdit.obj
 0001:0003e730       ?GetMaxHourDigit@TimeBehavior@CAMSEdit@@IBEDH@Z 0043f730 f   amsEdit.obj
 0001:0003e840       ?GetMinHourDigit@TimeBehavior@CAMSEdit@@IBEDH@Z 0043f840 f   amsEdit.obj
 0001:0003e900       ?IsValidHourDigit@TimeBehavior@CAMSEdit@@IBE_NDH@Z 0043f900 f   amsEdit.obj
 0001:0003e940       ?IsValidHour@TimeBehavior@CAMSEdit@@IBE_NH_N@Z 0043f940 f   amsEdit.obj
 0001:0003e980       ?GetMaxMinuteDigit@TimeBehavior@CAMSEdit@@IBEDH@Z 0043f980 f   amsEdit.obj
 0001:0003e990       ?GetMinMinuteDigit@TimeBehavior@CAMSEdit@@IBEDH@Z 0043f990 f   amsEdit.obj
 0001:0003e9a0       ?IsValidMinuteDigit@TimeBehavior@CAMSEdit@@IBE_NDH@Z 0043f9a0 f   amsEdit.obj
 0001:0003e9e0       ?IsValidMinute@TimeBehavior@CAMSEdit@@IBE_NH@Z 0043f9e0 f   amsEdit.obj
 0001:0003ea10       ?GetMaxSecondDigit@TimeBehavior@CAMSEdit@@IBEDH@Z 0043fa10 f   amsEdit.obj
 0001:0003ea20       ?GetMinSecondDigit@TimeBehavior@CAMSEdit@@IBEDH@Z 0043fa20 f   amsEdit.obj
 0001:0003ea30       ?IsValidSecondDigit@TimeBehavior@CAMSEdit@@IBE_NDH@Z 0043fa30 f   amsEdit.obj
 0001:0003ea70       ?IsValidSecond@TimeBehavior@CAMSEdit@@IBE_NH@Z 0043fa70 f   amsEdit.obj
 0001:0003eaa0       ?ShowAMPM@TimeBehavior@CAMSEdit@@IAEXXZ 0043faa0 f   amsEdit.obj
 0001:0003eb20       ?SetAMPM@TimeBehavior@CAMSEdit@@QAEX_N@Z 0043fb20 f   amsEdit.obj
 0001:0003ec20       ?ChangeAMPM@TimeBehavior@CAMSEdit@@IAE_ND@Z 0043fc20 f   amsEdit.obj
 0001:0003ef50       ?GetAMPMPosition@TimeBehavior@CAMSEdit@@IBEHABVCString@@@Z 0043ff50 f   amsEdit.obj
 0001:0003f010       ?IsValidAMPM@TimeBehavior@CAMSEdit@@IBE_NABVCString@@@Z 00440010 f   amsEdit.obj
 0001:0003f060       ?GetHour@TimeBehavior@CAMSEdit@@QBEHXZ 00440060 f   amsEdit.obj
 0001:0003f120       ?GetValidHour@TimeBehavior@CAMSEdit@@IBEH_N@Z 00440120 f   amsEdit.obj
 0001:0003f170       ?GetMinute@TimeBehavior@CAMSEdit@@QBEHXZ 00440170 f   amsEdit.obj
 0001:0003f230       ?GetValidMinute@TimeBehavior@CAMSEdit@@IBEHXZ 00440230 f   amsEdit.obj
 0001:0003f270       ?GetSecond@TimeBehavior@CAMSEdit@@QBEHXZ 00440270 f   amsEdit.obj
 0001:0003f360       ?GetValidSecond@TimeBehavior@CAMSEdit@@IBEHXZ 00440360 f   amsEdit.obj
 0001:0003f3a0       ?GetAMPM@TimeBehavior@CAMSEdit@@QBE?AVCString@@XZ 004403a0 f   amsEdit.obj
 0001:0003f450       ?GetValidAMPM@TimeBehavior@CAMSEdit@@IBE?AVCString@@XZ 00440450 f   amsEdit.obj
 0001:0003f4f0       ?SetHour@TimeBehavior@CAMSEdit@@QAEXH@Z 004404f0 f   amsEdit.obj
 0001:0003f670       ?SetMinute@TimeBehavior@CAMSEdit@@QAEXH@Z 00440670 f   amsEdit.obj
 0001:0003f7a0       ?SetSecond@TimeBehavior@CAMSEdit@@QAEXH@Z 004407a0 f   amsEdit.obj
 0001:0003f8b0       ?ConvertTo24Hour@TimeBehavior@CAMSEdit@@IBEHHABVCString@@@Z 004408b0 f   amsEdit.obj
 0001:0003f910       ?ConvertToAMPMHour@TimeBehavior@CAMSEdit@@IBEHHPAVCString@@@Z 00440910 f   amsEdit.obj
 0001:0003f9a0       ?GetTime@TimeBehavior@CAMSEdit@@QBE?AVCTime@@XZ 004409a0 f   amsEdit.obj
 0001:0003fa90       ?GetOleTime@TimeBehavior@CAMSEdit@@QBE?AVCOleDateTime@@XZ 00440a90 f   amsEdit.obj
 0001:0003fb90       ?SetTime@TimeBehavior@CAMSEdit@@QAEXHHH@Z 00440b90 f   amsEdit.obj
 0001:0003fc30       ?SetTime@TimeBehavior@CAMSEdit@@QAEXABVCTime@@@Z 00440c30 f   amsEdit.obj
 0001:0003fc70       ?SetTime@TimeBehavior@CAMSEdit@@QAEXABVCOleDateTime@@@Z 00440c70 f   amsEdit.obj
 0001:0003fca0       ?SetTimeToNow@TimeBehavior@CAMSEdit@@QAEXXZ 00440ca0 f   amsEdit.obj
 0001:0003fcc0       ?IsValid@TimeBehavior@CAMSEdit@@UBE_NXZ 00440cc0 f   amsEdit.obj
 0001:0003fcd0       ?IsValid@TimeBehavior@CAMSEdit@@QBE_N_N@Z 00440cd0 f   amsEdit.obj
 0001:0003fe60       ?CheckIfValid@TimeBehavior@CAMSEdit@@QAE_N_N@Z 00440e60 f   amsEdit.obj
 0001:0003feb0       ?ShowErrorMessage@TimeBehavior@CAMSEdit@@MBEXXZ 00440eb0 f   amsEdit.obj
 0001:00040020       ?SetRange@TimeBehavior@CAMSEdit@@QAEXABVCTime@@0@Z 00441020 f   amsEdit.obj
 0001:000400c0       ?SetRange@TimeBehavior@CAMSEdit@@QAEXABVCOleDateTime@@0@Z 004410c0 f   amsEdit.obj
 0001:00040140       ?GetRange@TimeBehavior@CAMSEdit@@QBEXPAVCTime@@0@Z 00441140 f   amsEdit.obj
 0001:00040230       ?GetRange@TimeBehavior@CAMSEdit@@QBEXPAVCOleDateTime@@0@Z 00441230 f   amsEdit.obj
 0001:00040330       ?IsWithinRange@TimeBehavior@CAMSEdit@@MBE_NABVCOleDateTime@@_N@Z 00441330 f   amsEdit.obj
 0001:00040370       ?SetSeparator@TimeBehavior@CAMSEdit@@QAEXD@Z 00441370 f   amsEdit.obj
 0001:000403a0       ?GetSeparator@TimeBehavior@CAMSEdit@@QBEDXZ 004413a0 f   amsEdit.obj
 0001:000403b0       ?Show24HourFormat@TimeBehavior@CAMSEdit@@QAEX_N@Z 004413b0 f   amsEdit.obj
 0001:000403f0       ?IsShowing24HourFormat@TimeBehavior@CAMSEdit@@QBE_NXZ 004413f0 f   amsEdit.obj
 0001:00040400       ?ShowSeconds@TimeBehavior@CAMSEdit@@QAEX_N@Z 00441400 f   amsEdit.obj
 0001:00040440       ?IsShowingSeconds@TimeBehavior@CAMSEdit@@QBE_NXZ 00441440 f   amsEdit.obj
 0001:00040450       ?SetAMPMSymbols@TimeBehavior@CAMSEdit@@QAEXABVCString@@0@Z 00441450 f   amsEdit.obj
 0001:000404e0       ?GetAMPMSymbols@TimeBehavior@CAMSEdit@@QBEXPAVCString@@0@Z 004414e0 f   amsEdit.obj
 0001:00040510       ?_GetValidText@TimeBehavior@CAMSEdit@@MBE?AVCString@@XZ 00441510 f   amsEdit.obj
 0001:00040720       ?GetFormattedTime@TimeBehavior@CAMSEdit@@IBE?AVCString@@HHHABV3@@Z 00441720 f   amsEdit.obj
 0001:00040890       ?AdjustWithinRange@TimeBehavior@CAMSEdit@@IAEXXZ 00441890 f   amsEdit.obj
 0001:00040950       ??0DateTimeBehavior@CAMSEdit@@QAE@PAV1@@Z 00441950 f   amsEdit.obj
 0001:00040a10       ??1DateBehavior@CAMSEdit@@UAE@XZ 00441a10 f i amsEdit.obj
 0001:00040a20       ?SetDateTime@DateTimeBehavior@CAMSEdit@@QAEXHHHHHH@Z 00441a20 f   amsEdit.obj
 0001:00040b90       ?OnKillFocus@CWnd@@IAEXPAV1@@Z 00441b90 f i amsEdit.obj
 0001:00040ba0       ?SetDateTime@DateTimeBehavior@CAMSEdit@@QAEXABVCTime@@@Z 00441ba0 f   amsEdit.obj
 0001:00040c30       ?SetDateTime@DateTimeBehavior@CAMSEdit@@QAEXABVCOleDateTime@@@Z 00441c30 f   amsEdit.obj
 0001:00040c80       ?SetToNow@DateTimeBehavior@CAMSEdit@@QAEXXZ 00441c80 f   amsEdit.obj
 0001:00040ca0       ?GetDateTime@DateTimeBehavior@CAMSEdit@@QBE?AVCTime@@XZ 00441ca0 f   amsEdit.obj
 0001:00040d90       ?GetOleDateTime@DateTimeBehavior@CAMSEdit@@QBE?AVCOleDateTime@@XZ 00441d90 f   amsEdit.obj
 0001:00040e90       ?IsValid@DateTimeBehavior@CAMSEdit@@UBE_NXZ 00441e90 f   amsEdit.obj
 0001:00040ee0       ?SetRange@DateTimeBehavior@CAMSEdit@@QAEXABVCTime@@0@Z 00441ee0 f   amsEdit.obj
 0001:00040f10       ?SetRange@DateTimeBehavior@CAMSEdit@@QAEXABVCOleDateTime@@0@Z 00441f10 f   amsEdit.obj
 0001:00040f40       ?GetRange@DateTimeBehavior@CAMSEdit@@QBEXPAVCTime@@0@Z 00441f40 f   amsEdit.obj
 0001:00040f70       ?GetRange@DateTimeBehavior@CAMSEdit@@QBEXPAVCOleDateTime@@0@Z 00441f70 f   amsEdit.obj
 0001:00040fa0       ?IsWithinRange@DateTimeBehavior@CAMSEdit@@MBE_NABVCOleDateTime@@_N@Z 00441fa0 f   amsEdit.obj
 0001:00041110       ?SetSeparator@DateTimeBehavior@CAMSEdit@@QAEXD_N@Z 00442110 f   amsEdit.obj
 0001:00041140       ?GetSeparator@DateTimeBehavior@CAMSEdit@@QBED_N@Z 00442140 f   amsEdit.obj
 0001:00041160       ?ModifyFlags@DateTimeBehavior@CAMSEdit@@QAE_NII@Z 00442160 f   amsEdit.obj
 0001:000411b0       ?_GetValidText@DateTimeBehavior@CAMSEdit@@MBE?AVCString@@XZ 004421b0 f   amsEdit.obj
 0001:000412f0       ?OnKeyDown@CWnd@@IAEXIII@Z 004422f0 f i amsEdit.obj
 0001:00041300       ?_OnChar@DateTimeBehavior@CAMSEdit@@MAEXIII@Z 00442300 f   amsEdit.obj
 0001:00041550       ?_OnKeyDown@DateTimeBehavior@CAMSEdit@@MAEXIII@Z 00442550 f   amsEdit.obj
 0001:000415d0       ?_OnKillFocus@DateTimeBehavior@CAMSEdit@@MAEXPAVCWnd@@@Z 004425d0 f   amsEdit.obj
 0001:000415e0       ?ShowErrorMessage@DateTimeBehavior@CAMSEdit@@MBEXXZ 004425e0 f   amsEdit.obj
 0001:000418b0       ??0CAMSAlphanumericEdit@@QAE@HABVCString@@@Z 004428b0 f   amsEdit.obj
 0001:00041920       ??_GCAMSAlphanumericEdit@@UAEPAXI@Z 00442920 f i amsEdit.obj
 0001:00041920       ??_ECAMSAlphanumericEdit@@UAEPAXI@Z 00442920 f i amsEdit.obj
 0001:00041940       ?_GetBaseMessageMap@CAMSAlphanumericEdit@@KGPBUAFX_MSGMAP@@XZ 00442940 f   amsEdit.obj
 0001:00041950       ?GetMessageMap@CAMSAlphanumericEdit@@MBEPBUAFX_MSGMAP@@XZ 00442950 f   amsEdit.obj
 0001:00041960       ?GetValidText@CAMSAlphanumericEdit@@MBE?AVCString@@XZ 00442960 f   amsEdit.obj
 0001:00041980       ?OnChar@CAMSAlphanumericEdit@@IAEXIII@Z 00442980 f   amsEdit.obj
 0001:000419a0       ??0CAMSMaskedEdit@@QAE@ABVCString@@@Z 004429a0 f   amsEdit.obj
 0001:00041a00       ??_GCAMSMaskedEdit@@UAEPAXI@Z 00442a00 f i amsEdit.obj
 0001:00041a00       ??_ECAMSMaskedEdit@@UAEPAXI@Z 00442a00 f i amsEdit.obj
 0001:00041a20       ??1CAMSMaskedEdit@@UAE@XZ  00442a20 f i amsEdit.obj
 0001:00041ae0       ?_GetBaseMessageMap@CAMSMaskedEdit@@KGPBUAFX_MSGMAP@@XZ 00442ae0 f   amsEdit.obj
 0001:00041af0       ?GetMessageMap@CAMSMaskedEdit@@MBEPBUAFX_MSGMAP@@XZ 00442af0 f   amsEdit.obj
 0001:00041b00       ?GetValidText@CAMSMaskedEdit@@MBE?AVCString@@XZ 00442b00 f   amsEdit.obj
 0001:00041b20       ?OnChar@CAMSMaskedEdit@@IAEXIII@Z 00442b20 f   amsEdit.obj
 0001:00041b40       ?OnKeyDown@CAMSMaskedEdit@@IAEXIII@Z 00442b40 f   amsEdit.obj
 0001:00041b60       ??0CAMSNumericEdit@@QAE@HH@Z 00442b60 f   amsEdit.obj
 0001:00041bd0       ??_ECAMSNumericEdit@@UAEPAXI@Z 00442bd0 f i amsEdit.obj
 0001:00041bd0       ??_GCAMSNumericEdit@@UAEPAXI@Z 00442bd0 f i amsEdit.obj
 0001:00041bf0       ??1CAMSNumericEdit@@UAE@XZ 00442bf0 f i amsEdit.obj
 0001:00041c60       ?_GetBaseMessageMap@CAMSNumericEdit@@KGPBUAFX_MSGMAP@@XZ 00442c60 f   amsEdit.obj
 0001:00041c70       ?GetMessageMap@CAMSNumericEdit@@MBEPBUAFX_MSGMAP@@XZ 00442c70 f   amsEdit.obj
 0001:00041c80       ?GetValidText@CAMSNumericEdit@@MBE?AVCString@@XZ 00442c80 f   amsEdit.obj
 0001:00041ca0       ?OnChar@CAMSNumericEdit@@IAEXIII@Z 00442ca0 f   amsEdit.obj
 0001:00041cc0       ?OnKeyDown@CAMSNumericEdit@@IAEXIII@Z 00442cc0 f   amsEdit.obj
 0001:00041ce0       ?OnKillFocus@CAMSNumericEdit@@IAEXPAVCWnd@@@Z 00442ce0 f   amsEdit.obj
 0001:00041d00       ??0CAMSIntegerEdit@@QAE@H@Z 00442d00 f   amsEdit.obj
 0001:00041d30       ??_GCAMSIntegerEdit@@UAEPAXI@Z 00442d30 f i amsEdit.obj
 0001:00041d30       ??_ECAMSIntegerEdit@@UAEPAXI@Z 00442d30 f i amsEdit.obj
 0001:00041d50       ??1CAMSIntegerEdit@@UAE@XZ 00442d50 f i amsEdit.obj
 0001:00041dc0       ?_GetBaseMessageMap@CAMSIntegerEdit@@KGPBUAFX_MSGMAP@@XZ 00442dc0 f   amsEdit.obj
 0001:00041dd0       ?GetMessageMap@CAMSIntegerEdit@@MBEPBUAFX_MSGMAP@@XZ 00442dd0 f   amsEdit.obj
 0001:00041de0       ??0CAMSCurrencyEdit@@QAE@XZ 00442de0 f   amsEdit.obj
 0001:00041f90       ??_GCAMSCurrencyEdit@@UAEPAXI@Z 00442f90 f i amsEdit.obj
 0001:00041f90       ??_ECAMSCurrencyEdit@@UAEPAXI@Z 00442f90 f i amsEdit.obj
 0001:00041fb0       ??1CAMSCurrencyEdit@@UAE@XZ 00442fb0 f i amsEdit.obj
 0001:00042020       ?_GetBaseMessageMap@CAMSCurrencyEdit@@KGPBUAFX_MSGMAP@@XZ 00443020 f   amsEdit.obj
 0001:00042030       ?GetMessageMap@CAMSCurrencyEdit@@MBEPBUAFX_MSGMAP@@XZ 00443030 f   amsEdit.obj
 0001:00042040       ??0CAMSDateEdit@@QAE@XZ    00443040 f   amsEdit.obj
 0001:000420f0       ??_GCAMSDateEdit@@UAEPAXI@Z 004430f0 f i amsEdit.obj
 0001:000420f0       ??_ECAMSDateEdit@@UAEPAXI@Z 004430f0 f i amsEdit.obj
 0001:00042120       ?_GetBaseMessageMap@CAMSDateEdit@@KGPBUAFX_MSGMAP@@XZ 00443120 f   amsEdit.obj
 0001:00042130       ?GetMessageMap@CAMSDateEdit@@MBEPBUAFX_MSGMAP@@XZ 00443130 f   amsEdit.obj
 0001:00042280       ?GetValidText@CAMSDateEdit@@MBE?AVCString@@XZ 00443280 f   amsEdit.obj
 0001:000422b0       ?OnChar@CAMSDateEdit@@IAEXIII@Z 004432b0 f   amsEdit.obj
 0001:000422e0       ?OnKeyDown@CAMSDateEdit@@IAEXIII@Z 004432e0 f   amsEdit.obj
 0001:00042310       ?OnKillFocus@CAMSDateEdit@@IAEXPAVCWnd@@@Z 00443310 f   amsEdit.obj
 0001:00042330       ?OnPaste@CAMSDateEdit@@IAEJIJ@Z 00443330 f   amsEdit.obj
 0001:00042350       ??0CAMSTimeEdit@@QAE@XZ    00443350 f   amsEdit.obj
 0001:00042400       ??_ECAMSTimeEdit@@UAEPAXI@Z 00443400 f i amsEdit.obj
 0001:00042400       ??_GCAMSTimeEdit@@UAEPAXI@Z 00443400 f i amsEdit.obj
 0001:00042430       ??1CAMSTimeEdit@@UAE@XZ    00443430 f i amsEdit.obj
 0001:000424b0       ?_GetBaseMessageMap@CAMSTimeEdit@@KGPBUAFX_MSGMAP@@XZ 004434b0 f   amsEdit.obj
 0001:000424c0       ?GetMessageMap@CAMSTimeEdit@@MBEPBUAFX_MSGMAP@@XZ 004434c0 f   amsEdit.obj
 0001:00042610       ?GetValidText@CAMSTimeEdit@@MBE?AVCString@@XZ 00443610 f   amsEdit.obj
 0001:00042640       ?OnChar@CAMSTimeEdit@@IAEXIII@Z 00443640 f   amsEdit.obj
 0001:00042670       ?OnKeyDown@CAMSTimeEdit@@IAEXIII@Z 00443670 f   amsEdit.obj
 0001:000426a0       ?OnKillFocus@CAMSTimeEdit@@IAEXPAVCWnd@@@Z 004436a0 f   amsEdit.obj
 0001:000426c0       ?OnPaste@CAMSTimeEdit@@IAEJIJ@Z 004436c0 f   amsEdit.obj
 0001:000426e0       ??0CAMSDateTimeEdit@@QAE@XZ 004436e0 f   amsEdit.obj
 0001:000427a0       ??_GCAMSDateTimeEdit@@UAEPAXI@Z 004437a0 f i amsEdit.obj
 0001:000427a0       ??_ECAMSDateTimeEdit@@UAEPAXI@Z 004437a0 f i amsEdit.obj
 0001:000427d0       ??1CAMSDateTimeEdit@@UAE@XZ 004437d0 f i amsEdit.obj
 0001:00042860       ?_GetBaseMessageMap@CAMSDateTimeEdit@@KGPBUAFX_MSGMAP@@XZ 00443860 f   amsEdit.obj
 0001:00042870       ?GetMessageMap@CAMSDateTimeEdit@@MBEPBUAFX_MSGMAP@@XZ 00443870 f   amsEdit.obj
 0001:000429c0       ?GetValidText@CAMSDateTimeEdit@@MBE?AVCString@@XZ 004439c0 f   amsEdit.obj
 0001:000429f0       ?OnChar@CAMSDateTimeEdit@@IAEXIII@Z 004439f0 f   amsEdit.obj
 0001:00042a20       ?OnKeyDown@CAMSDateTimeEdit@@IAEXIII@Z 00443a20 f   amsEdit.obj
 0001:00042a50       ?OnKillFocus@CAMSDateTimeEdit@@IAEXPAVCWnd@@@Z 00443a50 f   amsEdit.obj
 0001:00042a70       ?OnPaste@CAMSDateTimeEdit@@IAEJIJ@Z 00443a70 f   amsEdit.obj
 0001:00042a90       ??0CAMSMultiMaskedEdit@@QAE@XZ 00443a90 f   amsEdit.obj
 0001:00042c00       ??_GCAMSMultiMaskedEdit@@UAEPAXI@Z 00443c00 f i amsEdit.obj
 0001:00042c00       ??_ECAMSMultiMaskedEdit@@UAEPAXI@Z 00443c00 f i amsEdit.obj
 0001:00042c30       ??1CAMSMultiMaskedEdit@@UAE@XZ 00443c30 f i amsEdit.obj
 0001:00042d70       ?GetMask@CAMSMultiMaskedEdit@@QBEABVCString@@XZ 00443d70 f   amsEdit.obj
 0001:00042d80       ?SetMask@CAMSMultiMaskedEdit@@QAEXABVCString@@@Z 00443d80 f   amsEdit.obj
 0001:00043000       ?GetValidText@CAMSMultiMaskedEdit@@MBE?AVCString@@XZ 00444000 f   amsEdit.obj
 0001:00043030       ?_GetBaseMessageMap@CAMSMultiMaskedEdit@@KGPBUAFX_MSGMAP@@XZ 00444030 f   amsEdit.obj
 0001:00043040       ?GetMessageMap@CAMSMultiMaskedEdit@@MBEPBUAFX_MSGMAP@@XZ 00444040 f   amsEdit.obj
 0001:00043190       ?OnChar@CAMSMultiMaskedEdit@@IAEXIII@Z 00444190 f   amsEdit.obj
 0001:000431b0       ?OnKeyDown@CAMSMultiMaskedEdit@@IAEXIII@Z 004441b0 f   amsEdit.obj
 0001:000431d0       ?OnKillFocus@CAMSMultiMaskedEdit@@IAEXPAVCWnd@@@Z 004441d0 f   amsEdit.obj
 0001:000431f0       ?OnPaste@CAMSMultiMaskedEdit@@IAEJIJ@Z 004441f0 f   amsEdit.obj
 0001:00043210       ??A?$CArray@VSymbol@MaskedBehavior@CAMSEdit@@ABV123@@@QBE?AVSymbol@MaskedBehavior@CAMSEdit@@H@Z 00444210 f i amsEdit.obj
 0001:00043230       ??1?$CArray@VSymbol@MaskedBehavior@CAMSEdit@@ABV123@@@UAE@XZ 00444230 f i amsEdit.obj
 0001:000432b0       ?Serialize@?$CArray@VSymbol@MaskedBehavior@CAMSEdit@@ABV123@@@UAEXAAVCArchive@@@Z 004442b0 f i amsEdit.obj
 0001:00043480       ??_G?$CArray@VSymbol@MaskedBehavior@CAMSEdit@@ABV123@@@UAEPAXI@Z 00444480 f i amsEdit.obj
 0001:00043480       ??_E?$CArray@VSymbol@MaskedBehavior@CAMSEdit@@ABV123@@@UAEPAXI@Z 00444480 f i amsEdit.obj
 0001:000434a0       ?GetAt@?$CArray@VSymbol@MaskedBehavior@CAMSEdit@@ABV123@@@QBE?AVSymbol@MaskedBehavior@CAMSEdit@@H@Z 004444a0 f i amsEdit.obj
 0001:000434e0       ?DestructElements@@YGXPAVSymbol@MaskedBehavior@CAMSEdit@@H@Z 004444e0 f i amsEdit.obj
 0001:00043510       ?ConstructElements@@YGXPAVSymbol@MaskedBehavior@CAMSEdit@@H@Z 00444510 f i amsEdit.obj
 0001:00043560       ?IsValid@DateTimeBehavior@CAMSEdit@@WCE@BE_NXZ 00444560 f i amsEdit.obj
 0001:00043570       ?IsWithinRange@DateTimeBehavior@CAMSEdit@@OCE@BE_NABVCOleDateTime@@_N@Z 00444570 f i amsEdit.obj
 0001:00043580       ?ShowErrorMessage@DateTimeBehavior@CAMSEdit@@OCE@BEXXZ 00444580 f i amsEdit.obj
 0001:00043590       ??_EDateTimeBehavior@CAMSEdit@@$4PPPPPPPM@A@AEPAXI@Z 00444590 f i amsEdit.obj
 0001:000435a0       ??_GDateTimeBehavior@CAMSEdit@@UAEPAXI@Z 004445a0 f i amsEdit.obj
 0001:000435a0       ??_EDateTimeBehavior@CAMSEdit@@UAEPAXI@Z 004445a0 f i amsEdit.obj
 0001:000435d0       ??1DateTimeBehavior@CAMSEdit@@UAE@XZ 004445d0 f i amsEdit.obj
 0001:00043640       ?_GetValidText@DateTimeBehavior@CAMSEdit@@$2PPPPPPPM@A@BE?AVCString@@XZ 00444640 f i amsEdit.obj
 0001:00043650       ?_OnChar@DateTimeBehavior@CAMSEdit@@$2PPPPPPPM@A@AEXIII@Z 00444650 f i amsEdit.obj
 0001:00043660       ?_OnKeyDown@DateTimeBehavior@CAMSEdit@@$2PPPPPPPM@A@AEXIII@Z 00444660 f i amsEdit.obj
 0001:00043670       ?_OnKillFocus@DateTimeBehavior@CAMSEdit@@$2PPPPPPPM@A@AEXPAVCWnd@@@Z 00444670 f i amsEdit.obj
 0001:00043680       ??_ECAMSIntegerEdit@@WFA@AEPAXI@Z 00444680 f i amsEdit.obj
 0001:00043690       ??_ECAMSDateTimeEdit@@$4PPPPPPPM@KM@AEPAXI@Z 00444690 f i amsEdit.obj
 0001:000436a0       ??_ECAMSCurrencyEdit@@WFA@AEPAXI@Z 004446a0 f i amsEdit.obj
 0001:000436b0       ??_ETimeBehavior@CAMSEdit@@$4PPPPPPPM@A@AEPAXI@Z 004446b0 f i amsEdit.obj
 0001:000436c0       ??_ETimeBehavior@CAMSEdit@@UAEPAXI@Z 004446c0 f i amsEdit.obj
 0001:000436c0       ??_GTimeBehavior@CAMSEdit@@UAEPAXI@Z 004446c0 f i amsEdit.obj
 0001:000436f0       ??1TimeBehavior@CAMSEdit@@UAE@XZ 004446f0 f i amsEdit.obj
 0001:00043740       ?_GetValidText@TimeBehavior@CAMSEdit@@$2PPPPPPPM@A@BE?AVCString@@XZ 00444740 f i amsEdit.obj
 0001:00043750       ?_OnChar@TimeBehavior@CAMSEdit@@$2PPPPPPPM@A@AEXIII@Z 00444750 f i amsEdit.obj
 0001:00043760       ?_OnKeyDown@TimeBehavior@CAMSEdit@@$2PPPPPPPM@A@AEXIII@Z 00444760 f i amsEdit.obj
 0001:00043770       ?_OnKillFocus@TimeBehavior@CAMSEdit@@$2PPPPPPPM@A@AEXPAVCWnd@@@Z 00444770 f i amsEdit.obj
 0001:00043780       ??_ECAMSDateEdit@@$4PPPPPPPM@HI@AEPAXI@Z 00444780 f i amsEdit.obj
 0001:00043790       ?_GetValidText@DateBehavior@CAMSEdit@@$2PPPPPPPM@A@BE?AVCString@@XZ 00444790 f i amsEdit.obj
 0001:000437a0       ?_OnChar@DateBehavior@CAMSEdit@@$2PPPPPPPM@A@AEXIII@Z 004447a0 f i amsEdit.obj
 0001:000437b0       ?_OnKeyDown@DateBehavior@CAMSEdit@@$2PPPPPPPM@A@AEXIII@Z 004447b0 f i amsEdit.obj
 0001:000437c0       ?_OnKillFocus@DateBehavior@CAMSEdit@@$2PPPPPPPM@A@AEXPAVCWnd@@@Z 004447c0 f i amsEdit.obj
 0001:000437d0       ??_ECAMSMultiMaskedEdit@@WFA@AEPAXI@Z 004447d0 f i amsEdit.obj
 0001:000437e0       ??_ECAMSMultiMaskedEdit@@WGI@AEPAXI@Z 004447e0 f i amsEdit.obj
 0001:000437f0       ??_ECAMSMultiMaskedEdit@@WKA@AEPAXI@Z 004447f0 f i amsEdit.obj
 0001:00043800       ??_ECAMSMultiMaskedEdit@@$4PPPPPPPM@BCE@AEPAXI@Z 00444800 f i amsEdit.obj
 0001:00043810       ?_GetValidText@DateTimeBehavior@CAMSEdit@@$2PPPPPPPM@3BE?AVCString@@XZ 00444810 f i amsEdit.obj
 0001:00043820       ?_OnChar@DateTimeBehavior@CAMSEdit@@$2PPPPPPPM@3AEXIII@Z 00444820 f i amsEdit.obj
 0001:00043830       ?_OnKeyDown@DateTimeBehavior@CAMSEdit@@$2PPPPPPPM@3AEXIII@Z 00444830 f i amsEdit.obj
 0001:00043840       ?_OnKillFocus@DateTimeBehavior@CAMSEdit@@$2PPPPPPPM@3AEXPAVCWnd@@@Z 00444840 f i amsEdit.obj
 0001:00043850       ??_ECAMSAlphanumericEdit@@WFA@AEPAXI@Z 00444850 f i amsEdit.obj
 0001:00043860       ??_ECAMSTimeEdit@@$4PPPPPPPM@II@AEPAXI@Z 00444860 f i amsEdit.obj
 0001:00043870       ??_ECAMSMaskedEdit@@WFA@AEPAXI@Z 00444870 f i amsEdit.obj
 0001:00043880       ??_EDateBehavior@CAMSEdit@@$4PPPPPPPM@A@AEPAXI@Z 00444880 f i amsEdit.obj
 0001:00043890       ??_GDateBehavior@CAMSEdit@@UAEPAXI@Z 00444890 f i amsEdit.obj
 0001:00043890       ??_EDateBehavior@CAMSEdit@@UAEPAXI@Z 00444890 f i amsEdit.obj
 0001:000438c0       ??_ECAMSNumericEdit@@WFA@AEPAXI@Z 004448c0 f i amsEdit.obj
 0001:000438d0       ??3@YAXPAX0@Z              004448d0 f i amsEdit.obj
 0001:000438e0       ?_GetBaseClass@CCheckableGroupBox@@KGPAUCRuntimeClass@@XZ 004448e0 f   CheckableGroupBox.obj
 0001:000438f0       ?GetRuntimeClass@CCheckableGroupBox@@UBEPAUCRuntimeClass@@XZ 004448f0 f   CheckableGroupBox.obj
 0001:00043900       ??0CCheckableGroupBox@@QAE@XZ 00444900 f   CheckableGroupBox.obj
 0001:00043960       ??_GCCheckableGroupBox@@UAEPAXI@Z 00444960 f i CheckableGroupBox.obj
 0001:00043960       ??_ECCheckableGroupBox@@UAEPAXI@Z 00444960 f i CheckableGroupBox.obj
 0001:00043980       ??1CCheckableGroupBox@@UAE@XZ 00444980 f   CheckableGroupBox.obj
 0001:000439e0       ?_GetBaseMessageMap@CCheckableGroupBox@@KGPBUAFX_MSGMAP@@XZ 004449e0 f   CheckableGroupBox.obj
 0001:000439f0       ?GetMessageMap@CCheckableGroupBox@@MBEPBUAFX_MSGMAP@@XZ 004449f0 f   CheckableGroupBox.obj
 0001:00043a00       ?SetTitleStyle@CCheckableGroupBox@@QAEXI@Z 00444a00 f   CheckableGroupBox.obj
 0001:00043b70       ?OnClicked@CCheckableGroupBox@@IAEXXZ 00444b70 f   CheckableGroupBox.obj
 0001:00043c30       ?CheckGroupboxControls@CCheckableGroupBox@@IAEXXZ 00444c30 f   CheckableGroupBox.obj
 0001:00043df0       ?GetCheck@CCheckableGroupBox@@QBEHXZ 00444df0 f   CheckableGroupBox.obj
 0001:00043e20       ?SetCheck@CCheckableGroupBox@@QAEXH@Z 00444e20 f   CheckableGroupBox.obj
 0001:00043e60       ?SetGroupID@CCheckableGroupBox@@QAEXI@Z 00444e60 f   CheckableGroupBox.obj
 0001:00043e70       ?GetGroupID@CCheckableGroupBox@@QBEIXZ 00444e70 f   CheckableGroupBox.obj
 0001:00043e80       ?OnEnable@CCheckableGroupBox@@IAEXH@Z 00444e80 f   CheckableGroupBox.obj
 0001:00043ea0       ?OnSetFocus@CCheckableGroupBox@@IAEXPAVCWnd@@@Z 00444ea0 f   CheckableGroupBox.obj
 0001:00043eb0       ?OnGetCheck@CCheckableGroupBox@@IAEJIJ@Z 00444eb0 f   CheckableGroupBox.obj
 0001:00043ec0       ?OnSetCheck@CCheckableGroupBox@@IAEJIJ@Z 00444ec0 f   CheckableGroupBox.obj
 0001:00043ed0       ??1?$list@PAVCCheckableGroupBox@@V?$allocator@PAVCCheckableGroupBox@@@std@@@std@@QAE@XZ 00444ed0 f i CheckableGroupBox.obj
 0001:00043f20       ?insert@?$list@PAVCCheckableGroupBox@@V?$allocator@PAVCCheckableGroupBox@@@std@@@std@@QAE?AViterator@12@V312@ABQAVCCheckableGroupBox@@@Z 00444f20 f i CheckableGroupBox.obj
 0001:00043f80       ?_Buynode@?$list@PAVCCheckableGroupBox@@V?$allocator@PAVCCheckableGroupBox@@@std@@@std@@IAEPAU_Node@12@PAU312@0@Z 00444f80 f i CheckableGroupBox.obj
 0001:00043fb0       ??0CColorEdit@@QAE@XZ      00444fb0 f   ColorEdit.obj
 0001:00044030       ??_GCColorEdit@@UAEPAXI@Z  00445030 f i ColorEdit.obj
 0001:00044030       ??_ECColorEdit@@UAEPAXI@Z  00445030 f i ColorEdit.obj
 0001:00044050       ??1CColorEdit@@UAE@XZ      00445050 f   ColorEdit.obj
 0001:000440c0       ?_GetBaseMessageMap@CColorEdit@@KGPBUAFX_MSGMAP@@XZ 004450c0 f   ColorEdit.obj
 0001:000440d0       ?GetMessageMap@CColorEdit@@MBEPBUAFX_MSGMAP@@XZ 004450d0 f   ColorEdit.obj
 0001:000440e0       ?SetTextColor@CColorEdit@@QAEXK@Z 004450e0 f   ColorEdit.obj
 0001:00044100       ?SetBkColor@CColorEdit@@QAEXK@Z 00445100 f   ColorEdit.obj
 0001:00044140       ?CtlColor@CColorEdit@@IAEPAUHBRUSH__@@PAVCDC@@I@Z 00445140 f   ColorEdit.obj
 0001:00044180       ?SetReadOnly@CColorEdit@@QAEHH@Z 00445180 f   ColorEdit.obj
 0001:000441c0       ??0CColorStatic@@QAE@XZ    004451c0 f   ColorStatic.obj
 0001:00044240       ??_GCColorStatic@@UAEPAXI@Z 00445240 f i ColorStatic.obj
 0001:00044240       ??_ECColorStatic@@UAEPAXI@Z 00445240 f i ColorStatic.obj
 0001:00044260       ??1CColorStatic@@UAE@XZ    00445260 f   ColorStatic.obj
 0001:000442d0       ?_GetBaseMessageMap@CColorStatic@@KGPBUAFX_MSGMAP@@XZ 004452d0 f   ColorStatic.obj
 0001:000442e0       ?GetMessageMap@CColorStatic@@MBEPBUAFX_MSGMAP@@XZ 004452e0 f   ColorStatic.obj
 0001:000442f0       ?CtlColor@CColorStatic@@IAEPAUHBRUSH__@@PAVCDC@@I@Z 004452f0 f   ColorStatic.obj
 0001:00044330       ?SetBkColor@CColorStatic@@QAEXK@Z 00445330 f   ColorStatic.obj
 0001:00044370       ?SetTextColor@CColorStatic@@QAEXK@Z 00445370 f   ColorStatic.obj
 0001:00044390       ??0CComboListCtrl@@QAE@XZ  00445390 f   ComboListCtrl.obj
 0001:00044490       ??_ECComboListCtrl@@UAEPAXI@Z 00445490 f i ComboListCtrl.obj
 0001:00044490       ??_GCComboListCtrl@@UAEPAXI@Z 00445490 f i ComboListCtrl.obj
 0001:000444b0       ??1CComboListCtrl@@UAE@XZ  004454b0 f   ComboListCtrl.obj
 0001:000445a0       ?_GetBaseMessageMap@CComboListCtrl@@KGPBUAFX_MSGMAP@@XZ 004455a0 f   ComboListCtrl.obj
 0001:000445b0       ?GetMessageMap@CComboListCtrl@@MBEPBUAFX_MSGMAP@@XZ 004455b0 f   ComboListCtrl.obj
 0001:000445c0       ?ShowInPlaceList@CComboListCtrl@@AAEPAVCInPlaceCombo@@HHAAVCStringList@@VCString@@H@Z 004455c0 f   ComboListCtrl.obj
 0001:00044700       ?ShowInPlaceEdit@CComboListCtrl@@AAEPAVCInPlaceEdit@@HHAAVCString@@@Z 00445700 f   ComboListCtrl.obj
 0001:00044770       ?OnHScroll@CComboListCtrl@@IAEXIIPAVCScrollBar@@@Z 00445770 f   ComboListCtrl.obj
 0001:000447b0       ?OnVScroll@CComboListCtrl@@IAEXIIPAVCScrollBar@@@Z 004457b0 f   ComboListCtrl.obj
 0001:000447f0       ?OnLButtonDown@CComboListCtrl@@IAEXIVCPoint@@@Z 004457f0 f   ComboListCtrl.obj
 0001:000449a0       ?HitTestEx@CComboListCtrl@@ABE_NAAVCPoint@@PAH1@Z 004459a0 f   ComboListCtrl.obj
 0001:00044aa0       ?SetComboColumns@CComboListCtrl@@QAEXH_N@Z 00445aa0 f   ComboListCtrl.obj
 0001:00044bb0       ?SetReadOnlyColumns@CComboListCtrl@@QAEXH_N@Z 00445bb0 f   ComboListCtrl.obj
 0001:00044cc0       ?IsReadOnly@CComboListCtrl@@AAE_NH@Z 00445cc0 f   ComboListCtrl.obj
 0001:00044cf0       ?IsCombo@CComboListCtrl@@AAE_NH@Z 00445cf0 f   ComboListCtrl.obj
 0001:00044d20       ?CalculateCellRect@CComboListCtrl@@AAEXHHAAVCRect@@@Z 00445d20 f   ComboListCtrl.obj
 0001:00044d70       ?OnEndLabelEdit@CComboListCtrl@@IAEXPAUtagNMHDR@@PAJ@Z 00445d70 f   ComboListCtrl.obj
 0001:00044dd0       ?SetValidEditCtrlCharacters@CComboListCtrl@@QAEXAAVCString@@@Z 00445dd0 f   ComboListCtrl.obj
 0001:00044de0       ?EnableHScroll@CComboListCtrl@@QAEX_N@Z 00445de0 f   ComboListCtrl.obj
 0001:00044e10       ?EnableVScroll@CComboListCtrl@@QAEX_N@Z 00445e10 f   ComboListCtrl.obj
 0001:00044e40       ?ScrollToView@CComboListCtrl@@AAEXHAAVCRect@@@Z 00445e40 f   ComboListCtrl.obj
 0001:00044f00       ?OnBeginLabelEdit@CComboListCtrl@@IAEXPAUtagNMHDR@@PAJ@Z 00445f00 f   ComboListCtrl.obj
 0001:00044f20       ??1?$CList@HH@@UAE@XZ      00445f20 f i ComboListCtrl.obj
 0001:00044f90       ?Serialize@?$CList@HH@@UAEXAAVCArchive@@@Z 00445f90 f i ComboListCtrl.obj
 0001:000450b0       ??_E?$CList@HH@@UAEPAXI@Z  004460b0 f i ComboListCtrl.obj
 0001:000450b0       ??_G?$CList@HH@@UAEPAXI@Z  004460b0 f i ComboListCtrl.obj
 0001:000450d0       ??_ECListCtrl@@UAEPAXI@Z   004460d0 f i ComboListCtrl.obj
 0001:000450d0       ??_GCListCtrl@@UAEPAXI@Z   004460d0 f i ComboListCtrl.obj
 0001:000450f0       ??0CCoolBtn@@QAE@XZ        004460f0 f   CoolBtn.obj
 0001:000451a0       ??_GCCoolBtn@@UAEPAXI@Z    004461a0 f i CoolBtn.obj
 0001:000451a0       ??_ECCoolBtn@@UAEPAXI@Z    004461a0 f i CoolBtn.obj
 0001:000451c0       ??1CCoolBtn@@UAE@XZ        004461c0 f   CoolBtn.obj
 0001:00045260       ?_GetBaseMessageMap@CCoolBtn@@KGPBUAFX_MSGMAP@@XZ 00446260 f   CoolBtn.obj
 0001:00045270       ?GetMessageMap@CCoolBtn@@MBEPBUAFX_MSGMAP@@XZ 00446270 f   CoolBtn.obj
 0001:00045280       ?Create@CCoolBtn@@QAEHPBDKABUtagRECT@@PAVCWnd@@I@Z 00446280 f   CoolBtn.obj
 0001:000452b0       ?DrawItem@CCoolBtn@@UAEXPAUtagDRAWITEMSTRUCT@@@Z 004462b0 f   CoolBtn.obj
 0001:00045990       ?OnMouseHover@CCoolBtn@@IAEJIJ@Z 00446990 f   CoolBtn.obj
 0001:000459b0       ?OnMouseLeave@CCoolBtn@@IAEJIJ@Z 004469b0 f   CoolBtn.obj
 0001:000459d0       ?DrawArrow@CCoolBtn@@IAEXPAVCDC@@VCPoint@@@Z 004469d0 f   CoolBtn.obj
 0001:00045a90       ?OnLButtonDown@CCoolBtn@@IAEXIVCPoint@@@Z 00446a90 f   CoolBtn.obj
 0001:00045b50       ?OnLButtonUp@CCoolBtn@@IAEXIVCPoint@@@Z 00446b50 f   CoolBtn.obj
 0001:00045bb0       ?OnMouseMove@CCoolBtn@@IAEXIVCPoint@@@Z 00446bb0 f   CoolBtn.obj
 0001:00045c50       ?SetButtonImage@CCoolBtn@@QAEHIK@Z 00446c50 f   CoolBtn.obj
 0001:00045d00       ?OnSetFocus@CCoolBtn@@IAEXPAVCWnd@@@Z 00446d00 f   CoolBtn.obj
 0001:00045d20       ?OnKillFocus@CCoolBtn@@IAEXPAVCWnd@@@Z 00446d20 f   CoolBtn.obj
 0001:00045d30       ?OnSysColorChange@CCoolBtn@@IAEXXZ 00446d30 f   CoolBtn.obj
 0001:00045d50       ?HitMenuBtn@CCoolBtn@@IAEHVCPoint@@@Z 00446d50 f   CoolBtn.obj
 0001:00045db0       ?AddMenuItem@CCoolBtn@@QAEHIVCString@@I@Z 00446db0 f   CoolBtn.obj
 0001:00045df0       ?PreSubclassWindow@CCoolBtn@@UAEXXZ 00446df0 f   CoolBtn.obj
 0001:00045e10       ?RemoveMenuItem@CCoolBtn@@QAEHIVCString@@I@Z 00446e10 f   CoolBtn.obj
 0001:00045e50       ?EnableMenuItem@CCoolBtn@@QAEHIVCString@@H@Z 00446e50 f   CoolBtn.obj
 0001:00045e90       ?AddImage@CCoolBtn@@QAEXHAAVCBitmap@@0@Z 00446e90 f   CoolBtn.obj
 0001:00045ea0       ?ChangeMenuFlags@CCoolBtn@@QAEXII@Z 00446ea0 f   CoolBtn.obj
 0001:00045ec0       ?SetDefaultButton@CCoolBtn@@QAEXH@Z 00446ec0 f   CoolBtn.obj
 0001:00045ed0       ??1CPen@@UAE@XZ            00446ed0 f i CoolBtn.obj
 0001:00045f20       ??_GCBitmap@@UAEPAXI@Z     00446f20 f i CoolBtn.obj
 0001:00045f20       ??_ECBitmap@@UAEPAXI@Z     00446f20 f i CoolBtn.obj
 0001:00045f40       ??1CBitmap@@UAE@XZ         00446f40 f i CoolBtn.obj
 0001:00045f90       ?RGB2HLS@@YAKK@Z           00446f90 f   Draw.obj
 0001:00046170       ?HLS2RGB@@YAKK@Z           00447170 f   Draw.obj
 0001:00046340       ?HLS_TRANSFORM@@YAKKHH@Z   00447340 f   Draw.obj
 0001:00046440       ?GetScreenBitmap@@YGPAUHBITMAP__@@PBUtagRECT@@@Z 00447440 f   Draw.obj
 0001:000464f0       ??0CBufferDC@@QAE@PAUHDC__@@ABVCRect@@@Z 004474f0 f   Draw.obj
 0001:00046600       ??_GCBufferDC@@UAEPAXI@Z   00447600 f i Draw.obj
 0001:00046600       ??_ECBufferDC@@UAEPAXI@Z   00447600 f i Draw.obj
 0001:00046620       ??1CBufferDC@@UAE@XZ       00447620 f   Draw.obj
 0001:000466d0       ??0CPenDC@@QAE@PAUHDC__@@K@Z 004476d0 f   Draw.obj
 0001:00046750       ??1CPenDC@@QAE@XZ          00447750 f   Draw.obj
 0001:000467b0       ?Color@CPenDC@@QAEXK@Z     004477b0 f   Draw.obj
 0001:00046810       ?Color@CPenDC@@QBEKXZ      00447810 f   Draw.obj
 0001:00046830       ??0CBrushDC@@QAE@PAUHDC__@@K@Z 00447830 f   Draw.obj
 0001:000468c0       ??1CBrushDC@@QAE@XZ        004478c0 f   Draw.obj
 0001:00046920       ?Color@CBrushDC@@QAEXK@Z   00447920 f   Draw.obj
 0001:00046990       ?Color@CBrushDC@@QBEKXZ    00447990 f   Draw.obj
 0001:000469b0       ??0CFontDC@@QAE@PAUHDC__@@PBDK@Z 004479b0 f   Draw.obj
 0001:00046a00       ??0CFontDC@@QAE@PAUHDC__@@EK@Z 00447a00 f   Draw.obj
 0001:00046a50       ??0CFontDC@@QAE@PAUHDC__@@PAUHFONT__@@K@Z 00447a50 f   Draw.obj
 0001:00046aa0       ??1CFontDC@@QAE@XZ         00447aa0 f   Draw.obj
 0001:00046ae0       ??4CFontDC@@QAEABV0@PBD@Z  00447ae0 f   Draw.obj
 0001:00046b90       ??4CFontDC@@QAEABV0@E@Z    00447b90 f   Draw.obj
 0001:00046be0       ??4CFontDC@@QAEABV0@PAUHFONT__@@@Z 00447be0 f   Draw.obj
 0001:00046c20       ??4CFontDC@@QAEABV0@K@Z    00447c20 f   Draw.obj
 0001:00046c50       ??BCFontDC@@QAEPBDXZ       00447c50 f   Draw.obj
 0001:00046c80       ??BCFontDC@@QAEKXZ         00447c80 f   Draw.obj
 0001:00046c90       ??0CBoldDC@@QAE@PAUHDC__@@_N@Z 00447c90 f   Draw.obj
 0001:00046d60       ??1CBoldDC@@QAE@XZ         00447d60 f   Draw.obj
 0001:00046dc0       ?Draw@CDrawButton@@UBEXPAVCDC@@K@Z 00447dc0 f   Draw.obj
 0001:000478d0       ?CDrawButton_TimerProcRepeat@@YGXPAUHWND__@@IIK@Z 004488d0 f   Draw.obj
 0001:00047910       ?Click@CDrawButton@@QBEKPAVCWnd@@VCPoint@@I@Z 00448910 f   Draw.obj
 0001:00047d00       ?CDrawButton_TimerProcMouseOver@@YGXPAUHWND__@@IIK@Z 00448d00 f   Draw.obj
 0001:00047d70       ?CheckForMouseOver@CDrawButton@@QAEXPAVCWnd@@VCPoint@@@Z 00448d70 f   Draw.obj
 0001:00047e90       ??_ECPen@@UAEPAXI@Z        00448e90 f i Draw.obj
 0001:00047e90       ??_GCPen@@UAEPAXI@Z        00448e90 f i Draw.obj
 0001:00047eb0       ?PtVisible@CDC@@UBEHHH@Z   00448eb0 f i Draw.obj
 0001:00047ed0       ?RectVisible@CDC@@UBEHPBUtagRECT@@@Z 00448ed0 f i Draw.obj
 0001:00047ef0       ?TextOutA@CDC@@UAEHHHPBDH@Z 00448ef0 f i Draw.obj
 0001:00047f20       ?ExtTextOutA@CDC@@UAEHHHIPBUtagRECT@@PBDIPAH@Z 00448f20 f i Draw.obj
 0001:00047f50       ?TabbedTextOutA@CDC@@UAE?AVCSize@@HHPBDHHPAHH@Z 00448f50 f i Draw.obj
 0001:00047fa0       ?DrawTextA@CDC@@UAEHPBDHPAUtagRECT@@I@Z 00448fa0 f i Draw.obj
 0001:00047fd0       ?GrayStringA@CDC@@UAEHPAVCBrush@@P6GHPAUHDC__@@JH@ZJHHHHH@Z 00448fd0 f i Draw.obj
 0001:00048010       ?Escape@CDC@@UAEHHHPBDPAX@Z 00449010 f i Draw.obj
 0001:00048040       ??0CInPlaceCombo@@AAE@XZ   00449040 f   InPlaceCombo.obj
 0001:000480b0       ??_GCInPlaceCombo@@EAEPAXI@Z 004490b0 f i InPlaceCombo.obj
 0001:000480b0       ??_ECInPlaceCombo@@EAEPAXI@Z 004490b0 f i InPlaceCombo.obj
 0001:000480d0       ??1CInPlaceCombo@@EAE@XZ   004490d0 f   InPlaceCombo.obj
 0001:00048130       ?_GetBaseMessageMap@CInPlaceCombo@@KGPBUAFX_MSGMAP@@XZ 00449130 f   InPlaceCombo.obj
 0001:00048140       ?GetMessageMap@CInPlaceCombo@@MBEPBUAFX_MSGMAP@@XZ 00449140 f   InPlaceCombo.obj
 0001:00048150       ?OnCreate@CInPlaceCombo@@IAEHPAUtagCREATESTRUCTA@@@Z 00449150 f   InPlaceCombo.obj
 0001:000481e0       ?PreTranslateMessage@CInPlaceCombo@@UAEHPAUtagMSG@@@Z 004491e0 f   InPlaceCombo.obj
 0001:00048220       ?OnKillFocus@CInPlaceCombo@@IAEXPAVCWnd@@@Z 00449220 f   InPlaceCombo.obj
 0001:00048350       ?OnChar@CInPlaceCombo@@IAEXIII@Z 00449350 f   InPlaceCombo.obj
 0001:00048390       ?OnCloseup@CInPlaceCombo@@IAEXXZ 00449390 f   InPlaceCombo.obj
 0001:000483b0       ?GetInstance@CInPlaceCombo@@SAPAV1@XZ 004493b0 f   InPlaceCombo.obj
 0001:00048420       ?DeleteInstance@CInPlaceCombo@@SAXXZ 00449420 f   InPlaceCombo.obj
 0001:00048440       ?ShowComboCtrl@CInPlaceCombo@@QAEHKABVCRect@@PAVCWnd@@IHHPAVCStringList@@VCString@@H@Z 00449440 f   InPlaceCombo.obj
 0001:00048530       ??0CInPlaceEdit@@AAE@XZ    00449530 f   InPlaceEdit.obj
 0001:000485b0       ??_GCInPlaceEdit@@EAEPAXI@Z 004495b0 f i InPlaceEdit.obj
 0001:000485b0       ??_ECInPlaceEdit@@EAEPAXI@Z 004495b0 f i InPlaceEdit.obj
 0001:000485d0       ??1CInPlaceEdit@@EAE@XZ    004495d0 f   InPlaceEdit.obj
 0001:00048630       ?_GetBaseMessageMap@CInPlaceEdit@@KGPBUAFX_MSGMAP@@XZ 00449630 f   InPlaceEdit.obj
 0001:00048640       ?GetMessageMap@CInPlaceEdit@@MBEPBUAFX_MSGMAP@@XZ 00449640 f   InPlaceEdit.obj
 0001:00048650       ?OnPaste@CInPlaceEdit@@IAEXIJ@Z 00449650 f   InPlaceEdit.obj
 0001:00048730       ?OnKillFocus@CInPlaceEdit@@IAEXPAVCWnd@@@Z 00449730 f   InPlaceEdit.obj
 0001:00048840       ?OnChar@CInPlaceEdit@@IAEXIII@Z 00449840 f   InPlaceEdit.obj
 0001:00048890       ?PreTranslateMessage@CInPlaceEdit@@UAEHPAUtagMSG@@@Z 00449890 f   InPlaceEdit.obj
 0001:000488e0       ?OnCreate@CInPlaceEdit@@IAEHPAUtagCREATESTRUCTA@@@Z 004498e0 f   InPlaceEdit.obj
 0001:00048970       ?GetInstance@CInPlaceEdit@@SAPAV1@XZ 00449970 f   InPlaceEdit.obj
 0001:000489e0       ?DeleteInstance@CInPlaceEdit@@SAXXZ 004499e0 f   InPlaceEdit.obj
 0001:00048a00       ?ShowEditCtrl@CInPlaceEdit@@QAEHKABUtagRECT@@PAVCWnd@@IHHAAVCString@@2@Z 00449a00 f   InPlaceEdit.obj
 0001:00048a70       ?CreateObject@CInputBox@@SGPAVCObject@@XZ 00449a70 f   InputBox.obj
 0001:00048ad0       ?_GetBaseClass@CInputBox@@KGPAUCRuntimeClass@@XZ 00449ad0 f   InputBox.obj
 0001:00048ae0       ?GetRuntimeClass@CInputBox@@UBEPAUCRuntimeClass@@XZ 00449ae0 f   InputBox.obj
 0001:00048af0       ??0CInputBox@@QAE@PAVCWnd@@@Z 00449af0 f   InputBox.obj
 0001:00048c00       ??_ECInputBox@@UAEPAXI@Z   00449c00 f i InputBox.obj
 0001:00048c00       ??_GCInputBox@@UAEPAXI@Z   00449c00 f i InputBox.obj
 0001:00048c20       ??1CInputBox@@UAE@XZ       00449c20 f   InputBox.obj
 0001:00048d00       ??0CInputBox@@QAE@XZ       00449d00 f   InputBox.obj
 0001:00048e00       ?_GetBaseMessageMap@CInputBox@@KGPBUAFX_MSGMAP@@XZ 00449e00 f   InputBox.obj
 0001:00048e10       ?GetMessageMap@CInputBox@@MBEPBUAFX_MSGMAP@@XZ 00449e10 f   InputBox.obj
 0001:00048e20       ?ShowInputBox@CInputBox@@QAEHVCString@@00@Z 00449e20 f   InputBox.obj
 0001:00048f80       ?OnClose@CInputBox@@QAEXXZ 00449f80 f   InputBox.obj
 0001:00048fb0       ?OnCreate@CInputBox@@QAEHPAUtagCREATESTRUCTA@@@Z 00449fb0 f   InputBox.obj
 0001:00049130       ?OnCancel@CInputBox@@QAEXXZ 0044a130 f   InputBox.obj
 0001:00049170       ?OnOk@CInputBox@@QAEXXZ    0044a170 f   InputBox.obj
 0001:000491b0       ?CloseBox@CInputBox@@QAEXXZ 0044a1b0 f   InputBox.obj
 0001:000491d0       ??0CPlotData@@QAE@VCString@@KHPAV?$vector@Ut_FLOATPOINT@@V?$allocator@Ut_FLOATPOINT@@@std@@@std@@@Z 0044a1d0 f   LinePlot.obj
 0001:000492c0       ??_ECPlotData@@UAEPAXI@Z   0044a2c0 f i LinePlot.obj
 0001:000492c0       ??_GCPlotData@@UAEPAXI@Z   0044a2c0 f i LinePlot.obj
 0001:000492e0       ??0CPlotData@@QAE@VCString@@KHPAUt_FLOATPOINT@@I@Z 0044a2e0 f   LinePlot.obj
 0001:000493d0       ??0CPlotData@@QAE@ABV0@@Z  0044a3d0 f   LinePlot.obj
 0001:000494d0       ??4CPlotData@@QAEAAV0@ABV0@@Z 0044a4d0 f   LinePlot.obj
 0001:000495b0       ?UpdateData@CPlotData@@QAE_NPAUt_FLOATPOINT@@@Z 0044a5b0 f   LinePlot.obj
 0001:00049690       ?UpdateData@CPlotData@@QAE_NPAV?$vector@Ut_FLOATPOINT@@V?$allocator@Ut_FLOATPOINT@@@std@@@std@@@Z 0044a690 f   LinePlot.obj
 0001:000498d0       ??1CPlotData@@UAE@XZ       0044a8d0 f   LinePlot.obj
 0001:00049920       ?Clear@CPlotData@@QAEXXZ   0044a920 f   LinePlot.obj
 0001:00049950       ?_GetBaseMessageMap@CLinePlot@@KGPBUAFX_MSGMAP@@XZ 0044a950 f   LinePlot.obj
 0001:00049960       ?GetMessageMap@CLinePlot@@MBEPBUAFX_MSGMAP@@XZ 0044a960 f   LinePlot.obj
 0001:00049970       ??0CLinePlot@@QAE@XZ       0044a970 f   LinePlot.obj
 0001:00049b40       ??_ECLinePlot@@UAEPAXI@Z   0044ab40 f i LinePlot.obj
 0001:00049b40       ??_GCLinePlot@@UAEPAXI@Z   0044ab40 f i LinePlot.obj
 0001:00049b60       ??1CLinePlot@@UAE@XZ       0044ab60 f   LinePlot.obj
 0001:00049c40       ?Create@CLinePlot@@QAEHABUtagRECT@@IPAVCWnd@@I@Z 0044ac40 f   LinePlot.obj
 0001:00049cc0       ?OnEraseBkgnd@CLinePlot@@IAEHPAVCDC@@@Z 0044acc0 f   LinePlot.obj
 0001:00049cd0       ?DrawPlotData@CLinePlot@@AAEXPAVCDC@@IAAVCRect@@@Z 0044acd0 f   LinePlot.obj
 0001:00049f10       ?DrawFramework@CLinePlot@@AAE?AVCRect@@PAVCDC@@V2@H_N@Z 0044af10 f   LinePlot.obj
 0001:0004b120       ?DrawData@CLinePlot@@AAEXPAVCDC@@VCRect@@_N@Z 0044c120 f   LinePlot.obj
 0001:0004b340       ?OnPaint@CLinePlot@@IAEXXZ 0044c340 f   LinePlot.obj
 0001:0004b6d0       ??1CMemDC@@UAE@XZ          0044c6d0 f i LinePlot.obj
 0001:0004b7b0       ??_GCMemDC@@UAEPAXI@Z      0044c7b0 f i LinePlot.obj
 0001:0004b7b0       ??_ECMemDC@@UAEPAXI@Z      0044c7b0 f i LinePlot.obj
 0001:0004b7d0       ?Print@CLinePlot@@QAEXXZ   0044c7d0 f   LinePlot.obj
 0001:0004b9b0       ??1CPrintDialog@@UAE@XZ    0044c9b0 f i LinePlot.obj
 0001:0004b9c0       ?OnSize@CLinePlot@@IAEXIHH@Z 0044c9c0 f   LinePlot.obj
 0001:0004b9e0       ?Refresh@CLinePlot@@QAEXXZ 0044c9e0 f   LinePlot.obj
 0001:0004ba40       ?Clear@CLinePlot@@QAEXXZ   0044ca40 f   LinePlot.obj
 0001:0004bab0       ??ACLinePlot@@QAEAAVCPlotData@@I@Z 0044cab0 f   LinePlot.obj
 0001:0004bb00       ?Add@CLinePlot@@QAEHVCString@@KW4enumPlotStyle@1@PAUt_FLOATPOINT@@I@Z 0044cb00 f   LinePlot.obj
 0001:0004bcd0       ?Add@CLinePlot@@QAEHVCString@@KW4enumPlotStyle@1@PAV?$vector@Ut_FLOATPOINT@@V?$allocator@Ut_FLOATPOINT@@@std@@@std@@@Z 0044ccd0 f   LinePlot.obj
 0001:0004be90       ?Remove@CLinePlot@@QAE_NH@Z 0044ce90 f   LinePlot.obj
 0001:0004bfc0       ?OnMouseMove@CLinePlot@@IAEXIVCPoint@@@Z 0044cfc0 f   LinePlot.obj
 0001:0004c230       ?OnLButtonDown@CLinePlot@@IAEXIVCPoint@@@Z 0044d230 f   LinePlot.obj
 0001:0004c2d0       ?OnLButtonUp@CLinePlot@@IAEXIVCPoint@@@Z 0044d2d0 f   LinePlot.obj
 0001:0004c7c0       ?EmitSelectionChanged@CLinePlot@@AAEXXZ 0044d7c0 f   LinePlot.obj
 0001:0004c820       ?EmitLimitsChanged@CLinePlot@@AAEXXZ 0044d820 f   LinePlot.obj
 0001:0004c880       ?EmitMouseMove@CLinePlot@@AAEXXZ 0044d880 f   LinePlot.obj
 0001:0004c8e0       ?AddToZoomUndo@CLinePlot@@AAEXAAUt_FLOATRECT@@@Z 0044d8e0 f   LinePlot.obj
 0001:0004c960       ?GetLastZoomUndo@CLinePlot@@AAE?AUt_FLOATRECT@@XZ 0044d960 f   LinePlot.obj
 0001:0004c9a0       ?HideEditWindow@CLinePlot@@AAEXXZ 0044d9a0 f   LinePlot.obj
 0001:0004cb00       ?GetName@CLinePlot@@QAE?AVCString@@H@Z 0044db00 f   LinePlot.obj
 0001:0004cb40       ?SetName@CLinePlot@@QAE_NHVCString@@@Z 0044db40 f   LinePlot.obj
 0001:0004cbc0       ?GetStyle@CLinePlot@@QAE?AW4enumPlotStyle@1@H@Z 0044dbc0 f   LinePlot.obj
 0001:0004cbe0       ?SetStyle@CLinePlot@@QAE_NHW4enumPlotStyle@1@@Z 0044dbe0 f   LinePlot.obj
 0001:0004cc20       ?GetColor@CLinePlot@@QAEKH@Z 0044dc20 f   LinePlot.obj
 0001:0004cc40       ?SetColor@CLinePlot@@QAE_NHK@Z 0044dc40 f   LinePlot.obj
 0001:0004cc80       ?GetData@CLinePlot@@QAEPAUt_FLOATPOINT@@H@Z 0044dc80 f   LinePlot.obj
 0001:0004cca0       ?SetData@CLinePlot@@QAE_NHPAUt_FLOATPOINT@@@Z 0044dca0 f   LinePlot.obj
 0001:0004cce0       ?GetPointCount@CLinePlot@@QAEIH@Z 0044dce0 f   LinePlot.obj
 0001:0004cd00       ?SetXMin@CLinePlot@@QAE_NAAM@Z 0044dd00 f   LinePlot.obj
 0001:0004cd50       ?SetXMax@CLinePlot@@QAE_NAAM@Z 0044dd50 f   LinePlot.obj
 0001:0004cda0       ?SetYMin@CLinePlot@@QAE_NAAM@Z 0044dda0 f   LinePlot.obj
 0001:0004cdf0       ?SetYMax@CLinePlot@@QAE_NAAM@Z 0044ddf0 f   LinePlot.obj
 0001:0004ce40       ?SetIsXLocked@CLinePlot@@QAE_NAA_N@Z 0044de40 f   LinePlot.obj
 0001:0004ce70       ?SetIsYLocked@CLinePlot@@QAE_NAA_N@Z 0044de70 f   LinePlot.obj
 0001:0004cea0       ??1?$vector@VCPlotData@@V?$allocator@VCPlotData@@@std@@@std@@QAE@XZ 0044dea0 f i LinePlot.obj
 0001:0004cef0       ?size@?$vector@Ut_FLOATPOINT@@V?$allocator@Ut_FLOATPOINT@@@std@@@std@@QBEIXZ 0044def0 f i LinePlot.obj
 0001:0004cf10       ?at@?$vector@Ut_FLOATPOINT@@V?$allocator@Ut_FLOATPOINT@@@std@@@std@@QAEAAUt_FLOATPOINT@@I@Z 0044df10 f i LinePlot.obj
 0001:0004cf40       ?_Xran@?$vector@VCPlotData@@V?$allocator@VCPlotData@@@std@@@std@@IBEXXZ 0044df40 f i LinePlot.obj
 0001:0004d030       ?_Xran@?$vector@Ut_FLOATPOINT@@V?$allocator@Ut_FLOATPOINT@@@std@@@std@@IBEXXZ 0044e030 f i LinePlot.obj
 0001:0004d120       ?insert@?$vector@VCPlotData@@V?$allocator@VCPlotData@@@std@@@std@@QAEXPAVCPlotData@@IABV3@@Z 0044e120 f i LinePlot.obj
 0001:0004d400       ??0CGdiObject@@QAE@XZ      0044e400 f i LinePlot.obj
 0001:0004d410       ?_Construct@std@@YAXPAVCPlotData@@ABV2@@Z 0044e410 f i LinePlot.obj
 0001:0004d460       ?SelectObject@CDC@@QAEPAVCBitmap@@PAV2@@Z 0044e460 f i LinePlot.obj
 0001:0004d490       ?GetViewportExt@CDC@@QBE?AVCSize@@XZ 0044e490 f i LinePlot.obj
 0001:0004d4c0       ?SetViewportExt@CDC@@QAE?AVCSize@@UtagSIZE@@@Z 0044e4c0 f i LinePlot.obj
 0001:0004d520       ??0CMenuItem@@QAE@XZ       0044e520 f   MenuXP.obj
 0001:0004d550       ??0CMenuItem@@QAE@PAUHMENU__@@I_N@Z 0044e550 f   MenuXP.obj
 0001:0004d6e0       ??1CMenuItem@@QAE@XZ       0044e6e0 f   MenuXP.obj
 0001:0004d6f0       ?GetCaption@CMenuItem@@QBEHAAVCString@@@Z 0044e6f0 f   MenuXP.obj
 0001:0004d790       ?GetShortCut@CMenuItem@@QBEHAAVCString@@@Z 0044e790 f   MenuXP.obj
 0001:0004d860       ?GetSeparator@CMenuItem@@QBE_NXZ 0044e860 f   MenuXP.obj
 0001:0004d880       ?GetChecked@CMenuItem@@QBE_NXZ 0044e880 f   MenuXP.obj
 0001:0004d890       ?GetRadio@CMenuItem@@QBE_NXZ 0044e890 f   MenuXP.obj
 0001:0004d8b0       ?GetDisabled@CMenuItem@@QBE_NXZ 0044e8b0 f   MenuXP.obj
 0001:0004d8c0       ?GetDefault@CMenuItem@@QBE_NXZ 0044e8c0 f   MenuXP.obj
 0001:0004d8e0       ?GetPopup@CMenuItem@@QBEPAUHMENU__@@XZ 0044e8e0 f   MenuXP.obj
 0001:0004d8f0       ?GetID@CMenuItem@@QBEIXZ   0044e8f0 f   MenuXP.obj
 0001:0004d900       ?GetCaptionWidth@CMenuItem@@QBEHPAVCDC@@@Z 0044e900 f   MenuXP.obj
 0001:0004da60       ?GetShortCutWidth@CMenuItem@@QBEHPAVCDC@@@Z 0044ea60 f   MenuXP.obj
 0001:0004db30       ?GetHeight@CMenuItem@@QBEHPAVCDC@@@Z 0044eb30 f   MenuXP.obj
 0001:0004db70       ?DrawGradient@CMenuItem@@QBEXPAVCDC@@KKPBUtagRECT@@@Z 0044eb70 f   MenuXP.obj
 0001:0004de80       ?Draw@CMenuItem@@QBE_NPAVCDC@@PBUtagRECT@@_N2222@Z 0044ee80 f   MenuXP.obj
 0001:0004ed10       ?SetXPLookNFeel@CMenuXP@@SAXPAVCWnd@@_N@Z 0044fd10 f   MenuXP.obj
 0001:0004ed70       ?GetXPLookNFeel@CMenuXP@@SA_NPBVCWnd@@@Z 0044fd70 f   MenuXP.obj
 0001:0004edb0       ?UpdateMenuBar@CMenuXP@@SAXPAVCWnd@@@Z 0044fdb0 f   MenuXP.obj
 0001:0004edf0       ?SetXPLookNFeel@CMenuXP@@SAXPAVCWnd@@PAUHMENU__@@_N2@Z 0044fdf0 f   MenuXP.obj
 0001:0004f820       ?IsOwnerDrawn@CMenuXP@@SA_NPAUHMENU__@@@Z 00450820 f   MenuXP.obj
 0001:0004f870       ?SetMRUMenuBarItem@CMenuXP@@SAXAAUtagRECT@@@Z 00450870 f   MenuXP.obj
 0001:0004f890       ?SetMenuItemImage@CMenuXP@@SAXIPAU_IMAGELIST@@H@Z 00450890 f   MenuXP.obj
 0001:0004f9b0       ?OnMeasureItem@CMenuXP@@SAXPAUtagMEASUREITEMSTRUCT@@@Z 004509b0 f   MenuXP.obj
 0001:0004f9f0       ?OnDrawItem@CMenuXP@@SA_NPAUtagDRAWITEMSTRUCT@@PAUHWND__@@@Z 004509f0 f   MenuXP.obj
 0001:0004fbb0       ?OnMenuChar@CMenuXP@@SAJPAUHMENU__@@II@Z 00450bb0 f   MenuXP.obj
 0001:0004fd10       ?InitializeHook@CMenuXP@@SAXXZ 00450d10 f   MenuXP.obj
 0001:0004fd50       ?UninitializeHook@CMenuXP@@SAXXZ 00450d50 f   MenuXP.obj
 0001:0004feb0       ??0CWndMenuXP@@QAE@PAUHWND__@@@Z 00450eb0 f   MenuXP.obj
 0001:0004fee0       ??1CWndMenuXP@@QAE@XZ      00450ee0 f   MenuXP.obj
 0001:00050020       ?FromHandle@CWndMenuXP@@SAPAV1@PAUHWND__@@_N@Z 00451020 f   MenuXP.obj
 0001:00050190       ?OnWindowPosChanging@CWndMenuXP@@IAEXPAUtagWINDOWPOS@@@Z 00451190 f   MenuXP.obj
 0001:000501d0       ?OnEraseBkgnd@CWndMenuXP@@IAEXXZ 004511d0 f   MenuXP.obj
 0001:00050240       ?DrawShadow@@YAXPAUHDC__@@0AAUtagRECT@@@Z 00451240 f   MenuXP.obj
 0001:00050500       ?OnPrint@CWndMenuXP@@IAEXPAVCDC@@_N@Z 00451500 f   MenuXP.obj
 0001:00050820       ?OnNcPaint@CWndMenuXP@@IAEXXZ 00451820 f   MenuXP.obj
 0001:00050a90       ?OnShowWindow@CWndMenuXP@@IAEX_N@Z 00451a90 f   MenuXP.obj
 0001:00050ac0       ?OnNcDestroy@CWndMenuXP@@IAEXXZ 00451ac0 f   MenuXP.obj
 0001:00050ae0       ?WindowsHook@CWndMenuXP@@CGJHIJ@Z 00451ae0 f   MenuXP.obj
 0001:00050be0       ?SubClassMenuProc@CWndMenuXP@@CGJPAUHWND__@@IIJ@Z 00451be0 f   MenuXP.obj
 0001:00050d80       ??0?$CMap@HHVCString@@AAV1@@@QAE@H@Z 00451d80 f i MenuXP.obj
 0001:00050db0       ??1?$CMap@HHVCString@@AAV1@@@UAE@XZ 00451db0 f i MenuXP.obj
 0001:00050e50       ?Serialize@?$CMap@HHVCString@@AAV1@@@UAEXAAVCArchive@@@Z 00451e50 f i MenuXP.obj
 0001:00051070       ??0?$CMap@PAUHMENU__@@PAU1@VCString@@AAV2@@@QAE@H@Z 00452070 f i MenuXP.obj
 0001:000510a0       ??1?$CMap@PAUHMENU__@@PAU1@VCString@@AAV2@@@UAE@XZ 004520a0 f i MenuXP.obj
 0001:00051140       ?Serialize@?$CMap@PAUHMENU__@@PAU1@VCString@@AAV2@@@UAEXAAVCArchive@@@Z 00452140 f i MenuXP.obj
 0001:00051360       ??0?$CMap@HHVCImgDesc@@AAV1@@@QAE@H@Z 00452360 f i MenuXP.obj
 0001:00051390       ??1?$CMap@HHVCImgDesc@@AAV1@@@UAE@XZ 00452390 f i MenuXP.obj
 0001:00051420       ?Serialize@?$CMap@HHVCImgDesc@@AAV1@@@UAEXAAVCArchive@@@Z 00452420 f i MenuXP.obj
 0001:00051640       ??0?$CMap@PAUHMENU__@@PAU1@VCImgDesc@@AAV2@@@QAE@H@Z 00452640 f i MenuXP.obj
 0001:00051670       ??1?$CMap@PAUHMENU__@@PAU1@VCImgDesc@@AAV2@@@UAE@XZ 00452670 f i MenuXP.obj
 0001:00051700       ?Serialize@?$CMap@PAUHMENU__@@PAU1@VCImgDesc@@AAV2@@@UAEXAAVCArchive@@@Z 00452700 f i MenuXP.obj
 0001:00051920       ??0?$CMap@PAUHWND__@@PAU1@PAVCWndMenuXP@@PAV2@@@QAE@H@Z 00452920 f i MenuXP.obj
 0001:00051950       ??1?$CMap@PAUHWND__@@PAU1@PAVCWndMenuXP@@PAV2@@@UAE@XZ 00452950 f i MenuXP.obj
 0001:000519e0       ?Serialize@?$CMap@PAUHWND__@@PAU1@PAVCWndMenuXP@@PAV2@@@UAEXAAVCArchive@@@Z 004529e0 f i MenuXP.obj
 0001:00051bf0       ??_E?$CMap@HHVCString@@AAV1@@@UAEPAXI@Z 00452bf0 f i MenuXP.obj
 0001:00051bf0       ??_G?$CMap@HHVCString@@AAV1@@@UAEPAXI@Z 00452bf0 f i MenuXP.obj
 0001:00051c10       ??_G?$CMap@PAUHMENU__@@PAU1@VCString@@AAV2@@@UAEPAXI@Z 00452c10 f i MenuXP.obj
 0001:00051c10       ??_E?$CMap@PAUHMENU__@@PAU1@VCString@@AAV2@@@UAEPAXI@Z 00452c10 f i MenuXP.obj
 0001:00051c30       ??_E?$CMap@HHVCImgDesc@@AAV1@@@UAEPAXI@Z 00452c30 f i MenuXP.obj
 0001:00051c30       ??_G?$CMap@HHVCImgDesc@@AAV1@@@UAEPAXI@Z 00452c30 f i MenuXP.obj
 0001:00051c50       ??_G?$CMap@PAUHMENU__@@PAU1@VCImgDesc@@AAV2@@@UAEPAXI@Z 00452c50 f i MenuXP.obj
 0001:00051c50       ??_E?$CMap@PAUHMENU__@@PAU1@VCImgDesc@@AAV2@@@UAEPAXI@Z 00452c50 f i MenuXP.obj
 0001:00051c70       ??_E?$CMap@PAUHWND__@@PAU1@PAVCWndMenuXP@@PAV2@@@UAEPAXI@Z 00452c70 f i MenuXP.obj
 0001:00051c70       ??_G?$CMap@PAUHWND__@@PAU1@PAVCWndMenuXP@@PAV2@@@UAEPAXI@Z 00452c70 f i MenuXP.obj
 0001:00051c90       ?GetAssocAt@?$CMap@HHVCString@@AAV1@@@IBEPAUCAssoc@1@HAAI@Z 00452c90 f i MenuXP.obj
 0001:00051cd0       ?RemoveAll@?$CMap@PAUHMENU__@@PAU1@VCString@@AAV2@@@QAEXXZ 00452cd0 f i MenuXP.obj
 0001:00051d30       ?GetAssocAt@?$CMap@PAUHMENU__@@PAU1@VCString@@AAV2@@@IBEPAUCAssoc@1@PAUHMENU__@@AAI@Z 00452d30 f i MenuXP.obj
 0001:00051d70       ?RemoveAll@?$CMap@PAUHMENU__@@PAU1@VCImgDesc@@AAV2@@@QAEXXZ 00452d70 f i MenuXP.obj
 0001:00051dc0       ?InitHashTable@?$CMap@HHVCString@@AAV1@@@QAEXIH@Z 00452dc0 f i MenuXP.obj
 0001:00051e30       ?NewAssoc@?$CMap@HHVCString@@AAV1@@@IAEPAUCAssoc@1@XZ 00452e30 f i MenuXP.obj
 0001:00051ea0       ?InitHashTable@?$CMap@PAUHMENU__@@PAU1@VCString@@AAV2@@@QAEXIH@Z 00452ea0 f i MenuXP.obj
 0001:00051f10       ?NewAssoc@?$CMap@PAUHMENU__@@PAU1@VCString@@AAV2@@@IAEPAUCAssoc@1@XZ 00452f10 f i MenuXP.obj
 0001:00051f80       ?ConstructElements@@YGXPAVCImgDesc@@H@Z 00452f80 f i MenuXP.obj
 0001:00051fd0       ?_GetBaseClass@CSplashScreenEx@@KGPAUCRuntimeClass@@XZ 00452fd0 f   SplashScreenEx.obj
 0001:00051fe0       ?GetRuntimeClass@CSplashScreenEx@@UBEPAUCRuntimeClass@@XZ 00452fe0 f   SplashScreenEx.obj
 0001:00051ff0       ??0CSplashScreenEx@@QAE@XZ 00452ff0 f   SplashScreenEx.obj
 0001:000520e0       ??_GCSplashScreenEx@@UAEPAXI@Z 004530e0 f i SplashScreenEx.obj
 0001:000520e0       ??_ECSplashScreenEx@@UAEPAXI@Z 004530e0 f i SplashScreenEx.obj
 0001:00052100       ??1CSplashScreenEx@@UAE@XZ 00453100 f   SplashScreenEx.obj
 0001:000521a0       ?Create@CSplashScreenEx@@QAEHPAVCWnd@@PBDKK@Z 004531a0 f   SplashScreenEx.obj
 0001:000522b0       ?SetBitmap@CSplashScreenEx@@QAEHIFFF@Z 004532b0 f   SplashScreenEx.obj
 0001:00052410       ?SetBitmap@CSplashScreenEx@@QAEHPBDFFF@Z 00453410 f   SplashScreenEx.obj
 0001:00052580       ?SetTextFont@CSplashScreenEx@@QAEXPBDHH@Z 00453580 f   SplashScreenEx.obj
 0001:00052610       ?SetTextDefaultFont@CSplashScreenEx@@QAEXXZ 00453610 f   SplashScreenEx.obj
 0001:00052660       ?SetText@CSplashScreenEx@@QAEXPBD@Z 00453660 f   SplashScreenEx.obj
 0001:00052690       ?SetTextColor@CSplashScreenEx@@QAEXK@Z 00453690 f   SplashScreenEx.obj
 0001:000526b0       ?SetTextRect@CSplashScreenEx@@QAEXAAVCRect@@@Z 004536b0 f   SplashScreenEx.obj
 0001:000526f0       ?SetTextFormat@CSplashScreenEx@@QAEXI@Z 004536f0 f   SplashScreenEx.obj
 0001:00052700       ?Show@CSplashScreenEx@@QAEXXZ 00453700 f   SplashScreenEx.obj
 0001:00052770       ?Hide@CSplashScreenEx@@QAEXXZ 00453770 f   SplashScreenEx.obj
 0001:000527b0       ?CreateRgnFromBitmap@CSplashScreenEx@@IAEPAUHRGN__@@PAUHBITMAP__@@K@Z 004537b0 f   SplashScreenEx.obj
 0001:00052a70       ?DrawWindow@CSplashScreenEx@@IAEXPAVCDC@@@Z 00453a70 f   SplashScreenEx.obj
 0001:00052b80       ?_GetBaseMessageMap@CSplashScreenEx@@KGPBUAFX_MSGMAP@@XZ 00453b80 f   SplashScreenEx.obj
 0001:00052b90       ?GetMessageMap@CSplashScreenEx@@MBEPBUAFX_MSGMAP@@XZ 00453b90 f   SplashScreenEx.obj
 0001:00052ba0       ?OnEraseBkgnd@CSplashScreenEx@@QAEHPAVCDC@@@Z 00453ba0 f   SplashScreenEx.obj
 0001:00052bb0       ?OnPaint@CSplashScreenEx@@QAEXXZ 00453bb0 f   SplashScreenEx.obj
 0001:00052c10       ?OnPrintClient@CSplashScreenEx@@QAEJIJ@Z 00453c10 f   SplashScreenEx.obj
 0001:00052c30       ?PreTranslateMessage@CSplashScreenEx@@MAEHPAUtagMSG@@@Z 00453c30 f   SplashScreenEx.obj
 0001:00052c90       ?OnTimer@CSplashScreenEx@@QAEXI@Z 00453c90 f   SplashScreenEx.obj
 0001:00052cb0       ?PostNcDestroy@CSplashScreenEx@@MAEXXZ 00453cb0 f   SplashScreenEx.obj
 0001:00052cd0       ?SetIndicators@CStatusBarXP@@QAEHPBIH@Z 00453cd0 f   StatusBarXP.obj
 0001:00052d50       ?_GetBaseMessageMap@CStatusBarXP@@KGPBUAFX_MSGMAP@@XZ 00453d50 f   StatusBarXP.obj
 0001:00052d60       ?GetMessageMap@CStatusBarXP@@MBEPBUAFX_MSGMAP@@XZ 00453d60 f   StatusBarXP.obj
 0001:00052d70       ?_GetBaseClass@CStatusBarXP@@KGPAUCRuntimeClass@@XZ 00453d70 f   StatusBarXP.obj
 0001:00052d80       ?GetRuntimeClass@CStatusBarXP@@UBEPAUCRuntimeClass@@XZ 00453d80 f   StatusBarXP.obj
 0001:00052d90       ?OnPaint@CStatusBarXP@@IAEXXZ 00453d90 f   StatusBarXP.obj
 0001:00052e80       ?SaveTreeState@TBTreeStateMgr@@SAHPBDPAVCTreeCtrl@@@Z 00453e80 f   TBTreeStateMgr.obj
 0001:00052f10       ?LoadTreeState@TBTreeStateMgr@@SAHPBDPAVCTreeCtrl@@@Z 00453f10 f   TBTreeStateMgr.obj
 0001:00052f90       ?Initialize@TBTreeStateMgr@@SAXXZ 00453f90 f   TBTreeStateMgr.obj
 0001:00052fb0       ?Uninitialize@TBTreeStateMgr@@SAXXZ 00453fb0 f   TBTreeStateMgr.obj
 0001:00052ff0       ?SetStorageFile@TBTreeStateMgr@@SAXPBD@Z 00453ff0 f   TBTreeStateMgr.obj
 0001:00053030       ?MakeValidName@TBTreeStateMgr@@KAPADPBD@Z 00454030 f   TBTreeStateMgr.obj
 0001:000530d0       ?_SaveTreeState@TBTreeStateMgr@@KAHPBDPAVCTreeCtrl@@@Z 004540d0 f   TBTreeStateMgr.obj
 0001:00053280       ?DeepSaveItemState@TBTreeStateMgr@@KAXPAU_TREEITEM@@@Z 00454280 f   TBTreeStateMgr.obj
 0001:00053360       ?DeepSetItemState@TBTreeStateMgr@@KAXPAU_TREEITEM@@@Z 00454360 f   TBTreeStateMgr.obj
 0001:00053430       ?OpenStorageFile@TBTreeStateMgr@@KAJPBD_N@Z 00454430 f   TBTreeStateMgr.obj
 0001:000534f0       ?RecreateStream@TBTreeStateMgr@@KAPAUIStream@@PBD@Z 004544f0 f   TBTreeStateMgr.obj
 0001:00053560       ?OpenStateStream@TBTreeStateMgr@@KAPAUIStream@@PBD_N@Z 00454560 f   TBTreeStateMgr.obj
 0001:00053630       ?_LoadTreeState@TBTreeStateMgr@@KAHPBDPAVCTreeCtrl@@@Z 00454630 f   TBTreeStateMgr.obj
 0001:000537e0       ?LoadStateVector@TBTreeStateMgr@@KAJXZ 004547e0 f   TBTreeStateMgr.obj
 0001:00053980       ?IsExpandedState@TBTreeStateMgr@@KA_NPBD@Z 00454980 f   TBTreeStateMgr.obj
 0001:00053b60       ?CreateNewDocument@TBTreeStateMgr@@CAJPAPAUIXMLDOMDocument@MSXML@@PAPAUIXMLDOMNode@3@@Z 00454b60 f   TBTreeStateMgr.obj
 0001:00053ba0       ?AppendElementChild@TBTreeStateMgr@@CAPAUIXMLDOMNode@MSXML@@PAUIXMLDOMDocument@3@PAU23@PBD@Z 00454ba0 f   TBTreeStateMgr.obj
 0001:00053cd0       ?AddNamedElementChild@TBTreeStateMgr@@CAPAUIXMLDOMNode@MSXML@@PAUIXMLDOMDocument@3@PAU23@PBD2@Z 00454cd0 f   TBTreeStateMgr.obj
 0001:00053eb0       ?CreateNewDocumentFromStream@TBTreeStateMgr@@CAJPAPAUIXMLDOMDocument@MSXML@@PAPAUIXMLDOMNode@3@PAUIStream@@@Z 00454eb0 f   TBTreeStateMgr.obj
 0001:00053fe0       ?GetChildElementByName@TBTreeStateMgr@@CAPAUIXMLDOMNode@MSXML@@PAU23@PBD@Z 00454fe0 f   TBTreeStateMgr.obj
 0001:00054240       ??1?$CComQIPtr@UIXMLDOMElement@MSXML@@$1?_GUID_2933bf86_7b36_11d2_b20e_00c04f983e60@@3U__s_GUID@@A@ATL@@QAE@XZ 00455240 f i TBTreeStateMgr.obj
 0001:00054250       ?insert@?$vector@PAGV?$allocator@PAG@std@@@std@@QAEXPAPAGIABQAG@Z 00455250 f i TBTreeStateMgr.obj
 0001:00054460       ??1_bstr_t@@QAE@XZ         00455460 f i TBTreeStateMgr.obj
 0001:000544b0       ?Compare@Data_t@_bstr_t@@QBEHABV12@@Z 004554b0 f i TBTreeStateMgr.obj
 0001:00054560       ?_Free@Data_t@_bstr_t@@AAEXXZ 00455560 f i TBTreeStateMgr.obj
 0001:00054590       ??1_variant_t@@QAE@XZ      00455590 f i TBTreeStateMgr.obj
 0001:000545b0       ??0CTextScroller@@QAE@XZ   004555b0 f   TextScroller.obj
 0001:00054670       ??_GCTextScroller@@UAEPAXI@Z 00455670 f i TextScroller.obj
 0001:00054670       ??_ECTextScroller@@UAEPAXI@Z 00455670 f i TextScroller.obj
 0001:00054690       ??1CTextScroller@@UAE@XZ   00455690 f   TextScroller.obj
 0001:00054750       ?_GetBaseMessageMap@CTextScroller@@KGPBUAFX_MSGMAP@@XZ 00455750 f   TextScroller.obj
 0001:00054760       ?GetMessageMap@CTextScroller@@MBEPBUAFX_MSGMAP@@XZ 00455760 f   TextScroller.obj
 0001:00054770       ?AddLine@CTextScroller@@QAEXAAVCStringArray@@@Z 00455770 f   TextScroller.obj
 0001:000548b0       ?PreSubclassWindow@CTextScroller@@MAEXXZ 004558b0 f   TextScroller.obj
 0001:000548e0       ?OnPaint@CTextScroller@@IAEXXZ 004558e0 f   TextScroller.obj
 0001:00054970       ?DrawBkGround@CTextScroller@@IAEXPAVCDC@@VCRect@@@Z 00455970 f   TextScroller.obj
 0001:00054a70       ?OnTimer@CTextScroller@@IAEXI@Z 00455a70 f   TextScroller.obj
 0001:00054a90       ?MoveTextToTheTop@CTextScroller@@IAEXXZ 00455a90 f   TextScroller.obj
 0001:00054cb0       ?FormatLines@CTextScroller@@IAEXXZ 00455cb0 f   TextScroller.obj
 0001:00054fb0       ?FreeList@CTextScroller@@IAEXXZ 00455fb0 f   TextScroller.obj
 0001:00055010       ??1Line@@QAE@XZ            00456010 f i TextScroller.obj
 0001:00055020       ?SetBkColor@CTextScroller@@QAEKK@Z 00456020 f   TextScroller.obj
 0001:00055040       ?SetScrollTimer@CTextScroller@@QAEXH@Z 00456040 f   TextScroller.obj
 0001:00055070       ?SetTextColor@CTextScroller@@QAEKK@Z 00456070 f   TextScroller.obj
 0001:00055090       ?SetBorder@CTextScroller@@QAEXH@Z 00456090 f   TextScroller.obj
 0001:000550c0       ?SetFontName@CTextScroller@@QAE?AVCString@@V2@@Z 004560c0 f   TextScroller.obj
 0001:000551a0       ?SetFontBold@CTextScroller@@QAEXH@Z 004561a0 f   TextScroller.obj
 0001:000551f0       ?SetFontItalic@CTextScroller@@QAEXH@Z 004561f0 f   TextScroller.obj
 0001:00055230       ?SetFontSize@CTextScroller@@QAEXH@Z 00456230 f   TextScroller.obj
 0001:00055270       ?GetAt@CStringArray@@QBE?AVCString@@H@Z 00456270 f i TextScroller.obj
 0001:000552a0       ??1?$CList@PAULine@@PAU1@@@UAE@XZ 004562a0 f i TextScroller.obj
 0001:00055310       ?Serialize@?$CList@PAULine@@PAU1@@@UAEXAAVCArchive@@@Z 00456310 f i TextScroller.obj
 0001:00055430       ??_G?$CList@PAULine@@PAU1@@@UAEPAXI@Z 00456430 f i TextScroller.obj
 0001:00055430       ??_E?$CList@PAULine@@PAU1@@@UAEPAXI@Z 00456430 f i TextScroller.obj
 0001:00055450       ??0CTOListCtrl@@QAE@XZ     00456450 f   TOListCtrl.obj
 0001:00055470       ??_GCTOListCtrl@@UAEPAXI@Z 00456470 f i TOListCtrl.obj
 0001:00055470       ??_ECTOListCtrl@@UAEPAXI@Z 00456470 f i TOListCtrl.obj
 0001:00055490       ??1CTOListCtrl@@UAE@XZ     00456490 f   TOListCtrl.obj
 0001:000554a0       ?_GetBaseMessageMap@CTOListCtrl@@KGPBUAFX_MSGMAP@@XZ 004564a0 f   TOListCtrl.obj
 0001:000554b0       ?GetMessageMap@CTOListCtrl@@MBEPBUAFX_MSGMAP@@XZ 004564b0 f   TOListCtrl.obj
 0001:000554c0       ?OnCustomDraw@CTOListCtrl@@IAEXPAUtagNMHDR@@PAJ@Z 004564c0 f   TOListCtrl.obj
 0001:00055530       ?OnEraseBkgnd@CTOListCtrl@@IAEHPAVCDC@@@Z 00456530 f   TOListCtrl.obj
 0001:00055690       ?RestoreState@CTOListCtrl@@QAEHPBD0@Z 00456690 f   TOListCtrl.obj
 0001:00055700       ?SaveState@CTOListCtrl@@QAEHPBD0@Z 00456700 f   TOListCtrl.obj
 0001:00055760       ?GetState@CTOListCtrl@@QAEHPAPAEPAH@Z 00456760 f   TOListCtrl.obj
 0001:000557f0       ?SetState@CTOListCtrl@@QAEHPAEH@Z 004567f0 f   TOListCtrl.obj
 0001:00055850       ?ChildOfDockedToolbar@@YA_NPAVCWnd@@@Z 00456850 f   Tools.obj
 0001:00055890       ?GetWinVersion@@YG?AW4WinVer@@XZ 00456890 f   Tools.obj
 0001:000559b0       ??0CMouseMgr@@QAE@XZ       004569b0 f   Tools.obj
 0001:000559c0       ?Init@CMouseMgr@@QAEXPAUHWND__@@G@Z 004569c0 f   Tools.obj
 0001:000559e0       ?MouseOver@CMouseMgr@@QBE_NXZ 004569e0 f   Tools.obj
 0001:000559f0       ?OnMouseMove@CMouseMgr@@QAE_NPAUHWND__@@@Z 004569f0 f   Tools.obj
 0001:00055ad0       ?OnMouseOut@CMouseMgr@@QAE_NPAUHWND__@@@Z 00456ad0 f   Tools.obj
 0001:00055b30       ??0CTreeCtrlEx@@QAE@XZ     00456b30 f   TreeCtrlEx.obj
 0001:00055b70       ??_ECTreeCtrlEx@@UAEPAXI@Z 00456b70 f i TreeCtrlEx.obj
 0001:00055b70       ??_GCTreeCtrlEx@@UAEPAXI@Z 00456b70 f i TreeCtrlEx.obj
 0001:00055b90       ??1CTreeCtrlEx@@UAE@XZ     00456b90 f   TreeCtrlEx.obj
 0001:00055c40       ?_GetBaseClass@CTreeCtrlEx@@KGPAUCRuntimeClass@@XZ 00456c40 f   TreeCtrlEx.obj
 0001:00055c50       ?GetRuntimeClass@CTreeCtrlEx@@UBEPAUCRuntimeClass@@XZ 00456c50 f   TreeCtrlEx.obj
 0001:00055c60       ?_GetBaseMessageMap@CTreeCtrlEx@@KGPBUAFX_MSGMAP@@XZ 00456c60 f   TreeCtrlEx.obj
 0001:00055c70       ?GetMessageMap@CTreeCtrlEx@@MBEPBUAFX_MSGMAP@@XZ 00456c70 f   TreeCtrlEx.obj
 0001:00055c80       ?SetItemFont@CTreeCtrlEx@@QAEXPAU_TREEITEM@@AAUtagLOGFONTA@@@Z 00456c80 f   TreeCtrlEx.obj
 0001:00055dd0       ?SetItemBold@CTreeCtrlEx@@QAEXPAU_TREEITEM@@H@Z 00456dd0 f   TreeCtrlEx.obj
 0001:00055e00       ?SetItemColor@CTreeCtrlEx@@QAEXPAU_TREEITEM@@K@Z 00456e00 f   TreeCtrlEx.obj
 0001:00055f50       ?GetItemFont@CTreeCtrlEx@@QAEHPAU_TREEITEM@@PAUtagLOGFONTA@@@Z 00456f50 f   TreeCtrlEx.obj
 0001:00055fd0       ?GetItemBold@CTreeCtrlEx@@QAEHPAU_TREEITEM@@@Z 00456fd0 f   TreeCtrlEx.obj
 0001:00055ff0       ?GetItemColor@CTreeCtrlEx@@QAEKPAU_TREEITEM@@@Z 00456ff0 f   TreeCtrlEx.obj
 0001:00056050       ?OnPaint@CTreeCtrlEx@@IAEXXZ 00457050 f   TreeCtrlEx.obj
 0001:00056440       ?Serialize@?$CMap@PAXPAXUColor_Font@CTreeCtrlEx@@AAU12@@@UAEXAAVCArchive@@@Z 00457440 f i TreeCtrlEx.obj
 0001:00056660       ??_G?$CMap@PAXPAXUColor_Font@CTreeCtrlEx@@AAU12@@@UAEPAXI@Z 00457660 f i TreeCtrlEx.obj
 0001:00056660       ??_E?$CMap@PAXPAXUColor_Font@CTreeCtrlEx@@AAU12@@@UAEPAXI@Z 00457660 f i TreeCtrlEx.obj
 0001:00056680       ??1?$CMap@PAXPAXUColor_Font@CTreeCtrlEx@@AAU12@@@UAE@XZ 00457680 f i TreeCtrlEx.obj
 0001:00056710       ?GetAssocAt@?$CMap@PAXPAXUColor_Font@CTreeCtrlEx@@AAU12@@@IBEPAUCAssoc@1@PAXAAI@Z 00457710 f i TreeCtrlEx.obj
 0001:00056750       ??_ECRgn@@UAEPAXI@Z        00457750 f i TreeCtrlEx.obj
 0001:00056750       ??_GCRgn@@UAEPAXI@Z        00457750 f i TreeCtrlEx.obj
 0001:00056770       ??1CRgn@@UAE@XZ            00457770 f i TreeCtrlEx.obj
 0001:00056800       ??0CVisualStylesXP@@QAE@XZ 00457800 f   VisualStylesXP.obj
 0001:00056820       ??1CVisualStylesXP@@QAE@XZ 00457820 f   VisualStylesXP.obj
 0001:00056840       ?GetProc@CVisualStylesXP@@AAEPAXPBDPAX@Z 00457840 f   VisualStylesXP.obj
 0001:00056860       ?OpenThemeData@CVisualStylesXP@@QAEPAXPAUHWND__@@PBG@Z 00457860 f   VisualStylesXP.obj
 0001:00056880       ?CloseThemeData@CVisualStylesXP@@QAEJPAX@Z 00457880 f   VisualStylesXP.obj
 0001:000568a0       ?DrawThemeBackground@CVisualStylesXP@@QAEJPAXPAUHDC__@@HHPBUtagRECT@@2@Z 004578a0 f   VisualStylesXP.obj
 0001:000568e0       ?DrawThemeText@CVisualStylesXP@@QAEJPAXPAUHDC__@@HHPBGHKKPBUtagRECT@@@Z 004578e0 f   VisualStylesXP.obj
 0001:00056930       ?GetThemeBackgroundContentRect@CVisualStylesXP@@QAEJPAXPAUHDC__@@HHPBUtagRECT@@PAU3@@Z 00457930 f   VisualStylesXP.obj
 0001:00056970       ?GetThemeBackgroundExtent@CVisualStylesXP@@QAEJPAXPAUHDC__@@HHPBUtagRECT@@PAU3@@Z 00457970 f   VisualStylesXP.obj
 0001:000569b0       ?GetThemePartSize@CVisualStylesXP@@QAEJPAXPAUHDC__@@HHPAUtagRECT@@W4THEMESIZE@@PAUtagSIZE@@@Z 004579b0 f   VisualStylesXP.obj
 0001:000569f0       ?GetThemeTextExtent@CVisualStylesXP@@QAEJPAXPAUHDC__@@HHPBGHKPBUtagRECT@@PAU3@@Z 004579f0 f   VisualStylesXP.obj
 0001:00056a40       ?GetThemeTextMetrics@CVisualStylesXP@@QAEJPAXPAUHDC__@@HHPAUtagTEXTMETRICA@@@Z 00457a40 f   VisualStylesXP.obj
 0001:00056a70       ?GetThemeBackgroundRegion@CVisualStylesXP@@QAEJPAXPAUHDC__@@HHPBUtagRECT@@PAPAUHRGN__@@@Z 00457a70 f   VisualStylesXP.obj
 0001:00056ab0       ?HitTestThemeBackground@CVisualStylesXP@@QAEJPAXPAUHDC__@@HHKPBUtagRECT@@PAUHRGN__@@UtagPOINT@@PAG@Z 00457ab0 f   VisualStylesXP.obj
 0001:00056b00       ?DrawThemeEdge@CVisualStylesXP@@QAEJPAXPAUHDC__@@HHPBUtagRECT@@IIPAU3@@Z 00457b00 f   VisualStylesXP.obj
 0001:00056b40       ?DrawThemeIcon@CVisualStylesXP@@QAEJPAXPAUHDC__@@HHPBUtagRECT@@PAU_IMAGELIST@@H@Z 00457b40 f   VisualStylesXP.obj
 0001:00056b80       ?IsThemePartDefined@CVisualStylesXP@@QAEHPAXHH@Z 00457b80 f   VisualStylesXP.obj
 0001:00056bb0       ?IsThemeBackgroundPartiallyTransparent@CVisualStylesXP@@QAEHPAXHH@Z 00457bb0 f   VisualStylesXP.obj
 0001:00056be0       ?GetThemeColor@CVisualStylesXP@@QAEJPAXHHHPAK@Z 00457be0 f   VisualStylesXP.obj
 0001:00056c10       ?GetThemeMetric@CVisualStylesXP@@QAEJPAXPAUHDC__@@HHHPAH@Z 00457c10 f   VisualStylesXP.obj
 0001:00056c50       ?GetThemeString@CVisualStylesXP@@QAEJPAXHHHPAGH@Z 00457c50 f   VisualStylesXP.obj
 0001:00056c90       ?GetThemeBool@CVisualStylesXP@@QAEJPAXHHHPAH@Z 00457c90 f   VisualStylesXP.obj
 0001:00056cc0       ?GetThemeInt@CVisualStylesXP@@QAEJPAXHHHPAH@Z 00457cc0 f   VisualStylesXP.obj
 0001:00056cf0       ?GetThemeEnumValue@CVisualStylesXP@@QAEJPAXHHHPAH@Z 00457cf0 f   VisualStylesXP.obj
 0001:00056d20       ?GetThemePosition@CVisualStylesXP@@QAEJPAXHHHPAUtagPOINT@@@Z 00457d20 f   VisualStylesXP.obj
 0001:00056d50       ?GetThemeFont@CVisualStylesXP@@QAEJPAXPAUHDC__@@HHHPAUtagLOGFONTA@@@Z 00457d50 f   VisualStylesXP.obj
 0001:00056d90       ?GetThemeRect@CVisualStylesXP@@QAEJPAXHHHPAUtagRECT@@@Z 00457d90 f   VisualStylesXP.obj
 0001:00056dc0       ?GetThemeMargins@CVisualStylesXP@@QAEJPAXPAUHDC__@@HHHPAUtagRECT@@PAU_MARGINS@@@Z 00457dc0 f   VisualStylesXP.obj
 0001:00056e00       ?GetThemeIntList@CVisualStylesXP@@QAEJPAXHHHPAU_INTLIST@@@Z 00457e00 f   VisualStylesXP.obj
 0001:00056e30       ?GetThemePropertyOrigin@CVisualStylesXP@@QAEJPAXHHHPAW4PROPERTYORIGIN@@@Z 00457e30 f   VisualStylesXP.obj
 0001:00056e60       ?SetWindowTheme@CVisualStylesXP@@QAEJPAUHWND__@@PBG1@Z 00457e60 f   VisualStylesXP.obj
 0001:00056e90       ?GetThemeFilename@CVisualStylesXP@@QAEJPAXHHHPAGH@Z 00457e90 f   VisualStylesXP.obj
 0001:00056ed0       ?GetThemeSysColor@CVisualStylesXP@@QAEKPAXH@Z 00457ed0 f   VisualStylesXP.obj
 0001:00056ef0       ?GetThemeSysColorBrush@CVisualStylesXP@@QAEPAUHBRUSH__@@PAXH@Z 00457ef0 f   VisualStylesXP.obj
 0001:00056f10       ?GetThemeSysBool@CVisualStylesXP@@QAEHPAXH@Z 00457f10 f   VisualStylesXP.obj
 0001:00056f30       ?GetThemeSysSize@CVisualStylesXP@@QAEHPAXH@Z 00457f30 f   VisualStylesXP.obj
 0001:00056f50       ?GetThemeSysFont@CVisualStylesXP@@QAEJPAXHPAUtagLOGFONTA@@@Z 00457f50 f   VisualStylesXP.obj
 0001:00056f80       ?GetThemeSysString@CVisualStylesXP@@QAEJPAXHPAGH@Z 00457f80 f   VisualStylesXP.obj
 0001:00056fb0       ?GetThemeSysInt@CVisualStylesXP@@QAEJPAXHPAH@Z 00457fb0 f   VisualStylesXP.obj
 0001:00056fe0       ?IsThemeActive@CVisualStylesXP@@QAEHXZ 00457fe0 f   VisualStylesXP.obj
 0001:00057000       ?IsAppThemed@CVisualStylesXP@@QAEHXZ 00458000 f   VisualStylesXP.obj
 0001:00057020       ?GetWindowTheme@CVisualStylesXP@@QAEPAXPAUHWND__@@@Z 00458020 f   VisualStylesXP.obj
 0001:00057040       ?EnableThemeDialogTexture@CVisualStylesXP@@QAEJPAUHWND__@@K@Z 00458040 f   VisualStylesXP.obj
 0001:00057060       ?IsThemeDialogTextureEnabled@CVisualStylesXP@@QAEHPAUHWND__@@@Z 00458060 f   VisualStylesXP.obj
 0001:00057080       ?GetThemeAppProperties@CVisualStylesXP@@QAEKXZ 00458080 f   VisualStylesXP.obj
 0001:000570a0       ?SetThemeAppProperties@CVisualStylesXP@@QAEXK@Z 004580a0 f   VisualStylesXP.obj
 0001:000570c0       ?GetCurrentThemeName@CVisualStylesXP@@QAEJPAGH0H0H@Z 004580c0 f   VisualStylesXP.obj
 0001:00057100       ?GetThemeDocumentationProperty@CVisualStylesXP@@QAEJPBG0PAGH@Z 00458100 f   VisualStylesXP.obj
 0001:00057130       ?DrawThemeParentBackground@CVisualStylesXP@@QAEJPAUHWND__@@PAUHDC__@@PAUtagRECT@@@Z 00458130 f   VisualStylesXP.obj
 0001:00057160       ?EnableTheming@CVisualStylesXP@@QAEJH@Z 00458160 f   VisualStylesXP.obj
 0001:00057180       ?OpenThemeDataFail@CVisualStylesXP@@CAPAXPAUHWND__@@PBG@Z 00458180 f i VisualStylesXP.obj
 0001:00057190       ?CloseThemeDataFail@CVisualStylesXP@@CAJPAX@Z 00458190 f i VisualStylesXP.obj
 0001:000571a0       ?DrawThemeBackgroundFail@CVisualStylesXP@@CAJPAXPAUHDC__@@HHPBUtagRECT@@2@Z 004581a0 f i VisualStylesXP.obj
 0001:000571b0       ?DrawThemeTextFail@CVisualStylesXP@@CAJPAXPAUHDC__@@HHPBGHKKPBUtagRECT@@@Z 004581b0 f i VisualStylesXP.obj
 0001:000571c0       ?GetThemeBackgroundContentRectFail@CVisualStylesXP@@CAJPAXPAUHDC__@@HHPBUtagRECT@@PAU3@@Z 004581c0 f i VisualStylesXP.obj
 0001:000571d0       ?GetThemeBackgroundExtentFail@CVisualStylesXP@@CAJPAXPAUHDC__@@HHPBUtagRECT@@PAU3@@Z 004581d0 f i VisualStylesXP.obj
 0001:000571e0       ?GetThemePartSizeFail@CVisualStylesXP@@CAJPAXPAUHDC__@@HHPAUtagRECT@@W4THEMESIZE@@PAUtagSIZE@@@Z 004581e0 f i VisualStylesXP.obj
 0001:000571f0       ?GetThemeTextExtentFail@CVisualStylesXP@@CAJPAXPAUHDC__@@HHPBGHKPBUtagRECT@@PAU3@@Z 004581f0 f i VisualStylesXP.obj
 0001:00057200       ?GetThemeTextMetricsFail@CVisualStylesXP@@CAJPAXPAUHDC__@@HHPAUtagTEXTMETRICA@@@Z 00458200 f i VisualStylesXP.obj
 0001:00057210       ?GetThemeBackgroundRegionFail@CVisualStylesXP@@CAJPAXPAUHDC__@@HHPBUtagRECT@@PAPAUHRGN__@@@Z 00458210 f i VisualStylesXP.obj
 0001:00057220       ?HitTestThemeBackgroundFail@CVisualStylesXP@@CAJPAXPAUHDC__@@HHKPBUtagRECT@@PAUHRGN__@@UtagPOINT@@PAG@Z 00458220 f i VisualStylesXP.obj
 0001:00057230       ?DrawThemeEdgeFail@CVisualStylesXP@@CAJPAXPAUHDC__@@HHPBUtagRECT@@IIPAU3@@Z 00458230 f i VisualStylesXP.obj
 0001:00057240       ?DrawThemeIconFail@CVisualStylesXP@@CAJPAXPAUHDC__@@HHPBUtagRECT@@PAU_IMAGELIST@@H@Z 00458240 f i VisualStylesXP.obj
 0001:00057250       ?IsThemePartDefinedFail@CVisualStylesXP@@CAHPAXHH@Z 00458250 f i VisualStylesXP.obj
 0001:00057260       ?IsThemeBackgroundPartiallyTransparentFail@CVisualStylesXP@@CAHPAXHH@Z 00458260 f i VisualStylesXP.obj
 0001:00057270       ?GetThemeColorFail@CVisualStylesXP@@CAJPAXHHHPAK@Z 00458270 f i VisualStylesXP.obj
 0001:00057280       ?GetThemeMetricFail@CVisualStylesXP@@CAJPAXPAUHDC__@@HHHPAH@Z 00458280 f i VisualStylesXP.obj
 0001:00057290       ?GetThemeStringFail@CVisualStylesXP@@CAJPAXHHHPAGH@Z 00458290 f i VisualStylesXP.obj
 0001:000572a0       ?GetThemeBoolFail@CVisualStylesXP@@CAJPAXHHHPAH@Z 004582a0 f i VisualStylesXP.obj
 0001:000572b0       ?GetThemeIntFail@CVisualStylesXP@@CAJPAXHHHPAH@Z 004582b0 f i VisualStylesXP.obj
 0001:000572c0       ?GetThemeEnumValueFail@CVisualStylesXP@@CAJPAXHHHPAH@Z 004582c0 f i VisualStylesXP.obj
 0001:000572d0       ?GetThemePositionFail@CVisualStylesXP@@CAJPAXHHHPAUtagPOINT@@@Z 004582d0 f i VisualStylesXP.obj
 0001:000572e0       ?GetThemeFontFail@CVisualStylesXP@@CAJPAXPAUHDC__@@HHHPAUtagLOGFONTA@@@Z 004582e0 f i VisualStylesXP.obj
 0001:000572f0       ?GetThemeRectFail@CVisualStylesXP@@CAJPAXHHHPAUtagRECT@@@Z 004582f0 f i VisualStylesXP.obj
 0001:00057300       ?GetThemeMarginsFail@CVisualStylesXP@@CAJPAXPAUHDC__@@HHHPAUtagRECT@@PAU_MARGINS@@@Z 00458300 f i VisualStylesXP.obj
 0001:00057310       ?GetThemeIntListFail@CVisualStylesXP@@CAJPAXHHHPAU_INTLIST@@@Z 00458310 f i VisualStylesXP.obj
 0001:00057320       ?GetThemePropertyOriginFail@CVisualStylesXP@@CAJPAXHHHPAW4PROPERTYORIGIN@@@Z 00458320 f i VisualStylesXP.obj
 0001:00057330       ?SetWindowThemeFail@CVisualStylesXP@@CAJPAUHWND__@@PBG1@Z 00458330 f i VisualStylesXP.obj
 0001:00057340       ?GetThemeFilenameFail@CVisualStylesXP@@CAJPAXHHHPAGH@Z 00458340 f i VisualStylesXP.obj
 0001:00057350       ?GetThemeSysColorFail@CVisualStylesXP@@CAKPAXH@Z 00458350 f i VisualStylesXP.obj
 0001:00057360       ?GetThemeSysColorBrushFail@CVisualStylesXP@@CAPAUHBRUSH__@@PAXH@Z 00458360 f i VisualStylesXP.obj
 0001:00057370       ?GetThemeSysBoolFail@CVisualStylesXP@@CAHPAXH@Z 00458370 f i VisualStylesXP.obj
 0001:00057380       ?GetThemeSysSizeFail@CVisualStylesXP@@CAHPAXH@Z 00458380 f i VisualStylesXP.obj
 0001:00057390       ?GetThemeSysFontFail@CVisualStylesXP@@CAJPAXHPAUtagLOGFONTA@@@Z 00458390 f i VisualStylesXP.obj
 0001:000573a0       ?GetThemeSysStringFail@CVisualStylesXP@@CAJPAXHPAGH@Z 004583a0 f i VisualStylesXP.obj
 0001:000573b0       ?GetThemeSysIntFail@CVisualStylesXP@@CAJPAXHPAH@Z 004583b0 f i VisualStylesXP.obj
 0001:000573c0       ?IsThemeActiveFail@CVisualStylesXP@@CAHXZ 004583c0 f i VisualStylesXP.obj
 0001:000573d0       ?IsAppThemedFail@CVisualStylesXP@@CAHXZ 004583d0 f i VisualStylesXP.obj
 0001:000573e0       ?GetWindowThemeFail@CVisualStylesXP@@CAPAXPAUHWND__@@@Z 004583e0 f i VisualStylesXP.obj
 0001:000573f0       ?EnableThemeDialogTextureFail@CVisualStylesXP@@CAJPAUHWND__@@K@Z 004583f0 f i VisualStylesXP.obj
 0001:00057400       ?IsThemeDialogTextureEnabledFail@CVisualStylesXP@@CAHPAUHWND__@@@Z 00458400 f i VisualStylesXP.obj
 0001:00057410       ?GetThemeAppPropertiesFail@CVisualStylesXP@@CAKXZ 00458410 f i VisualStylesXP.obj
 0001:00057420       ?SetThemeAppPropertiesFail@CVisualStylesXP@@CAXK@Z 00458420 f i VisualStylesXP.obj
 0001:00057430       ?GetCurrentThemeNameFail@CVisualStylesXP@@CAJPAGH0H0H@Z 00458430 f i VisualStylesXP.obj
 0001:00057440       ?GetThemeDocumentationPropertyFail@CVisualStylesXP@@CAJPBG0PAGH@Z 00458440 f i VisualStylesXP.obj
 0001:00057450       ?DrawThemeParentBackgroundFail@CVisualStylesXP@@CAJPAUHWND__@@PAUHDC__@@PAUtagRECT@@@Z 00458450 f i VisualStylesXP.obj
 0001:00057460       ?EnableThemingFail@CVisualStylesXP@@CAJH@Z 00458460 f i VisualStylesXP.obj
 0001:00057530       ?_GetBaseMessageMap@CXComboList@@KGPBUAFX_MSGMAP@@XZ 00458530 f   XComboList.obj
 0001:00057540       ?GetMessageMap@CXComboList@@MBEPBUAFX_MSGMAP@@XZ 00458540 f   XComboList.obj
 0001:00057550       ??0CXComboList@@QAE@PAVCWnd@@@Z 00458550 f   XComboList.obj
 0001:000575e0       ??_ECXComboList@@UAEPAXI@Z 004585e0 f i XComboList.obj
 0001:000575e0       ??_GCXComboList@@UAEPAXI@Z 004585e0 f i XComboList.obj
 0001:00057600       ??1CXComboList@@UAE@XZ     00458600 f   XComboList.obj
 0001:00057670       ?SetActive@CXComboList@@QAEXH@Z 00458670 f   XComboList.obj
 0001:00057880       ?GetScrollBarCtrl@CXComboList@@UAEPAVCScrollBar@@H@Z 00458880 f   XComboList.obj
 0001:00057890       ?SendRegisteredMessage@CXComboList@@IAEXIIJ@Z 00458890 f   XComboList.obj
 0001:000578c0       ?OnLButtonDown@CXComboList@@IAEXIVCPoint@@@Z 004588c0 f   XComboList.obj
 0001:000578e0       ?PreTranslateMessage@CXComboList@@UAEHPAUtagMSG@@@Z 004588e0 f   XComboList.obj
 0001:00057b40       ?OnKillFocus@CXComboList@@IAEXPAVCWnd@@@Z 00458b40 f   XComboList.obj
 0001:00057b80       ?OnCreate@CXComboList@@IAEHPAUtagCREATESTRUCTA@@@Z 00458b80 f   XComboList.obj
 0001:00057c30       ?OnVScroll@CXComboList@@IAEXIIPAVCScrollBar@@@Z 00458c30 f   XComboList.obj
 0001:00057d40       ?OnDestroy@CXComboList@@IAEXXZ 00458d40 f   XComboList.obj
 0001:00057d70       ?OnTimer@CXComboList@@IAEXI@Z 00458d70 f   XComboList.obj
 0001:00057e20       ??0CPoint@@QAE@UtagPOINT@@@Z 00458e20 f i XComboList.obj
 0001:00057e40       ??_ECScrollBar@@UAEPAXI@Z  00458e40 f i XComboList.obj
 0001:00057e40       ??_GCScrollBar@@UAEPAXI@Z  00458e40 f i XComboList.obj
 0001:00057e60       ?CreateObject@CXHeaderCtrl@@SGPAVCObject@@XZ 00458e60 f   XHeaderCtrl.obj
 0001:00057ec0       ?_GetBaseClass@CXHeaderCtrl@@KGPAUCRuntimeClass@@XZ 00458ec0 f   XHeaderCtrl.obj
 0001:00057ed0       ?GetRuntimeClass@CXHeaderCtrl@@UBEPAUCRuntimeClass@@XZ 00458ed0 f   XHeaderCtrl.obj
 0001:00057ee0       ?_GetBaseMessageMap@CXHeaderCtrl@@KGPBUAFX_MSGMAP@@XZ 00458ee0 f   XHeaderCtrl.obj
 0001:00057ef0       ?GetMessageMap@CXHeaderCtrl@@MBEPBUAFX_MSGMAP@@XZ 00458ef0 f   XHeaderCtrl.obj
 0001:00057f00       ??0CXHeaderCtrl@@QAE@XZ    00458f00 f   XHeaderCtrl.obj
 0001:00057f70       ??_GCXHeaderCtrl@@UAEPAXI@Z 00458f70 f i XHeaderCtrl.obj
 0001:00057f70       ??_ECXHeaderCtrl@@UAEPAXI@Z 00458f70 f i XHeaderCtrl.obj
 0001:00057f90       ??1CXHeaderCtrl@@UAE@XZ    00458f90 f   XHeaderCtrl.obj
 0001:00057fa0       ?ModifyProperty@CXHeaderCtrl@@QAEHIJ@Z 00458fa0 f   XHeaderCtrl.obj
 0001:00058010       ?DrawCtrl@CXHeaderCtrl@@IAEXPAVCDC@@@Z 00459010 f   XHeaderCtrl.obj
 0001:000583c0       ?DrawItem@CXHeaderCtrl@@UAEXPAUtagDRAWITEMSTRUCT@@@Z 004593c0 f   XHeaderCtrl.obj
 0001:000583d0       ?DrawItem@CXHeaderCtrl@@UAEXPAVCDC@@VCRect@@PAU_HD_ITEMA@@@Z 004593d0 f   XHeaderCtrl.obj
 0001:000584c0       ?DrawImage@CXHeaderCtrl@@IAEHPAVCDC@@VCRect@@PAU_HD_ITEMA@@H@Z 004594c0 f   XHeaderCtrl.obj
 0001:000585d0       ?DrawBitmap@CXHeaderCtrl@@IAEHPAVCDC@@VCRect@@PAU_HD_ITEMA@@PAVCBitmap@@PAUtagBITMAP@@H@Z 004595d0 f   XHeaderCtrl.obj
 0001:00058710       ?DrawTextA@CXHeaderCtrl@@IAEHPAVCDC@@VCRect@@PAU_HD_ITEMA@@@Z 00459710 f   XHeaderCtrl.obj
 0001:000587c0       ?OnInsertItem@CXHeaderCtrl@@IAEJIJ@Z 004597c0 f   XHeaderCtrl.obj
 0001:000587d0       ?OnDeleteItem@CXHeaderCtrl@@IAEJIJ@Z 004597d0 f   XHeaderCtrl.obj
 0001:000587e0       ?OnSetImageList@CXHeaderCtrl@@IAEJIJ@Z 004597e0 f   XHeaderCtrl.obj
 0001:00058830       ?OnLayout@CXHeaderCtrl@@IAEJIJ@Z 00459830 f   XHeaderCtrl.obj
 0001:00058870       ?OnSysColorChange@CXHeaderCtrl@@IAEXXZ 00459870 f   XHeaderCtrl.obj
 0001:000588a0       ?OnEraseBkgnd@CXHeaderCtrl@@IAEHPAVCDC@@@Z 004598a0 f   XHeaderCtrl.obj
 0001:000588b0       ?OnPaint@CXHeaderCtrl@@IAEXXZ 004598b0 f   XHeaderCtrl.obj
 0001:00058be0       ?_GetBaseMessageMap@CXListCtrl@@KGPBUAFX_MSGMAP@@XZ 00459be0 f   XListCtrl.obj
 0001:00058bf0       ?GetMessageMap@CXListCtrl@@MBEPBUAFX_MSGMAP@@XZ 00459bf0 f   XListCtrl.obj
 0001:00058c00       ??0CXListCtrl@@QAE@XZ      00459c00 f   XListCtrl.obj
 0001:00058d40       ??_ECXListCtrl@@UAEPAXI@Z  00459d40 f i XListCtrl.obj
 0001:00058d40       ??_GCXListCtrl@@UAEPAXI@Z  00459d40 f i XListCtrl.obj
 0001:00058d60       ??1CXListCtrl@@UAE@XZ      00459d60 f   XListCtrl.obj
 0001:00058e10       ?PreSubclassWindow@CXListCtrl@@UAEXXZ 00459e10 f   XListCtrl.obj
 0001:00058e30       ?OnCreate@CXListCtrl@@IAEHPAUtagCREATESTRUCTA@@@Z 00459e30 f   XListCtrl.obj
 0001:00058e50       ?SubclassHeaderControl@CXListCtrl@@IAEXXZ 00459e50 f   XListCtrl.obj
 0001:00058e80       ?OnClick@CXListCtrl@@IAEHPAUtagNMHDR@@PAJ@Z 00459e80 f   XListCtrl.obj
 0001:00058ea0       ?OnCustomDraw@CXListCtrl@@IAEXPAUtagNMHDR@@PAJ@Z 00459ea0 f   XListCtrl.obj
 0001:000590e0       ?DrawProgress@CXListCtrl@@IAEXHHPAVCDC@@KKAAVCRect@@PAUXLISTCTRLDATA@@@Z 0045a0e0 f   XListCtrl.obj
 0001:00059520       ?DrawComboBox@CXListCtrl@@IAEXHHPAVCDC@@KKAAVCRect@@PAUXLISTCTRLDATA@@@Z 0045a520 f   XListCtrl.obj
 0001:00059d40       ?DrawCheckbox@CXListCtrl@@IAEXHHPAVCDC@@KKAAVCRect@@PAUXLISTCTRLDATA@@@Z 0045ad40 f   XListCtrl.obj
 0001:0005a020       ?GetDrawColors@CXListCtrl@@IAEXHHAAK0@Z 0045b020 f   XListCtrl.obj
 0001:0005a110       ?DrawImage@CXListCtrl@@IAEHHHPAVCDC@@KKVCRect@@PAUXLISTCTRLDATA@@@Z 0045b110 f   XListCtrl.obj
 0001:0005a2b0       ?DrawTextA@CXListCtrl@@IAEXHHPAVCDC@@KKAAVCRect@@PAUXLISTCTRLDATA@@@Z 0045b2b0 f   XListCtrl.obj
 0001:0005a4d0       ?GetSubItemRect@CXListCtrl@@QAEHHHHAAVCRect@@@Z 0045b4d0 f   XListCtrl.obj
 0001:0005a570       ?OnLButtonDown@CXListCtrl@@IAEXIVCPoint@@@Z 0045b570 f   XListCtrl.obj
 0001:0005a810       ?OnPaint@CXListCtrl@@IAEXXZ 0045b810 f   XListCtrl.obj
 0001:0005a9b0       ?InsertItem@CXListCtrl@@QAEHPBUtagLVITEMA@@@Z 0045b9b0 f   XListCtrl.obj
 0001:0005aad0       ??0XLISTCTRLDATA@@QAE@XZ   0045bad0 f i XListCtrl.obj
 0001:0005ab90       ??_EXLISTCTRLDATA@@QAEPAXI@Z 0045bb90 f i XListCtrl.obj
 0001:0005abf0       ??1XLISTCTRLDATA@@QAE@XZ   0045bbf0 f i XListCtrl.obj
 0001:0005ac40       ?InsertItem@CXListCtrl@@QAEHHPBD@Z 0045bc40 f   XListCtrl.obj
 0001:0005ac70       ?InsertItem@CXListCtrl@@QAEHHPBDKK@Z 0045bc70 f   XListCtrl.obj
 0001:0005ad50       ?SetItem@CXListCtrl@@QAEHPBUtagLVITEMA@@@Z 0045bd50 f   XListCtrl.obj
 0001:0005adc0       ?SetItemImage@CXListCtrl@@QAEHHHH@Z 0045bdc0 f   XListCtrl.obj
 0001:0005ae30       ?SetItemText@CXListCtrl@@QAEHHHPBD@Z 0045be30 f   XListCtrl.obj
 0001:0005aea0       ?SetItemText@CXListCtrl@@QAEHHHPBDKK@Z 0045bea0 f   XListCtrl.obj
 0001:0005af50       ?DeleteItem@CXListCtrl@@QAEHH@Z 0045bf50 f   XListCtrl.obj
 0001:0005afe0       ?DeleteAllItems@CXListCtrl@@QAEHXZ 0045bfe0 f   XListCtrl.obj
 0001:0005b060       ?OnDestroy@CXListCtrl@@IAEXXZ 0045c060 f   XListCtrl.obj
 0001:0005b0e0       ?SetProgress@CXListCtrl@@QAEHHHHPBD@Z 0045c0e0 f   XListCtrl.obj
 0001:0005b170       ?DeleteProgress@CXListCtrl@@QAEXHH@Z 0045c170 f   XListCtrl.obj
 0001:0005b1e0       ?UpdateProgress@CXListCtrl@@QAEXHHH@Z 0045c1e0 f   XListCtrl.obj
 0001:0005b250       ?SetCheckbox@CXListCtrl@@QAEHHHH@Z 0045c250 f   XListCtrl.obj
 0001:0005b320       ?GetCheckbox@CXListCtrl@@QAEHHH@Z 0045c320 f   XListCtrl.obj
 0001:0005b380       ?GetEnabled@CXListCtrl@@QAEHH@Z 0045c380 f   XListCtrl.obj
 0001:0005b3c0       ?SetEnabled@CXListCtrl@@QAEHHH@Z 0045c3c0 f   XListCtrl.obj
 0001:0005b440       ?SetBold@CXListCtrl@@QAEHHHH@Z 0045c440 f   XListCtrl.obj
 0001:0005b4b0       ?GetBold@CXListCtrl@@QAEHHH@Z 0045c4b0 f   XListCtrl.obj
 0001:0005b510       ?SetComboBox@CXListCtrl@@QAEHHHHPAVCStringArray@@HH@Z 0045c510 f   XListCtrl.obj
 0001:0005b660       ?GetComboText@CXListCtrl@@QAE?AVCString@@HH@Z 0045c660 f   XListCtrl.obj
 0001:0005b770       ?SetCurSel@CXListCtrl@@QAEHH@Z 0045c770 f   XListCtrl.obj
 0001:0005b790       ?GetCurSel@CXListCtrl@@QAEHXZ 0045c790 f   XListCtrl.obj
 0001:0005b7d0       ?UpdateSubItem@CXListCtrl@@QAEXHH@Z 0045c7d0 f   XListCtrl.obj
 0001:0005b860       ?GetColumns@CXListCtrl@@QAEHXZ 0045c860 f   XListCtrl.obj
 0001:0005b880       ?GetItemData@CXListCtrl@@QAEKH@Z 0045c880 f   XListCtrl.obj
 0001:0005b8c0       ?SetItemData@CXListCtrl@@QAEHHK@Z 0045c8c0 f   XListCtrl.obj
 0001:0005b910       ?GetHeaderCheckedState@CXListCtrl@@QAEHH@Z 0045c910 f   XListCtrl.obj
 0001:0005b960       ?SetHeaderCheckedState@CXListCtrl@@QAEHHH@Z 0045c960 f   XListCtrl.obj
 0001:0005b9c0       ?OnColumnClick@CXListCtrl@@IAEHPAUtagNMHDR@@PAJ@Z 0045c9c0 f   XListCtrl.obj
 0001:0005ba90       ?CountCheckedItems@CXListCtrl@@QAEHH@Z 0045ca90 f   XListCtrl.obj
 0001:0005bb10       ?OnSysColorChange@CXListCtrl@@IAEXXZ 0045cb10 f   XListCtrl.obj
 0001:0005bb90       ?UnpressComboButton@CXListCtrl@@IAEXXZ 0045cb90 f   XListCtrl.obj
 0001:0005bc40       ?OnTimer@CXListCtrl@@IAEXI@Z 0045cc40 f   XListCtrl.obj
 0001:0005bfd0       ?OnComboEscape@CXListCtrl@@IAEJIJ@Z 0045cfd0 f   XListCtrl.obj
 0001:0005c030       ?OnComboReturn@CXListCtrl@@IAEJIJ@Z 0045d030 f   XListCtrl.obj
 0001:0005c060       ?OnComboLButtonUp@CXListCtrl@@IAEJIJ@Z 0045d060 f   XListCtrl.obj
 0001:0005c090       ?OnComboKeydown@CXListCtrl@@IAEJIJ@Z 0045d090 f   XListCtrl.obj
 0001:0005c0b0       ?OnToolHitTest@CXListCtrl@@UBEHVCPoint@@PAUtagTOOLINFOA@@@Z 0045d0b0 f   XListCtrl.obj
 0001:0005c150       ?OnToolTipText@CXListCtrl@@MAEHIPAUtagNMHDR@@PAJ@Z 0045d150 f   XListCtrl.obj
 0001:0005c280       ?SetItemToolTipText@CXListCtrl@@QAEHHHPBD@Z 0045d280 f   XListCtrl.obj
 0001:0005c2f0       ?GetItemToolTipText@CXListCtrl@@QAE?AVCString@@HH@Z 0045d2f0 f   XListCtrl.obj
 0001:0005c3e0       ?DeleteAllToolTips@CXListCtrl@@QAEXXZ 0045d3e0 f   XListCtrl.obj
 0001:0005c450       ??_9@$BME@AE               0045d450 f i XListCtrl.obj
 0001:0005c4f0       ??0CResizableDialog@@QAE@XZ 0045d4f0 f   ResizableDialog.obj
 0001:0005c5c0       ??1CResizableLayout@@UAE@XZ 0045d5c0 f i ResizableDialog.obj
 0001:0005c630       ??_ECResizableLayout@@UAEPAXI@Z 0045d630 f i ResizableDialog.obj
 0001:0005c630       ??_GCResizableLayout@@UAEPAXI@Z 0045d630 f i ResizableDialog.obj
 0001:0005c650       ??_ECResizableDialog@@UAEPAXI@Z 0045d650 f i ResizableDialog.obj
 0001:0005c650       ??_GCResizableDialog@@UAEPAXI@Z 0045d650 f i ResizableDialog.obj
 0001:0005c670       ??0CResizableDialog@@QAE@IPAVCWnd@@@Z 0045d670 f   ResizableDialog.obj
 0001:0005c750       ??0CResizableDialog@@QAE@PBDPAVCWnd@@@Z 0045d750 f   ResizableDialog.obj
 0001:0005c830       ??1CResizableDialog@@UAE@XZ 0045d830 f   ResizableDialog.obj
 0001:0005c940       ?_GetBaseMessageMap@CResizableDialog@@KGPBUAFX_MSGMAP@@XZ 0045d940 f   ResizableDialog.obj
 0001:0005c950       ?GetMessageMap@CResizableDialog@@MBEPBUAFX_MSGMAP@@XZ 0045d950 f   ResizableDialog.obj
 0001:0005c960       ?OnCreate@CResizableDialog@@IAEHPAUtagCREATESTRUCTA@@@Z 0045d960 f   ResizableDialog.obj
 0001:0005ca20       ?OnInitDialog@CResizableDialog@@MAEHXZ 0045da20 f   ResizableDialog.obj
 0001:0005ca80       ?OnDestroy@CResizableDialog@@IAEXXZ 0045da80 f   ResizableDialog.obj
 0001:0005cad0       ?OnSize@CResizableDialog@@IAEXIHH@Z 0045dad0 f   ResizableDialog.obj
 0001:0005cb10       ?OnGetMinMaxInfo@CResizableDialog@@IAEXPAUtagMINMAXINFO@@@Z 0045db10 f   ResizableDialog.obj
 0001:0005cb30       ?EnableSaveRestore@CResizableDialog@@IAEXPBDH@Z 0045db30 f   ResizableDialog.obj
 0001:0005cb70       ?OnEraseBkgnd@CResizableDialog@@IAEHPAVCDC@@@Z 0045db70 f   ResizableDialog.obj
 0001:0005cb90       ??1?$CArray@VLayoutInfo@CResizableLayout@@AAV12@@@UAE@XZ 0045db90 f i ResizableDialog.obj
 0001:0005cbc0       ?Serialize@?$CArray@VLayoutInfo@CResizableLayout@@AAV12@@@UAEXAAVCArchive@@@Z 0045dbc0 f i ResizableDialog.obj
 0001:0005cd50       ??_E?$CArray@VLayoutInfo@CResizableLayout@@AAV12@@@UAEPAXI@Z 0045dd50 f i ResizableDialog.obj
 0001:0005cd50       ??_G?$CArray@VLayoutInfo@CResizableLayout@@AAV12@@@UAEPAXI@Z 0045dd50 f i ResizableDialog.obj
 0001:0005cd70       ?SetSize@?$CArray@VLayoutInfo@CResizableLayout@@AAV12@@@QAEXHH@Z 0045dd70 f i ResizableDialog.obj
 0001:0005ceb0       ?ConstructElements@@YGXPAVLayoutInfo@CResizableLayout@@H@Z 0045deb0 f i ResizableDialog.obj
 0001:0005cf00       ??_ECResizableDialog@@WGA@AEPAXI@Z 0045df00 f i ResizableDialog.obj
 0001:0005cf10       ??_ECResizableDialog@@WHM@AEPAXI@Z 0045df10 f i ResizableDialog.obj
 0001:0005cf20       ??_ECResizableDialog@@WMI@AEPAXI@Z 0045df20 f i ResizableDialog.obj
 0001:0005cf30       ??_ECResizableDialog@@WPI@AEPAXI@Z 0045df30 f i ResizableDialog.obj
 0001:0005cfd0       ?_GetBaseClass@CResizableFormView@@KGPAUCRuntimeClass@@XZ 0045dfd0 f   ResizableFormView.obj
 0001:0005cfe0       ?GetRuntimeClass@CResizableFormView@@UBEPAUCRuntimeClass@@XZ 0045dfe0 f   ResizableFormView.obj
 0001:0005cff0       ??0CResizableFormView@@IAE@I@Z 0045dff0 f   ResizableFormView.obj
 0001:0005d050       ?GetResizableWnd@CResizableFormView@@MAEPAVCWnd@@XZ 0045e050 f i ResizableFormView.obj
 0001:0005d060       ??_GCResizableFormView@@MAEPAXI@Z 0045e060 f i ResizableFormView.obj
 0001:0005d060       ??_ECResizableFormView@@MAEPAXI@Z 0045e060 f i ResizableFormView.obj
 0001:0005d080       ??0CResizableFormView@@IAE@PBD@Z 0045e080 f   ResizableFormView.obj
 0001:0005d0e0       ??1CResizableFormView@@MAE@XZ 0045e0e0 f   ResizableFormView.obj
 0001:0005d190       ??1CFormView@@UAE@XZ       0045e190 f i ResizableFormView.obj
 0001:0005d1a0       ?_GetBaseMessageMap@CResizableFormView@@KGPBUAFX_MSGMAP@@XZ 0045e1a0 f   ResizableFormView.obj
 0001:0005d1b0       ?GetMessageMap@CResizableFormView@@MBEPBUAFX_MSGMAP@@XZ 0045e1b0 f   ResizableFormView.obj
 0001:0005d1c0       ?OnSize@CResizableFormView@@IAEXIHH@Z 0045e1c0 f   ResizableFormView.obj
 0001:0005d200       ?OnInitialUpdate@CResizableFormView@@UAEXXZ 0045e200 f   ResizableFormView.obj
 0001:0005d220       ?GetTotalClientRect@CResizableFormView@@MAEXPAUtagRECT@@@Z 0045e220 f   ResizableFormView.obj
 0001:0005d2b0       ?OnEraseBkgnd@CResizableFormView@@IAEHPAVCDC@@@Z 0045e2b0 f   ResizableFormView.obj
 0001:0005d2d0       ??_ECResizableFormView@@OIA@AEPAXI@Z 0045e2d0 f i ResizableFormView.obj
 0001:0005d2e0       ??0CResizableGrip@@QAE@XZ  0045e2e0 f   ResizableGrip.obj
 0001:0005d320       ??_GCResizableGrip@@UAEPAXI@Z 0045e320 f i ResizableGrip.obj
 0001:0005d320       ??_ECResizableGrip@@UAEPAXI@Z 0045e320 f i ResizableGrip.obj
 0001:0005d340       ??1CResizableGrip@@UAE@XZ  0045e340 f   ResizableGrip.obj
 0001:0005d350       ?UpdateGripPos@CResizableGrip@@IAEXXZ 0045e350 f   ResizableGrip.obj
 0001:0005d3e0       ?ShowSizeGrip@CResizableGrip@@IAEXH@Z 0045e3e0 f   ResizableGrip.obj
 0001:0005d400       ?InitGrip@CResizableGrip@@IAEHXZ 0045e400 f   ResizableGrip.obj
 0001:0005d5c0       ?GripWindowProc@CResizableGrip@@CGJPAUHWND__@@IIJ@Z 0045e5c0 f   ResizableGrip.obj
 0001:0005d6d0       ?AddAnchor@CResizableLayout@@IAEXPAUHWND__@@VCSize@@1@Z 0045e6d0 f   ResizableLayout.obj
 0001:0005dae0       ?AddAnchorCallback@CResizableLayout@@IAEXI@Z 0045eae0 f   ResizableLayout.obj
 0001:0005dc50       ?ArrangeLayoutCallback@CResizableLayout@@MAEHAAVLayoutInfo@1@@Z 0045ec50 f   ResizableLayout.obj
 0001:0005dc60       ?ArrangeLayout@CResizableLayout@@IAEXXZ 0045ec60 f   ResizableLayout.obj
 0001:0005df10       ?EnumAndClipChildWindow@CResizableLayout@@AAEXPAUHWND__@@PAVCDC@@@Z 0045ef10 f   ResizableLayout.obj
 0001:0005e030       ?ClipChildren@CResizableLayout@@IAEXPAVCDC@@@Z 0045f030 f   ResizableLayout.obj
 0001:0005e080       ?GetTotalClientRect@CResizableLayout@@MAEXPAUtagRECT@@@Z 0045f080 f   ResizableLayout.obj
 0001:0005e0a0       ?NeedsRefresh@CResizableLayout@@MAEHPAUHWND__@@@Z 0045f0a0 f   ResizableLayout.obj
 0001:0005e180       ?LikesClipping@CResizableLayout@@MAEHPAUHWND__@@@Z 0045f180 f   ResizableLayout.obj
 0001:0005e2c0       ??0CResizableMinMax@@QAE@XZ 0045f2c0 f   ResizableMinMax.obj
 0001:0005e2e0       ??_ECResizableMinMax@@UAEPAXI@Z 0045f2e0 f i ResizableMinMax.obj
 0001:0005e2e0       ??_GCResizableMinMax@@UAEPAXI@Z 0045f2e0 f i ResizableMinMax.obj
 0001:0005e300       ??1CResizableMinMax@@UAE@XZ 0045f300 f   ResizableMinMax.obj
 0001:0005e310       ?MinMaxInfo@CResizableMinMax@@IAEXPAUtagMINMAXINFO@@@Z 0045f310 f   ResizableMinMax.obj
 0001:0005e360       ?SetMaximizedRect@CResizableMinMax@@IAEXABVCRect@@@Z 0045f360 f   ResizableMinMax.obj
 0001:0005e390       ?ResetMaximizedRect@CResizableMinMax@@IAEXXZ 0045f390 f   ResizableMinMax.obj
 0001:0005e3a0       ?SetMinTrackSize@CResizableMinMax@@IAEXABVCSize@@@Z 0045f3a0 f   ResizableMinMax.obj
 0001:0005e3c0       ?ResetMinTrackSize@CResizableMinMax@@IAEXXZ 0045f3c0 f   ResizableMinMax.obj
 0001:0005e3d0       ?SetMaxTrackSize@CResizableMinMax@@IAEXABVCSize@@@Z 0045f3d0 f   ResizableMinMax.obj
 0001:0005e3f0       ?ResetMaxTrackSize@CResizableMinMax@@IAEXXZ 0045f3f0 f   ResizableMinMax.obj
 0001:0005e490       ?CreateObject@CResizablePage@@SGPAVCObject@@XZ 0045f490 f   ResizablePage.obj
 0001:0005e4f0       ?_GetBaseClass@CResizablePage@@KGPAUCRuntimeClass@@XZ 0045f4f0 f   ResizablePage.obj
 0001:0005e500       ?GetRuntimeClass@CResizablePage@@UBEPAUCRuntimeClass@@XZ 0045f500 f   ResizablePage.obj
 0001:0005e510       ??0CResizablePage@@QAE@XZ  0045f510 f   ResizablePage.obj
 0001:0005e570       ?GetResizableWnd@CResizablePage@@MAEPAVCWnd@@XZ 0045f570 f i ResizablePage.obj
 0001:0005e580       ??_ECResizablePage@@UAEPAXI@Z 0045f580 f i ResizablePage.obj
 0001:0005e580       ??_GCResizablePage@@UAEPAXI@Z 0045f580 f i ResizablePage.obj
 0001:0005e5a0       ??0CResizablePage@@QAE@II@Z 0045f5a0 f   ResizablePage.obj
 0001:0005e610       ??0CResizablePage@@QAE@PBDI@Z 0045f610 f   ResizablePage.obj
 0001:0005e680       ??1CResizablePage@@UAE@XZ  0045f680 f   ResizablePage.obj
 0001:0005e730       ?_GetBaseMessageMap@CResizablePage@@KGPBUAFX_MSGMAP@@XZ 0045f730 f   ResizablePage.obj
 0001:0005e740       ?GetMessageMap@CResizablePage@@MBEPBUAFX_MSGMAP@@XZ 0045f740 f   ResizablePage.obj
 0001:0005e750       ?OnInitDialog@CResizablePage@@MAEHXZ 0045f750 f   ResizablePage.obj
 0001:0005e770       ?OnSize@CResizablePage@@IAEXIHH@Z 0045f770 f   ResizablePage.obj
 0001:0005e7a0       ?OnEraseBkgnd@CResizablePage@@IAEHPAVCDC@@@Z 0045f7a0 f   ResizablePage.obj
 0001:0005e7c0       ??_ECResizablePage@@WJA@AEPAXI@Z 0045f7c0 f i ResizablePage.obj
 0001:0005e860       ?CreateObject@CResizablePageEx@@SGPAVCObject@@XZ 0045f860 f   ResizablePageEx.obj
 0001:0005e8c0       ?_GetBaseClass@CResizablePageEx@@KGPAUCRuntimeClass@@XZ 0045f8c0 f   ResizablePageEx.obj
 0001:0005e8d0       ?GetRuntimeClass@CResizablePageEx@@UBEPAUCRuntimeClass@@XZ 0045f8d0 f   ResizablePageEx.obj
 0001:0005e8e0       ??0CResizablePageEx@@QAE@XZ 0045f8e0 f   ResizablePageEx.obj
 0001:0005e940       ?GetResizableWnd@CResizablePageEx@@MAEPAVCWnd@@XZ 0045f940 f i ResizablePageEx.obj
 0001:0005e950       ??_GCResizablePageEx@@UAEPAXI@Z 0045f950 f i ResizablePageEx.obj
 0001:0005e950       ??_ECResizablePageEx@@UAEPAXI@Z 0045f950 f i ResizablePageEx.obj
 0001:0005e970       ??0CResizablePageEx@@QAE@IIII@Z 0045f970 f   ResizablePageEx.obj
 0001:0005e9e0       ??0CResizablePageEx@@QAE@PBDIII@Z 0045f9e0 f   ResizablePageEx.obj
 0001:0005ea50       ??1CResizablePageEx@@UAE@XZ 0045fa50 f   ResizablePageEx.obj
 0001:0005eb20       ??1CPropertyPageEx@@UAE@XZ 0045fb20 f i ResizablePageEx.obj
 0001:0005eb80       ?_GetBaseMessageMap@CResizablePageEx@@KGPBUAFX_MSGMAP@@XZ 0045fb80 f   ResizablePageEx.obj
 0001:0005eb90       ?GetMessageMap@CResizablePageEx@@MBEPBUAFX_MSGMAP@@XZ 0045fb90 f   ResizablePageEx.obj
 0001:0005eba0       ?OnInitDialog@CResizablePageEx@@MAEHXZ 0045fba0 f   ResizablePageEx.obj
 0001:0005ebc0       ?OnSize@CResizablePageEx@@IAEXIHH@Z 0045fbc0 f   ResizablePageEx.obj
 0001:0005ebf0       ?OnEraseBkgnd@CResizablePageEx@@IAEHPAVCDC@@@Z 0045fbf0 f   ResizablePageEx.obj
 0001:0005ec10       ?NeedsRefresh@CResizablePageEx@@MAEHPAUHWND__@@@Z 0045fc10 f   ResizablePageEx.obj
 0001:0005ec30       ??_ECResizablePageEx@@WJI@AEPAXI@Z 0045fc30 f i ResizablePageEx.obj
 0001:0005ecd0       ?_GetBaseClass@CResizableSheet@@KGPAUCRuntimeClass@@XZ 0045fcd0 f   ResizableSheet.obj
 0001:0005ece0       ?GetRuntimeClass@CResizableSheet@@UBEPAUCRuntimeClass@@XZ 0045fce0 f   ResizableSheet.obj
 0001:0005ecf0       ??0CResizableSheet@@QAE@XZ 0045fcf0 f   ResizableSheet.obj
 0001:0005ede0       ?GetResizableWnd@CResizableSheet@@MAEPAVCWnd@@XZ 0045fde0 f i ResizableSheet.obj
 0001:0005edf0       ??_GCResizableSheet@@UAEPAXI@Z 0045fdf0 f i ResizableSheet.obj
 0001:0005edf0       ??_ECResizableSheet@@UAEPAXI@Z 0045fdf0 f i ResizableSheet.obj
 0001:0005ee10       ??0CResizableSheet@@QAE@IPAVCWnd@@I@Z 0045fe10 f   ResizableSheet.obj
 0001:0005ef20       ??0CResizableSheet@@QAE@PBDPAVCWnd@@I@Z 0045ff20 f   ResizableSheet.obj
 0001:0005f030       ??1CResizableSheet@@UAE@XZ 00460030 f   ResizableSheet.obj
 0001:0005f140       ?_GetBaseMessageMap@CResizableSheet@@KGPBUAFX_MSGMAP@@XZ 00460140 f   ResizableSheet.obj
 0001:0005f150       ?GetMessageMap@CResizableSheet@@MBEPBUAFX_MSGMAP@@XZ 00460150 f   ResizableSheet.obj
 0001:0005f160       ?OnCreate@CResizableSheet@@IAEHPAUtagCREATESTRUCTA@@@Z 00460160 f   ResizableSheet.obj
 0001:0005f220       ?OnInitDialog@CResizableSheet@@UAEHXZ 00460220 f   ResizableSheet.obj
 0001:0005f2c0       ?OnDestroy@CResizableSheet@@IAEXXZ 004602c0 f   ResizableSheet.obj
 0001:0005f330       ?PresetLayout@CResizableSheet@@AAEXXZ 00460330 f   ResizableSheet.obj
 0001:0005f510       ?ArrangeLayoutCallback@CResizableSheet@@MAEHAAVLayoutInfo@CResizableLayout@@@Z 00460510 f   ResizableSheet.obj
 0001:0005f640       ?OnSize@CResizableSheet@@IAEXIHH@Z 00460640 f   ResizableSheet.obj
 0001:0005f680       ?OnPageChanging@CResizableSheet@@IAEHPAUtagNMHDR@@PAJ@Z 00460680 f   ResizableSheet.obj
 0001:0005f6a0       ?OnEraseBkgnd@CResizableSheet@@IAEHPAVCDC@@@Z 004606a0 f   ResizableSheet.obj
 0001:0005f6c0       ?OnGetMinMaxInfo@CResizableSheet@@IAEXPAUtagMINMAXINFO@@@Z 004606c0 f   ResizableSheet.obj
 0001:0005f6e0       ?GetMinWidth@CResizableSheet@@IAEHXZ 004606e0 f   ResizableSheet.obj
 0001:0005f7a0       ?EnableSaveRestore@CResizableSheet@@IAEXPBDHH@Z 004607a0 f   ResizableSheet.obj
 0001:0005f7f0       ?SavePage@CResizableSheet@@AAEXXZ 004607f0 f   ResizableSheet.obj
 0001:0005f860       ?LoadPage@CResizableSheet@@AAEXXZ 00460860 f   ResizableSheet.obj
 0001:0005f8b0       ??_ECResizableSheet@@WIM@AEPAXI@Z 004608b0 f i ResizableSheet.obj
 0001:0005f8c0       ?GetResizableWnd@CResizableSheet@@OBM@AEPAVCWnd@@XZ 004608c0 f i ResizableSheet.obj
 0001:0005f8d0       ??_ECResizableSheet@@WKI@AEPAXI@Z 004608d0 f i ResizableSheet.obj
 0001:0005f8e0       ??_ECResizableSheet@@WPE@AEPAXI@Z 004608e0 f i ResizableSheet.obj
 0001:0005f8f0       ?GetResizableWnd@CResizableSheet@@OJI@AEPAVCWnd@@XZ 004608f0 f i ResizableSheet.obj
 0001:0005f900       ??_ECResizableSheet@@WBCE@AEPAXI@Z 00460900 f i ResizableSheet.obj
 0001:0005f9a0       ?_GetBaseClass@CResizableSheetEx@@KGPAUCRuntimeClass@@XZ 004609a0 f   ResizableSheetEx.obj
 0001:0005f9b0       ?GetRuntimeClass@CResizableSheetEx@@UBEPAUCRuntimeClass@@XZ 004609b0 f   ResizableSheetEx.obj
 0001:0005f9c0       ??0CResizableSheetEx@@QAE@XZ 004609c0 f   ResizableSheetEx.obj
 0001:0005fab0       ?GetResizableWnd@CResizableSheetEx@@MAEPAVCWnd@@XZ 00460ab0 f i ResizableSheetEx.obj
 0001:0005fac0       ??_GCResizableSheetEx@@UAEPAXI@Z 00460ac0 f i ResizableSheetEx.obj
 0001:0005fac0       ??_ECResizableSheetEx@@UAEPAXI@Z 00460ac0 f i ResizableSheetEx.obj
 0001:0005fae0       ??0CResizableSheetEx@@QAE@IPAVCWnd@@IPAUHBITMAP__@@PAUHPALETTE__@@1@Z 00460ae0 f   ResizableSheetEx.obj
 0001:0005fc00       ??0CResizableSheetEx@@QAE@PBDPAVCWnd@@IPAUHBITMAP__@@PAUHPALETTE__@@2@Z 00460c00 f   ResizableSheetEx.obj
 0001:0005fd20       ??1CResizableSheetEx@@UAE@XZ 00460d20 f   ResizableSheetEx.obj
 0001:0005fe30       ?_GetBaseMessageMap@CResizableSheetEx@@KGPBUAFX_MSGMAP@@XZ 00460e30 f   ResizableSheetEx.obj
 0001:0005fe40       ?GetMessageMap@CResizableSheetEx@@MBEPBUAFX_MSGMAP@@XZ 00460e40 f   ResizableSheetEx.obj
 0001:0005fe50       ?OnCreate@CResizableSheetEx@@IAEHPAUtagCREATESTRUCTA@@@Z 00460e50 f   ResizableSheetEx.obj
 0001:0005ff10       ?OnInitDialog@CResizableSheetEx@@UAEHXZ 00460f10 f   ResizableSheetEx.obj
 0001:0005ffc0       ?OnDestroy@CResizableSheetEx@@IAEXXZ 00460fc0 f   ResizableSheetEx.obj
 0001:00060030       ?PresetLayout@CResizableSheetEx@@AAEXXZ 00461030 f   ResizableSheetEx.obj
 0001:00060270       ?ArrangeLayoutCallback@CResizableSheetEx@@MAEHAAVLayoutInfo@CResizableLayout@@@Z 00461270 f   ResizableSheetEx.obj
 0001:00060410       ?OnSize@CResizableSheetEx@@IAEXIHH@Z 00461410 f   ResizableSheetEx.obj
 0001:00060450       ?OnPageChanging@CResizableSheetEx@@IAEHPAUtagNMHDR@@PAJ@Z 00461450 f   ResizableSheetEx.obj
 0001:00060470       ?OnEraseBkgnd@CResizableSheetEx@@IAEHPAVCDC@@@Z 00461470 f   ResizableSheetEx.obj
 0001:00060490       ?OnGetMinMaxInfo@CResizableSheetEx@@IAEXPAUtagMINMAXINFO@@@Z 00461490 f   ResizableSheetEx.obj
 0001:000604b0       ?GetMinWidth@CResizableSheetEx@@IAEHXZ 004614b0 f   ResizableSheetEx.obj
 0001:00060570       ?EnableSaveRestore@CResizableSheetEx@@IAEXPBDHH@Z 00461570 f   ResizableSheetEx.obj
 0001:000605c0       ?SavePage@CResizableSheetEx@@AAEXXZ 004615c0 f   ResizableSheetEx.obj
 0001:00060630       ?LoadPage@CResizableSheetEx@@AAEXXZ 00461630 f   ResizableSheetEx.obj
 0001:00060680       ??_ECResizableSheetEx@@WMA@AEPAXI@Z 00461680 f i ResizableSheetEx.obj
 0001:00060690       ?GetResizableWnd@CResizableSheetEx@@OBM@AEPAVCWnd@@XZ 00461690 f i ResizableSheetEx.obj
 0001:000606a0       ??_ECResizableSheetEx@@WNM@AEPAXI@Z 004616a0 f i ResizableSheetEx.obj
 0001:000606b0       ??_ECResizableSheetEx@@WBCI@AEPAXI@Z 004616b0 f i ResizableSheetEx.obj
 0001:000606c0       ?GetResizableWnd@CResizableSheetEx@@OJI@AEPAVCWnd@@XZ 004616c0 f i ResizableSheetEx.obj
 0001:000606d0       ??_ECResizableSheetEx@@WBFI@AEPAXI@Z 004616d0 f i ResizableSheetEx.obj
 0001:000606e0       ??0CResizableState@@QAE@XZ 004616e0 f   ResizableState.obj
 0001:000606f0       ??_GCResizableState@@UAEPAXI@Z 004616f0 f i ResizableState.obj
 0001:000606f0       ??_ECResizableState@@UAEPAXI@Z 004616f0 f i ResizableState.obj
 0001:00060710       ??1CResizableState@@UAE@XZ 00461710 f   ResizableState.obj
 0001:00060720       ?SaveWindowRect@CResizableState@@IAEHPBDH@Z 00461720 f   ResizableState.obj
 0001:00060860       ?LoadWindowRect@CResizableState@@IAEHPBDH@Z 00461860 f   ResizableState.obj
 0001:000609f0       ??0CppSQLite3Exception@@QAE@HPAD_N@Z 004619f0 f   CppSQLite3.obj
 0001:00060a50       ??_GCppSQLite3Exception@@UAEPAXI@Z 00461a50 f i CppSQLite3.obj
 0001:00060a50       ??_ECppSQLite3Exception@@UAEPAXI@Z 00461a50 f i CppSQLite3.obj
 0001:00060a70       ??0CppSQLite3Exception@@QAE@ABV0@@Z 00461a70 f   CppSQLite3.obj
 0001:00060ab0       ?errorCodeAsString@CppSQLite3Exception@@SAPBDH@Z 00461ab0 f   CppSQLite3.obj
 0001:00060c00       ??1CppSQLite3Exception@@UAE@XZ 00461c00 f   CppSQLite3.obj
 0001:00060c30       ??0CppSQLite3Buffer@@QAE@XZ 00461c30 f   CppSQLite3.obj
 0001:00060c40       ??1CppSQLite3Buffer@@QAE@XZ 00461c40 f   CppSQLite3.obj
 0001:00060c50       ?clear@CppSQLite3Buffer@@QAEXXZ 00461c50 f   CppSQLite3.obj
 0001:00060c70       ?format@CppSQLite3Buffer@@QAAPBDPBDZZ 00461c70 f   CppSQLite3.obj
 0001:00060ca0       ??0CppSQLite3Binary@@QAE@XZ 00461ca0 f   CppSQLite3.obj
 0001:00060cc0       ??1CppSQLite3Binary@@QAE@XZ 00461cc0 f   CppSQLite3.obj
 0001:00060cd0       ?setBinary@CppSQLite3Binary@@QAEXPBEH@Z 00461cd0 f   CppSQLite3.obj
 0001:00060d00       ?setEncoded@CppSQLite3Binary@@QAEXPBE@Z 00461d00 f   CppSQLite3.obj
 0001:00060d80       ?getEncoded@CppSQLite3Binary@@QAEPBEXZ 00461d80 f   CppSQLite3.obj
 0001:00060de0       ?getBinary@CppSQLite3Binary@@QAEPBEXZ 00461de0 f   CppSQLite3.obj
 0001:00060e30       ?getBinaryLength@CppSQLite3Binary@@QAEHXZ 00461e30 f   CppSQLite3.obj
 0001:00060e40       ?allocBuffer@CppSQLite3Binary@@QAEPAEH@Z 00461e40 f   CppSQLite3.obj
 0001:00060eb0       ?clear@CppSQLite3Binary@@QAEXXZ 00461eb0 f   CppSQLite3.obj
 0001:00060ee0       ??0CppSQLite3Query@@QAE@XZ 00461ee0 f   CppSQLite3.obj
 0001:00060f00       ??_ECppSQLite3Query@@UAEPAXI@Z 00461f00 f i CppSQLite3.obj
 0001:00060f00       ??_GCppSQLite3Query@@UAEPAXI@Z 00461f00 f i CppSQLite3.obj
 0001:00060f20       ??0CppSQLite3Query@@QAE@ABV0@@Z 00461f20 f   CppSQLite3.obj
 0001:00060f50       ??0CppSQLite3Query@@QAE@PAUsqlite3@@PAUsqlite3_stmt@@_N2@Z 00461f50 f   CppSQLite3.obj
 0001:00060f90       ??1CppSQLite3Query@@UAE@XZ 00461f90 f   CppSQLite3.obj
 0001:00060fe0       ??4CppSQLite3Query@@QAEAAV0@ABV0@@Z 00461fe0 f   CppSQLite3.obj
 0001:00061060       ?numFields@CppSQLite3Query@@QAEHXZ 00462060 f   CppSQLite3.obj
 0001:00061070       ?fieldValue@CppSQLite3Query@@QAEPBDH@Z 00462070 f   CppSQLite3.obj
 0001:000610d0       ?fieldValue@CppSQLite3Query@@QAEPBDPBD@Z 004620d0 f   CppSQLite3.obj
 0001:000610f0       ?getIntField@CppSQLite3Query@@QAEHHH@Z 004620f0 f   CppSQLite3.obj
 0001:00061120       ?getIntField@CppSQLite3Query@@QAEHPBDH@Z 00462120 f   CppSQLite3.obj
 0001:00061140       ?getFloatField@CppSQLite3Query@@QAENHN@Z 00462140 f   CppSQLite3.obj
 0001:00061170       ?getFloatField@CppSQLite3Query@@QAENPBDN@Z 00462170 f   CppSQLite3.obj
 0001:000611a0       ?getStringField@CppSQLite3Query@@QAEPBDHPBD@Z 004621a0 f   CppSQLite3.obj
 0001:000611d0       ?getStringField@CppSQLite3Query@@QAEPBDPBD0@Z 004621d0 f   CppSQLite3.obj
 0001:000611f0       ?getBlobField@CppSQLite3Query@@QAEPBEHAAH@Z 004621f0 f   CppSQLite3.obj
 0001:00061260       ?getBlobField@CppSQLite3Query@@QAEPBEPBDAAH@Z 00462260 f   CppSQLite3.obj
 0001:00061280       ?fieldIsNull@CppSQLite3Query@@QAE_NH@Z 00462280 f   CppSQLite3.obj
 0001:000612a0       ?fieldIsNull@CppSQLite3Query@@QAE_NPBD@Z 004622a0 f   CppSQLite3.obj
 0001:000612d0       ?fieldIndex@CppSQLite3Query@@QAEHPBD@Z 004622d0 f   CppSQLite3.obj
 0001:00061370       ?fieldName@CppSQLite3Query@@QAEPBDH@Z 00462370 f   CppSQLite3.obj
 0001:000613d0       ?fieldDeclType@CppSQLite3Query@@QAEPBDH@Z 004623d0 f   CppSQLite3.obj
 0001:00061430       ?fieldDataType@CppSQLite3Query@@QAEHH@Z 00462430 f   CppSQLite3.obj
 0001:00061490       ?eof@CppSQLite3Query@@QAE_NXZ 00462490 f   CppSQLite3.obj
 0001:000614a0       ?nextRow@CppSQLite3Query@@QAEXXZ 004624a0 f   CppSQLite3.obj
 0001:00061510       ?finalize@CppSQLite3Query@@QAEXXZ 00462510 f   CppSQLite3.obj
 0001:00061570       ?checkVM@CppSQLite3Query@@AAEXXZ 00462570 f   CppSQLite3.obj
 0001:000615b0       ??0CppSQLite3Table@@QAE@XZ 004625b0 f   CppSQLite3.obj
 0001:000615d0       ??_ECppSQLite3Table@@UAEPAXI@Z 004625d0 f i CppSQLite3.obj
 0001:000615d0       ??_GCppSQLite3Table@@UAEPAXI@Z 004625d0 f i CppSQLite3.obj
 0001:000615f0       ??0CppSQLite3Table@@QAE@ABV0@@Z 004625f0 f   CppSQLite3.obj
 0001:00061620       ??0CppSQLite3Table@@QAE@PAPADHH@Z 00462620 f   CppSQLite3.obj
 0001:00061650       ??1CppSQLite3Table@@UAE@XZ 00462650 f   CppSQLite3.obj
 0001:000616a0       ??4CppSQLite3Table@@QAEAAV0@ABV0@@Z 004626a0 f   CppSQLite3.obj
 0001:00061720       ?finalize@CppSQLite3Table@@QAEXXZ 00462720 f   CppSQLite3.obj
 0001:00061740       ?numFields@CppSQLite3Table@@QAEHXZ 00462740 f   CppSQLite3.obj
 0001:00061750       ?numRows@CppSQLite3Table@@QAEHXZ 00462750 f   CppSQLite3.obj
 0001:00061760       ?fieldValue@CppSQLite3Table@@QAEPBDH@Z 00462760 f   CppSQLite3.obj
 0001:000617c0       ?fieldValue@CppSQLite3Table@@QAEPBDPBD@Z 004627c0 f   CppSQLite3.obj
 0001:00061870       ?getIntField@CppSQLite3Table@@QAEHHH@Z 00462870 f   CppSQLite3.obj
 0001:000618b0       ?getIntField@CppSQLite3Table@@QAEHPBDH@Z 004628b0 f   CppSQLite3.obj
 0001:000618f0       ?getFloatField@CppSQLite3Table@@QAENHN@Z 004628f0 f   CppSQLite3.obj
 0001:00061930       ?getFloatField@CppSQLite3Table@@QAENPBDN@Z 00462930 f   CppSQLite3.obj
 0001:00061970       ?getStringField@CppSQLite3Table@@QAEPBDHPBD@Z 00462970 f   CppSQLite3.obj
 0001:000619a0       ?getStringField@CppSQLite3Table@@QAEPBDPBD0@Z 004629a0 f   CppSQLite3.obj
 0001:000619d0       ?fieldIsNull@CppSQLite3Table@@QAE_NH@Z 004629d0 f   CppSQLite3.obj
 0001:000619f0       ?fieldIsNull@CppSQLite3Table@@QAE_NPBD@Z 004629f0 f   CppSQLite3.obj
 0001:00061a10       ?fieldName@CppSQLite3Table@@QAEPBDH@Z 00462a10 f   CppSQLite3.obj
 0001:00061a60       ?setRow@CppSQLite3Table@@QAEXH@Z 00462a60 f   CppSQLite3.obj
 0001:00061ab0       ?checkResults@CppSQLite3Table@@AAEXXZ 00462ab0 f   CppSQLite3.obj
 0001:00061af0       ??0CppSQLite3Statement@@QAE@XZ 00462af0 f   CppSQLite3.obj
 0001:00061b10       ??_GCppSQLite3Statement@@UAEPAXI@Z 00462b10 f i CppSQLite3.obj
 0001:00061b10       ??_ECppSQLite3Statement@@UAEPAXI@Z 00462b10 f i CppSQLite3.obj
 0001:00061b30       ??0CppSQLite3Statement@@QAE@ABV0@@Z 00462b30 f   CppSQLite3.obj
 0001:00061b60       ??0CppSQLite3Statement@@QAE@PAUsqlite3@@PAUsqlite3_stmt@@@Z 00462b60 f   CppSQLite3.obj
 0001:00061b80       ??1CppSQLite3Statement@@UAE@XZ 00462b80 f   CppSQLite3.obj
 0001:00061bd0       ??4CppSQLite3Statement@@QAEAAV0@ABV0@@Z 00462bd0 f   CppSQLite3.obj
 0001:00061bf0       ?execDML@CppSQLite3Statement@@QAEHXZ 00462bf0 f   CppSQLite3.obj
 0001:00061ca0       ?execQuery@CppSQLite3Statement@@QAE?AVCppSQLite3Query@@XZ 00462ca0 f   CppSQLite3.obj
 0001:00061d50       ?bind@CppSQLite3Statement@@QAEXHPBD@Z 00462d50 f   CppSQLite3.obj
 0001:00061da0       ?bind@CppSQLite3Statement@@QAEXHH@Z 00462da0 f   CppSQLite3.obj
 0001:00061df0       ?bind@CppSQLite3Statement@@QAEXHN@Z 00462df0 f   CppSQLite3.obj
 0001:00061e50       ?bind@CppSQLite3Statement@@QAEXHPBEH@Z 00462e50 f   CppSQLite3.obj
 0001:00061eb0       ?bindNull@CppSQLite3Statement@@QAEXH@Z 00462eb0 f   CppSQLite3.obj
 0001:00061f00       ?reset@CppSQLite3Statement@@QAEXXZ 00462f00 f   CppSQLite3.obj
 0001:00061f50       ?finalize@CppSQLite3Statement@@QAEXXZ 00462f50 f   CppSQLite3.obj
 0001:00061fb0       ?checkDB@CppSQLite3Statement@@AAEXXZ 00462fb0 f   CppSQLite3.obj
 0001:00061ff0       ?checkVM@CppSQLite3Statement@@AAEXXZ 00462ff0 f   CppSQLite3.obj
 0001:00062030       ??0CppSQLite3DB@@QAE@XZ    00463030 f   CppSQLite3.obj
 0001:00062050       ??_GCppSQLite3DB@@UAEPAXI@Z 00463050 f i CppSQLite3.obj
 0001:00062050       ??_ECppSQLite3DB@@UAEPAXI@Z 00463050 f i CppSQLite3.obj
 0001:00062070       ??0CppSQLite3DB@@AAE@ABV0@@Z 00463070 f   CppSQLite3.obj
 0001:00062090       ??1CppSQLite3DB@@UAE@XZ    00463090 f   CppSQLite3.obj
 0001:000620a0       ??4CppSQLite3DB@@AAEAAV0@ABV0@@Z 004630a0 f   CppSQLite3.obj
 0001:000620c0       ?open@CppSQLite3DB@@QAEXPBD@Z 004630c0 f   CppSQLite3.obj
 0001:00062120       ?close@CppSQLite3DB@@QAEXXZ 00463120 f   CppSQLite3.obj
 0001:00062140       ?compileStatement@CppSQLite3DB@@QAE?AVCppSQLite3Statement@@PBD@Z 00463140 f   CppSQLite3.obj
 0001:00062180       ?tableExists@CppSQLite3DB@@QAE_NPBD@Z 00463180 f   CppSQLite3.obj
 0001:000621c0       ?execDML@CppSQLite3DB@@QAEHPBD@Z 004631c0 f   CppSQLite3.obj
 0001:00062230       ?execQuery@CppSQLite3DB@@QAE?AVCppSQLite3Query@@PBD@Z 00463230 f   CppSQLite3.obj
 0001:000622c0       ?execScalar@CppSQLite3DB@@QAEHPBD@Z 004632c0 f   CppSQLite3.obj
 0001:00062370       ?getTable@CppSQLite3DB@@QAE?AVCppSQLite3Table@@PBD@Z 00463370 f   CppSQLite3.obj
 0001:00062400       ?lastRowId@CppSQLite3DB@@QAE_JXZ 00463400 f   CppSQLite3.obj
 0001:00062410       ?setBusyTimeout@CppSQLite3DB@@QAEXH@Z 00463410 f   CppSQLite3.obj
 0001:00062430       ?checkDB@CppSQLite3DB@@AAEXXZ 00463430 f   CppSQLite3.obj
 0001:00062470       ?compile@CppSQLite3DB@@AAEPAUsqlite3_stmt@@PBD@Z 00463470 f   CppSQLite3.obj
 0001:000624d0       ?spc_escape_sql@@YAPADPBDDH@Z 004634d0 f   CppSQLite3.obj
 0001:00062610       ?sqlite3_encode_binary@@YAHPBEHPAE@Z 00463610 f   CppSQLite3.obj
 0001:00062730       ?sqlite3_decode_binary@@YAHPBEPAE@Z 00463730 f   CppSQLite3.obj
 0001:000627a0       ?YmdToJd@JulianDate@@SAJHHH@Z 004637a0 f   julian.obj
 0001:00062870       ?JdToYmd@JulianDate@@SAXJPAH00@Z 00463870 f   julian.obj
 0001:00062970       ?ToString@JulianDate@@QBEXPAD@Z 00463970 f   julian.obj
 0001:000629c0       ?DayOfYear@JulianDate@@QBEHXZ 004639c0 f   julian.obj
 0001:00062a00       ?ToSysTime@JulianDate@@QBEJXZ 00463a00 f   julian.obj
 0001:00062a80       ??0CParseIt@@QAE@H@Z       00463a80 f   Parseit.obj
 0001:00062ad0       ??0CParseIt@@QAE@PBD0H@Z   00463ad0 f   Parseit.obj
 0001:00062b70       ??1CParseIt@@QAE@XZ        00463b70 f   Parseit.obj
 0001:00062c00       ?ReSet@CParseIt@@QAEXXZ    00463c00 f   Parseit.obj
 0001:00062c60       ??1CParseField@@QAE@XZ     00463c60 f i Parseit.obj
 0001:00062c70       ?Parse@CParseIt@@QAEHPBD0H@Z 00463c70 f   Parseit.obj
 0001:00062cf0       ?Parse@CParseIt@@QAEHXZ    00463cf0 f   Parseit.obj
 0001:00062eb0       ?IsSeperator@CParseIt@@IAEHD@Z 00463eb0 f   Parseit.obj
 0001:00062f00       ?GetField@CParseIt@@QAEHHAAVCString@@@Z 00463f00 f   Parseit.obj
 0001:00062f40       ?GetField@CParseIt@@QAEHHPAD@Z 00463f40 f   Parseit.obj
 0001:00062f90       ?GetField@CParseIt@@QAE?AVCParseField@@H@Z 00463f90 f   Parseit.obj
 0001:00063030       ?LoadFile@CParseIt@@IAEHPBD@Z 00464030 f   Parseit.obj
 0001:00063200       ??1AFX_EXCEPTION_LINK@@QAE@XZ 00464200 f i Parseit.obj
 0001:00063210       ?ParseFile@CParseIt@@QAEHPBD0@Z 00464210 f   Parseit.obj
 0001:00063250       ??1CException@@UAE@XZ      00464250 f i Parseit.obj
 0001:00063260       ??_GCFileException@@UAEPAXI@Z 00464260 f i Parseit.obj
 0001:00063260       ??_ECFileException@@UAEPAXI@Z 00464260 f i Parseit.obj
 0001:00063280       ??1CFileException@@UAE@XZ  00464280 f i Parseit.obj
 0001:000632d0       ?RA_CheckProcessWasRestarted@@YAHXZ 004642d0 f   RestartAPI.obj
 0001:000632e0       ?RA_CheckForRestartProcessStart@@YAHXZ 004642e0 f   RestartAPI.obj
 0001:00063300       ?RA_WaitForPreviousProcessFinish@@YAHXZ 00464300 f   RestartAPI.obj
 0001:00063370       ?RA_DoRestartProcessFinish@@YAHXZ 00464370 f   RestartAPI.obj
 0001:000633c0       ?RA_ActivateRestartProcess@@YAHXZ 004643c0 f   RestartAPI.obj
 0001:000634d0       ??0CSimpleDate@@QAE@H@Z    004644d0 f   SimpleDate.obj
 0001:00063540       ?GetDay@CSimpleDate@@UAEHXZ 00464540 f i SimpleDate.obj
 0001:00063560       ?GetMonth@CSimpleDate@@UAEHXZ 00464560 f i SimpleDate.obj
 0001:00063580       ?GetYear@CSimpleDate@@UAEHXZ 00464580 f i SimpleDate.obj
 0001:000635a0       ?GetIntegerDate@CSimpleDate@@UAEXAAH00@Z 004645a0 f i SimpleDate.obj
 0001:000635d0       ?GetHour@CSimpleDate@@UAEHXZ 004645d0 f i SimpleDate.obj
 0001:000635f0       ?GetMin@CSimpleDate@@UAEHXZ 004645f0 f i SimpleDate.obj
 0001:00063610       ?GetSeconds@CSimpleDate@@UAEHXZ 00464610 f i SimpleDate.obj
 0001:00063630       ??_ECSimpleDate@@UAEPAXI@Z 00464630 f i SimpleDate.obj
 0001:00063630       ??_GCSimpleDate@@UAEPAXI@Z 00464630 f i SimpleDate.obj
 0001:00063650       ??0CSimpleDate@@QAE@PBDH@Z 00464650 f   SimpleDate.obj
 0001:000636c0       ??0CSimpleDate@@QAE@JH@Z   004646c0 f   SimpleDate.obj
 0001:00063730       ??1CSimpleDate@@UAE@XZ     00464730 f   SimpleDate.obj
 0001:00063740       ?SetToday@CSimpleDate@@MAEHXZ 00464740 f   SimpleDate.obj
 0001:00063780       ?IsValid@CSimpleDate@@UAEHXZ 00464780 f   SimpleDate.obj
 0001:00063810       ?ParseDateString@CSimpleDate@@MAEHPBD@Z 00464810 f   SimpleDate.obj
 0001:00063830       ?ParseDateString@CSimpleDate@@MAEHPBDAAH11@Z 00464830 f   SimpleDate.obj
 0001:000639e0       ?ConvertToJulian@CSimpleDate@@MAEJXZ 004649e0 f   SimpleDate.obj
 0001:00063a00       ?ConvertToJulian@CSimpleDate@@MAEJHHH@Z 00464a00 f   SimpleDate.obj
 0001:00063a90       ?ConvertFromJulian@CSimpleDate@@MAEXXZ 00464a90 f   SimpleDate.obj
 0001:00063ab0       ?ConvertFromJulian@CSimpleDate@@MAEXAAH00@Z 00464ab0 f   SimpleDate.obj
 0001:00063bb0       ?GetDayOfWeek@CSimpleDate@@UAEHXZ 00464bb0 f   SimpleDate.obj
 0001:00063be0       ?GetFullDateString@CSimpleDate@@QAEPBDXZ 00464be0 f   SimpleDate.obj
 0001:00063c30       ?GetFullDateStringLong@CSimpleDate@@QAEPBDXZ 00464c30 f   SimpleDate.obj
 0001:00063c80       ?GetJulianDate@CSimpleDate@@QAEJXZ 00464c80 f   SimpleDate.obj
 0001:00063ca0       ??BCSimpleDate@@QAEPBDXZ   00464ca0 f   SimpleDate.obj
 0001:00063dd0       ??BCSimpleDate@@QAEJXZ     00464dd0 f   SimpleDate.obj
 0001:00063df0       ??4CSimpleDate@@QAEABV0@ABV0@@Z 00464df0 f   SimpleDate.obj
 0001:00063e30       ??4CSimpleDate@@QAEABV0@PBD@Z 00464e30 f   SimpleDate.obj
 0001:00063e50       ??OCSimpleDate@@QAEHABV0@@Z 00464e50 f   SimpleDate.obj
 0001:00063e80       ??PCSimpleDate@@QAEHABV0@@Z 00464e80 f   SimpleDate.obj
 0001:00063eb0       ??MCSimpleDate@@QAEHABV0@@Z 00464eb0 f   SimpleDate.obj
 0001:00063ee0       ??NCSimpleDate@@QAEHABV0@@Z 00464ee0 f   SimpleDate.obj
 0001:00063f10       ??8CSimpleDate@@QAEHABV0@@Z 00464f10 f   SimpleDate.obj
 0001:00063f40       ??9CSimpleDate@@QAEHABV0@@Z 00464f40 f   SimpleDate.obj
 0001:00063f70       ??OCSimpleDate@@QAEHPBD@Z  00464f70 f   SimpleDate.obj
 0001:00064020       ??MCSimpleDate@@QAEHPBD@Z  00465020 f   SimpleDate.obj
 0001:000640d0       ??PCSimpleDate@@QAEHPBD@Z  004650d0 f   SimpleDate.obj
 0001:00064180       ??NCSimpleDate@@QAEHPBD@Z  00465180 f   SimpleDate.obj
 0001:00064230       ??8CSimpleDate@@QAEHPBD@Z  00465230 f   SimpleDate.obj
 0001:000642e0       ??9CSimpleDate@@QAEHPBD@Z  004652e0 f   SimpleDate.obj
 0001:00064390       ?YearsOld@CSimpleDate@@UAEHXZ 00465390 f   SimpleDate.obj
 0001:00064460       ?AddMonths@CSimpleDate@@QAEABV1@H@Z 00465460 f   SimpleDate.obj
 0001:000644b0       ?SubtractMonths@CSimpleDate@@QAEABV1@H@Z 004654b0 f   SimpleDate.obj
 0001:00064520       ?AddYears@CSimpleDate@@QAEABV1@H@Z 00465520 f   SimpleDate.obj
 0001:00064550       ?SubtractYears@CSimpleDate@@QAEABV1@H@Z 00465550 f   SimpleDate.obj
 0001:00064580       ?AddDays@CSimpleDate@@QAEABV1@H@Z 00465580 f   SimpleDate.obj
 0001:000645c0       ?SubtractDays@CSimpleDate@@QAEABV1@H@Z 004655c0 f   SimpleDate.obj
 0001:00064600       ?AdjustDays@CSimpleDate@@MAEXXZ 00465600 f   SimpleDate.obj
 0001:00064670       ?SetTime@CSimpleDate@@MAEXXZ 00465670 f   SimpleDate.obj
 0001:000646c0       ?GetTimeString@CSimpleDate@@UAEXAAVCString@@H@Z 004656c0 f   SimpleDate.obj
 0001:00064730       ?GetTimeString@CSimpleDate@@UAEXPADHH@Z 00465730 f   SimpleDate.obj
 0001:000647b0       ?GetTimeStringShort@CSimpleDate@@UAEXAAVCString@@H@Z 004657b0 f   SimpleDate.obj
 0001:00064820       ?GetTimeStringShort@CSimpleDate@@UAEXPADHH@Z 00465820 f   SimpleDate.obj
 0001:000648a0       ?FixDateFormat@CSimpleDate@@SAHPAD@Z 004658a0 f   SimpleDate.obj
 0001:00064960       ?FixDateFormat@CSimpleDate@@SAHAAVCString@@@Z 00465960 f   SimpleDate.obj
 0001:00064b90       ?VerifyDateFormat@CSimpleDate@@SAHPBD@Z 00465b90 f   SimpleDate.obj
 0001:00064d40       ?DDX_SimpleDate@@YAXPAVCDataExchange@@HPADH@Z 00465d40 f   SimpleDate.obj
 0001:00064e80       ?DDX_SimpleDate@@YAXPAVCDataExchange@@HAAVCString@@@Z 00465e80 f   SimpleDate.obj
 0001:00064f50       ?DDX_SimpleDate@@YAXPAVCDataExchange@@HAAJ@Z 00465f50 f   SimpleDate.obj
 0001:00065250       ??0_tagParseInfo@@QAE@XZ   00466250 f i XMLite.obj
 0001:000652b0       ??1_tagParseInfo@@QAE@XZ   004662b0 f i XMLite.obj
 0001:00065350       ??1_tagXMLEntitys@@QAE@XZ  00466350 f i XMLite.obj
 0001:00065380       ?_tcschrs@@YAPADPBD0@Z     00466380 f   XMLite.obj
 0001:000653c0       ?_tcsskip@@YAPADPBD@Z      004663c0 f   XMLite.obj
 0001:000653f0       ?_tcsechr@@YAPADPBDHH@Z    004663f0 f   XMLite.obj
 0001:00065430       ?_tcselen@@YAHHPAD0@Z      00466430 f   XMLite.obj
 0001:00065480       ?_tcsecpy@@YAXPADH00@Z     00466480 f   XMLite.obj
 0001:000654e0       ?_tcsepbrk@@YAPADPBD0H@Z   004664e0 f   XMLite.obj
 0001:00065540       ?_tcsenicmp@@YAHPBD0HH@Z   00466540 f   XMLite.obj
 0001:000655e0       ?_tcsenistr@@YAPADPBD0HH@Z 004665e0 f   XMLite.obj
 0001:00065630       ?_tcseistr@@YAPADPBD0H@Z   00466630 f   XMLite.obj
 0001:00065660       ?_SetString@@YAXPAD0PAVCString@@_NH@Z 00466660 f   XMLite.obj
 0001:00065720       ??1_tagXMLNode@@QAE@XZ     00466720 f   XMLite.obj
 0001:000657b0       ?Close@_tagXMLNode@@QAEXXZ 004667b0 f   XMLite.obj
 0001:000658a0       ??1_tagXMLAttr@@QAE@XZ     004668a0 f i XMLite.obj
 0001:000658f0       ?LoadAttributes@_tagXMLNode@@QAEPADPBDPAU_tagParseInfo@@@Z 004668f0 f   XMLite.obj
 0001:00065af0       ?LoadAttributes@_tagXMLNode@@QAEPADPBD0PAU_tagParseInfo@@@Z 00466af0 f   XMLite.obj
 0001:00065cf0       ?LoadProcessingInstrunction@_tagXMLNode@@QAEPADPBDPAU_tagParseInfo@@@Z 00466cf0 f   XMLite.obj
 0001:00065f80       ?LoadComment@_tagXMLNode@@QAEPADPBDPAU_tagParseInfo@@@Z 00466f80 f   XMLite.obj
 0001:00066210       ?LoadCDATA@_tagXMLNode@@QAEPADPBDPAU_tagParseInfo@@@Z 00467210 f   XMLite.obj
 0001:000664a0       ?LoadOtherNodes@@YAPADPAU_tagXMLNode@@PA_NPBDPAU_tagParseInfo@@@Z 004674a0 f   XMLite.obj
 0001:000665c0       ?Load@_tagXMLNode@@QAEPADPBDPAU_tagParseInfo@@@Z 004675c0 f   XMLite.obj
 0001:00066b40       ?Load@_tagXMLDocument@@QAEPADPBDPAU_tagParseInfo@@@Z 00467b40 f   XMLite.obj
 0001:00066dc0       ?GetRoot@_tagXMLDocument@@QAEPAU_tagXMLNode@@XZ 00467dc0 f   XMLite.obj
 0001:00066de0       ?GetXML@_tagXMLAttr@@QAE?AVCString@@PAU_tagDispOption@@@Z 00467de0 f   XMLite.obj
 0001:00067040       ?GetXML@_tagXMLNode@@QAE?AVCString@@PAU_tagDispOption@@@Z 00468040 f   XMLite.obj
 0001:000678b0       ?GetText@_tagXMLNode@@QAE?AVCString@@PAU_tagDispOption@@@Z 004688b0 f   XMLite.obj
 0001:00067bd0       ?GetAttr@_tagXMLNode@@QAEPAU_tagXMLAttr@@PBD@Z 00468bd0 f   XMLite.obj
 0001:00067c20       ?GetAttrs@_tagXMLNode@@QAE?AV?$vector@PAU_tagXMLAttr@@V?$allocator@PAU_tagXMLAttr@@@std@@@std@@PBD@Z 00468c20 f   XMLite.obj
 0001:00067d30       ?GetAttrValue@_tagXMLNode@@QAEPBDPBD@Z 00468d30 f   XMLite.obj
 0001:00067d50       ?GetChilds@_tagXMLNode@@QAE?AV?$vector@PAU_tagXMLNode@@V?$allocator@PAU_tagXMLNode@@@std@@@std@@XZ 00468d50 f   XMLite.obj
 0001:00067dc0       ?GetChilds@_tagXMLNode@@QAE?AV?$vector@PAU_tagXMLNode@@V?$allocator@PAU_tagXMLNode@@@std@@@std@@PBD@Z 00468dc0 f   XMLite.obj
 0001:00067ed0       ?GetChild@_tagXMLNode@@QAEPAU1@H@Z 00468ed0 f   XMLite.obj
 0001:00067f00       ?GetChildCount@_tagXMLNode@@QAEHXZ 00468f00 f   XMLite.obj
 0001:00067f20       ?GetChild@_tagXMLNode@@QAEPAU1@PBD@Z 00468f20 f   XMLite.obj
 0001:00067f70       ?GetChildValue@_tagXMLNode@@QAEPBDPBD@Z 00468f70 f   XMLite.obj
 0001:00067f90       ?GetChildText@_tagXMLNode@@QAE?AVCString@@PBDPAU_tagDispOption@@@Z 00468f90 f   XMLite.obj
 0001:00068060       ?GetChildAttr@_tagXMLNode@@QAEPAU_tagXMLAttr@@PBD0@Z 00469060 f   XMLite.obj
 0001:00068090       ?GetChildAttrValue@_tagXMLNode@@QAEPBDPBD0@Z 00469090 f   XMLite.obj
 0001:000680b0       ?Find@_tagXMLNode@@QAEPAU1@PBD@Z 004690b0 f   XMLite.obj
 0001:00068120       ?GetChildIterator@_tagXMLNode@@QAEPAPAU1@PAU1@@Z 00469120 f   XMLite.obj
 0001:00068140       ?AppendChild@_tagXMLNode@@QAEPAU1@PBD0@Z 00469140 f   XMLite.obj
 0001:00068160       ?AppendChild@_tagXMLNode@@QAEPAU1@PAU1@@Z 00469160 f   XMLite.obj
 0001:00068320       ?RemoveChild@_tagXMLNode@@QAE_NPAU1@@Z 00469320 f   XMLite.obj
 0001:00068380       ?GetAttr@_tagXMLNode@@QAEPAU_tagXMLAttr@@H@Z 00469380 f   XMLite.obj
 0001:000683b0       ?GetAttrIterator@_tagXMLNode@@QAEPAPAU_tagXMLAttr@@PAU2@@Z 004693b0 f   XMLite.obj
 0001:000683d0       ?AppendAttr@_tagXMLNode@@QAEPAU_tagXMLAttr@@PAU2@@Z 004693d0 f   XMLite.obj
 0001:00068580       ?RemoveAttr@_tagXMLNode@@QAE_NPAU_tagXMLAttr@@@Z 00469580 f   XMLite.obj
 0001:000685e0       ?CreateNode@_tagXMLNode@@QAEPAU1@PBD0@Z 004695e0 f   XMLite.obj
 0001:00068690       ?CreateAttr@_tagXMLNode@@QAEPAU_tagXMLAttr@@PBD0@Z 00469690 f   XMLite.obj
 0001:00068710       ?AppendAttr@_tagXMLNode@@QAEPAU_tagXMLAttr@@PBD0@Z 00469710 f   XMLite.obj
 0001:00068730       ?DetachChild@_tagXMLNode@@QAEPAU1@PAU1@@Z 00469730 f   XMLite.obj
 0001:00068780       ?DetachAttr@_tagXMLNode@@QAEPAU_tagXMLAttr@@PAU2@@Z 00469780 f   XMLite.obj
 0001:000687d0       ?CopyNode@_tagXMLNode@@QAEXPAU1@@Z 004697d0 f   XMLite.obj
 0001:00068840       ?_CopyBranch@_tagXMLNode@@QAEXPAU1@@Z 00469840 f   XMLite.obj
 0001:00068930       ?AppendChildBranch@_tagXMLNode@@QAEPAU1@PAU1@@Z 00469930 f   XMLite.obj
 0001:000689e0       ?CopyBranch@_tagXMLNode@@QAEXPAU1@@Z 004699e0 f   XMLite.obj
 0001:00068a00       ??0_tagXMLEntitys@@QAE@PAU_tagXmlEntity@@H@Z 00469a00 f   XMLite.obj
 0001:00068c40       ?GetEntity@_tagXMLEntitys@@QAEPAU_tagXmlEntity@@H@Z 00469c40 f   XMLite.obj
 0001:00068cb0       ?GetEntity@_tagXMLEntitys@@QAEPAU_tagXmlEntity@@PAD@Z 00469cb0 f   XMLite.obj
 0001:00068d50       ?GetEntityCount@_tagXMLEntitys@@QAEHPBD@Z 00469d50 f   XMLite.obj
 0001:00068d90       ?Ref2Entity@_tagXMLEntitys@@QAEHPBDPADH@Z 00469d90 f   XMLite.obj
 0001:00068df0       ?Entity2Ref@_tagXMLEntitys@@QAEHPBDPADH@Z 00469df0 f   XMLite.obj
 0001:00068e60       ?Ref2Entity@_tagXMLEntitys@@QAE?AVCString@@PBD@Z 00469e60 f   XMLite.obj
 0001:00068f10       ?Entity2Ref@_tagXMLEntitys@@QAE?AVCString@@PBD@Z 00469f10 f   XMLite.obj
 0001:00068fe0       ?XRef2Entity@@YA?AVCString@@PBD@Z 00469fe0 f   XMLite.obj
 0001:00069010       ?XEntity2Ref@@YA?AVCString@@PBD@Z 0046a010 f   XMLite.obj
 0001:00069040       ??1?$vector@U_tagXmlEntity@@V?$allocator@U_tagXmlEntity@@@std@@@std@@QAE@XZ 0046a040 f i XMLite.obj
 0001:00069070       ?size@?$vector@U_tagXmlEntity@@V?$allocator@U_tagXmlEntity@@@std@@@std@@QBEIXZ 0046a070 f i XMLite.obj
 0001:00069090       ??1?$vector@PAU_tagXMLAttr@@V?$allocator@PAU_tagXMLAttr@@@std@@@std@@QAE@XZ 0046a090 f i XMLite.obj
 0001:000690c0       ?_Destroy@?$vector@U_tagXmlEntity@@V?$allocator@U_tagXmlEntity@@@std@@@std@@IAEXPAU_tagXmlEntity@@0@Z 0046a0c0 f i XMLite.obj
 0001:000690d0       ?_Xran@?$vector@U_tagXmlEntity@@V?$allocator@U_tagXmlEntity@@@std@@@std@@IBEXXZ 0046a0d0 f i XMLite.obj
 0001:000691c0       ?_Destroy@?$vector@PAU_tagXMLAttr@@V?$allocator@PAU_tagXMLAttr@@@std@@@std@@IAEXPAPAU_tagXMLAttr@@0@Z 0046a1c0 f i XMLite.obj
 0001:000691d0       ?_Ucopy@?$vector@PAU_tagXMLAttr@@V?$allocator@PAU_tagXMLAttr@@@std@@@std@@IAEPAPAU_tagXMLAttr@@PBQAU3@0PAPAU3@@Z 0046a1d0 f i XMLite.obj
 0001:00069200       ?insert@?$vector@PAU_tagXMLNode@@V?$allocator@PAU_tagXMLNode@@@std@@@std@@QAEXPAPAU_tagXMLNode@@IABQAU3@@Z 0046a200 f i XMLite.obj
 0001:00069410       ?insert@?$vector@PAU_tagXMLAttr@@V?$allocator@PAU_tagXMLAttr@@@std@@@std@@QAEXPAPAU_tagXMLAttr@@IABQAU3@@Z 0046a410 f i XMLite.obj
 0001:00069620       ?_Ucopy@?$vector@U_tagXmlEntity@@V?$allocator@U_tagXmlEntity@@@std@@@std@@IAEPAU_tagXmlEntity@@PBU3@0PAU3@@Z 0046a620 f i XMLite.obj
 0001:00069670       ?_Ufill@?$vector@U_tagXmlEntity@@V?$allocator@U_tagXmlEntity@@@std@@@std@@IAEXPAU_tagXmlEntity@@IABU3@@Z 0046a670 f i XMLite.obj
 0001:000696b0       ?_Ufill@?$vector@PAU_tagXMLNode@@V?$allocator@PAU_tagXMLNode@@@std@@@std@@IAEXPAPAU_tagXMLNode@@IABQAU3@@Z 0046a6b0 f i XMLite.obj
 0001:000696e0       ?_Ufill@?$vector@PAU_tagXMLAttr@@V?$allocator@PAU_tagXMLAttr@@@std@@@std@@IAEXPAPAU_tagXMLAttr@@IABQAU3@@Z 0046a6e0 f i XMLite.obj
 0001:00069710       ?_Construct@std@@YAXPAPAU_tagXMLNode@@ABQAU2@@Z 0046a710 f i XMLite.obj
 0001:00069730       ?_Construct@std@@YAXPAPAU_tagXMLAttr@@ABQAU2@@Z 0046a730 f i XMLite.obj
 0001:00069750       ?_Construct@std@@YAXPAU_tagXmlEntity@@ABU2@@Z 0046a750 f i XMLite.obj
 0001:00069780       _sqlite3_free              0046a780 f   sqlite3:sqlite3.dll
 0001:00069786       _sqlite3_mprintf           0046a786 f   sqlite3:sqlite3.dll
 0001:0006978c       _sqlite3_vmprintf          0046a78c f   sqlite3:sqlite3.dll
 0001:00069792       _sqlite3_column_count      0046a792 f   sqlite3:sqlite3.dll
 0001:00069798       _sqlite3_column_text       0046a798 f   sqlite3:sqlite3.dll
 0001:0006979e       _sqlite3_column_int        0046a79e f   sqlite3:sqlite3.dll
 0001:000697a4       _sqlite3_column_double     0046a7a4 f   sqlite3:sqlite3.dll
 0001:000697aa       _sqlite3_column_blob       0046a7aa f   sqlite3:sqlite3.dll
 0001:000697b0       _sqlite3_column_bytes      0046a7b0 f   sqlite3:sqlite3.dll
 0001:000697b6       _sqlite3_column_name       0046a7b6 f   sqlite3:sqlite3.dll
 0001:000697bc       _sqlite3_column_decltype   0046a7bc f   sqlite3:sqlite3.dll
 0001:000697c2       _sqlite3_column_type       0046a7c2 f   sqlite3:sqlite3.dll
 0001:000697c8       _sqlite3_errmsg            0046a7c8 f   sqlite3:sqlite3.dll
 0001:000697ce       _sqlite3_finalize          0046a7ce f   sqlite3:sqlite3.dll
 0001:000697d4       _sqlite3_step              0046a7d4 f   sqlite3:sqlite3.dll
 0001:000697da       _sqlite3_free_table        0046a7da f   sqlite3:sqlite3.dll
 0001:000697e0       _sqlite3_reset             0046a7e0 f   sqlite3:sqlite3.dll
 0001:000697e6       _sqlite3_changes           0046a7e6 f   sqlite3:sqlite3.dll
 0001:000697ec       _sqlite3_bind_text         0046a7ec f   sqlite3:sqlite3.dll
 0001:000697f2       _sqlite3_bind_int          0046a7f2 f   sqlite3:sqlite3.dll
 0001:000697f8       _sqlite3_bind_double       0046a7f8 f   sqlite3:sqlite3.dll
 0001:000697fe       _sqlite3_bind_blob         0046a7fe f   sqlite3:sqlite3.dll
 0001:00069804       _sqlite3_bind_null         0046a804 f   sqlite3:sqlite3.dll
 0001:0006980a       _sqlite3_open              0046a80a f   sqlite3:sqlite3.dll
 0001:00069810       _sqlite3_close             0046a810 f   sqlite3:sqlite3.dll
 0001:00069816       _sqlite3_exec              0046a816 f   sqlite3:sqlite3.dll
 0001:0006981c       _sqlite3_get_table         0046a81c f   sqlite3:sqlite3.dll
 0001:00069822       _sqlite3_last_insert_rowid 0046a822 f   sqlite3:sqlite3.dll
 0001:00069828       _sqlite3_busy_timeout      0046a828 f   sqlite3:sqlite3.dll
 0001:0006982e       _sqlite3_prepare           0046a82e f   sqlite3:sqlite3.dll
 0001:00069834       _HPDF_GetVersion@0         0046a834 f   libhpdf:LIBHPDF.DLL
 0001:0006983a       _HPDF_Free@4               0046a83a f   libhpdf:LIBHPDF.DLL
 0001:00069840       _HPDF_SaveToFile@8         0046a840 f   libhpdf:LIBHPDF.DLL
 0001:00069846       _HPDF_Page_MoveToNextLine@4 0046a846 f   libhpdf:LIBHPDF.DLL
 0001:0006984c       _HPDF_Page_ShowText@8      0046a84c f   libhpdf:LIBHPDF.DLL
 0001:00069852       _HPDF_Page_MoveTextPos@12  0046a852 f   libhpdf:LIBHPDF.DLL
 0001:00069858       _HPDF_Page_TextRect@32     0046a858 f   libhpdf:LIBHPDF.DLL
 0001:0006985e       _HPDF_Page_EndText@4       0046a85e f   libhpdf:LIBHPDF.DLL
 0001:00069864       _HPDF_Page_SetFontAndSize@12 0046a864 f   libhpdf:LIBHPDF.DLL
 0001:0006986a       _HPDF_Page_SetTextLeading@8 0046a86a f   libhpdf:LIBHPDF.DLL
 0001:00069870       _HPDF_Page_SetSize@12      0046a870 f   libhpdf:LIBHPDF.DLL
 0001:00069876       _HPDF_Page_BeginText@4     0046a876 f   libhpdf:LIBHPDF.DLL
 0001:0006987c       _HPDF_GetFont@12           0046a87c f   libhpdf:LIBHPDF.DLL
 0001:00069882       _HPDF_AddPage@4            0046a882 f   libhpdf:LIBHPDF.DLL
 0001:00069888       _HPDF_LoadTTFontFromFile@12 0046a888 f   libhpdf:LIBHPDF.DLL
 0001:0006988e       _HPDF_SetCompressionMode@8 0046a88e f   libhpdf:LIBHPDF.DLL
 0001:00069894       _HPDF_UseJPEncodings@4     0046a894 f   libhpdf:LIBHPDF.DLL
 0001:0006989a       _HPDF_New@8                0046a89a f   libhpdf:LIBHPDF.DLL
 0001:000698a0       _HPDF_Page_TextOut@16      0046a8a0 f   libhpdf:LIBHPDF.DLL
 0001:000698a6       _HPDF_Page_Stroke@4        0046a8a6 f   libhpdf:LIBHPDF.DLL
 0001:000698ac       _HPDF_Page_LineTo@12       0046a8ac f   libhpdf:LIBHPDF.DLL
 0001:000698b2       _HPDF_Page_MoveTo@12       0046a8b2 f   libhpdf:LIBHPDF.DLL
 0001:000698b8       _HPDF_Page_SetLineWidth@8  0046a8b8 f   libhpdf:LIBHPDF.DLL
 0001:000698be       _HPDF_Page_SetRGBFill@16   0046a8be f   libhpdf:LIBHPDF.DLL
 0001:000698c4       _HPDF_Page_SetTextMatrix@28 0046a8c4 f   libhpdf:LIBHPDF.DLL
 0001:000698ca       _HPDF_Page_SetTextRenderingMode@8 0046a8ca f   libhpdf:LIBHPDF.DLL
 0001:000698d0       _HPDF_Page_Fill@4          0046a8d0 f   libhpdf:LIBHPDF.DLL
 0001:000698d6       _HPDF_Page_Rectangle@20    0046a8d6 f   libhpdf:LIBHPDF.DLL
 0001:000698dc       _HPDF_Page_GetWidth@4      0046a8dc f   libhpdf:LIBHPDF.DLL
 0001:000698e2       ?PreInitDialog@CDialog@@MAEXXZ 0046a8e2 f   mfc42:MFC42.DLL
 0001:000698e8       ?OnCancel@CDialog@@MAEXXZ  0046a8e8 f   mfc42:MFC42.DLL
 0001:000698ee       ?OnOK@CDialog@@MAEXXZ      0046a8ee f   mfc42:MFC42.DLL
 0001:000698f4       ?OnSetFont@CDialog@@UAEXPAVCFont@@@Z 0046a8f4 f   mfc42:MFC42.DLL
 0001:000698fa       ?DoModal@CDialog@@UAEHXZ   0046a8fa f   mfc42:MFC42.DLL
 0001:00069900       ?SetOccDialogInfo@CDialog@@MAEHPAU_AFX_OCC_DIALOG_INFO@@@Z 0046a900 f   mfc42:MFC42.DLL
 0001:00069906       ?IsFrameWnd@CWnd@@UBEHXZ   0046a906 f   mfc42:MFC42.DLL
 0001:0006990c       ?CheckAutoCenter@CDialog@@UAEHXZ 0046a90c f   mfc42:MFC42.DLL
 0001:00069912       ?OnChildNotify@CWnd@@MAEHIIJPAJ@Z 0046a912 f   mfc42:MFC42.DLL
 0001:00069918       ?PostNcDestroy@CWnd@@MAEXXZ 0046a918 f   mfc42:MFC42.DLL
 0001:0006991e       ?DefWindowProcA@CWnd@@MAEJIIJ@Z 0046a91e f   mfc42:MFC42.DLL
 0001:00069924       ?OnWndMsg@CWnd@@MAEHIIJPAJ@Z 0046a924 f   mfc42:MFC42.DLL
 0001:0006992a       ?WindowProc@CWnd@@MAEJIIJ@Z 0046a92a f   mfc42:MFC42.DLL
 0001:00069930       ?OnAmbientProperty@CWnd@@UAEHPAVCOleControlSite@@JPAUtagVARIANT@@@Z 0046a930 f   mfc42:MFC42.DLL
 0001:00069936       ?PreTranslateMessage@CDialog@@UAEHPAUtagMSG@@@Z 0046a936 f   mfc42:MFC42.DLL
 0001:0006993c       ?GetSuperWndProcAddr@CWnd@@MAEPAP6GJPAUHWND__@@IIJ@ZXZ 0046a93c f   mfc42:MFC42.DLL
 0001:00069942       ?OnNotify@CWnd@@MAEHIJPAJ@Z 0046a942 f   mfc42:MFC42.DLL
 0001:00069948       ?OnCommand@CWnd@@MAEHIJ@Z  0046a948 f   mfc42:MFC42.DLL
 0001:0006994e       ?EndModalLoop@CWnd@@UAEXH@Z 0046a94e f   mfc42:MFC42.DLL
 0001:00069954       ?ContinueModal@CWnd@@UAEHXZ 0046a954 f   mfc42:MFC42.DLL
 0001:0006995a       ?WinHelpA@CWnd@@UAEXKI@Z   0046a95a f   mfc42:MFC42.DLL
 0001:00069960       ?GetScrollBarCtrl@CWnd@@UBEPAVCScrollBar@@H@Z 0046a960 f   mfc42:MFC42.DLL
 0001:00069966       ?OnToolHitTest@CWnd@@UBEHVCPoint@@PAUtagTOOLINFOA@@@Z 0046a966 f   mfc42:MFC42.DLL
 0001:0006996c       ?CalcWindowRect@CWnd@@UAEXPAUtagRECT@@I@Z 0046a96c f   mfc42:MFC42.DLL
 0001:00069972       ?PreCreateWindow@CWnd@@UAEHAAUtagCREATESTRUCTA@@@Z 0046a972 f   mfc42:MFC42.DLL
 0001:00069978       ?DestroyWindow@CWnd@@UAEHXZ 0046a978 f   mfc42:MFC42.DLL
 0001:0006997e       ?Create@CWnd@@UAEHPBD0KABUtagRECT@@PAV1@IPAUCCreateContext@@@Z 0046a97e f   mfc42:MFC42.DLL
 0001:00069984       ?PreSubclassWindow@CWnd@@UAEXXZ 0046a984 f   mfc42:MFC42.DLL
 0001:0006998a       ?GetConnectionHook@CCmdTarget@@MAEPAUIConnectionPoint@@ABU_GUID@@@Z 0046a98a f   mfc42:MFC42.DLL
 0001:00069990       ?GetExtraConnectionPoints@CCmdTarget@@MAEHPAVCPtrArray@@@Z 0046a990 f   mfc42:MFC42.DLL
 0001:00069996       ?GetInterfaceHook@CCmdTarget@@UAEPAUIUnknown@@PBX@Z 0046a996 f   mfc42:MFC42.DLL
 0001:0006999c       ?OnCreateAggregates@CCmdTarget@@UAEHXZ 0046a99c f   mfc42:MFC42.DLL
 0001:000699a2       ?GetEventSinkMap@CCmdTarget@@MBEPBUAFX_EVENTSINKMAP@@XZ 0046a9a2 f   mfc42:MFC42.DLL
 0001:000699a8       ?GetInterfaceMap@CCmdTarget@@MBEPBUAFX_INTERFACEMAP@@XZ 0046a9a8 f   mfc42:MFC42.DLL
 0001:000699ae       ?GetConnectionMap@CCmdTarget@@MBEPBUAFX_CONNECTIONMAP@@XZ 0046a9ae f   mfc42:MFC42.DLL
 0001:000699b4       ?GetDispatchMap@CCmdTarget@@MBEPBUAFX_DISPMAP@@XZ 0046a9b4 f   mfc42:MFC42.DLL
 0001:000699ba       ?GetCommandMap@CCmdTarget@@MBEPBUAFX_OLECMDMAP@@XZ 0046a9ba f   mfc42:MFC42.DLL
 0001:000699c0       ?GetTypeLib@CCmdTarget@@UAEJKPAPAUITypeLib@@@Z 0046a9c0 f   mfc42:MFC42.DLL
 0001:000699c6       ?GetTypeLibCache@CCmdTarget@@UAEPAVCTypeLibCache@@XZ 0046a9c6 f   mfc42:MFC42.DLL
 0001:000699cc       ?GetTypeInfoCount@CCmdTarget@@UAEIXZ 0046a9cc f   mfc42:MFC42.DLL
 0001:000699d2       ?GetDispatchIID@CCmdTarget@@UAEHPAU_GUID@@@Z 0046a9d2 f   mfc42:MFC42.DLL
 0001:000699d8       ?IsInvokeAllowed@CCmdTarget@@UAEHJ@Z 0046a9d8 f   mfc42:MFC42.DLL
 0001:000699de       ?OnFinalRelease@CWnd@@UAEXXZ 0046a9de f   mfc42:MFC42.DLL
 0001:000699e4       ?OnCmdMsg@CDialog@@UAEHIHPAXPAUAFX_CMDHANDLERINFO@@@Z 0046a9e4 f   mfc42:MFC42.DLL
 0001:000699ea       ?GetRuntimeClass@CDialog@@UBEPAUCRuntimeClass@@XZ 0046a9ea f   mfc42:MFC42.DLL
 0001:000699f0       ??1CString@@QAE@XZ         0046a9f0 f   mfc42:MFC42.DLL
 0001:000699f6       ??1CDialog@@UAE@XZ         0046a9f6 f   mfc42:MFC42.DLL
 0001:000699fc       ??4CString@@QAEABV0@PBD@Z  0046a9fc f   mfc42:MFC42.DLL
 0001:00069a02       ??0CString@@QAE@XZ         0046aa02 f   mfc42:MFC42.DLL
 0001:00069a08       ??0CDialog@@QAE@IPAVCWnd@@@Z 0046aa08 f   mfc42:MFC42.DLL
 0001:00069a0e       ??3@YAXPAX@Z               0046aa0e f   mfc42:MFC42.DLL
 0001:00069a14       ?DDX_Text@@YGXPAVCDataExchange@@HAAVCString@@@Z 0046aa14 f   mfc42:MFC42.DLL
 0001:00069a1a       ?DDX_Control@@YGXPAVCDataExchange@@HAAVCWnd@@@Z 0046aa1a f   mfc42:MFC42.DLL
 0001:00069a20       ??1CStringArray@@UAE@XZ    0046aa20 f   mfc42:MFC42.DLL
 0001:00069a26       ?UpdateData@CWnd@@QAEHH@Z  0046aa26 f   mfc42:MFC42.DLL
 0001:00069a2c       ?AfxGetModuleState@@YGPAVAFX_MODULE_STATE@@XZ 0046aa2c f   mfc42:MFC42.DLL
 0001:00069a32       ?SetAtGrow@CStringArray@@QAEXHABVCString@@@Z 0046aa32 f   mfc42:MFC42.DLL
 0001:00069a38       ?SetAtGrow@CStringArray@@QAEXHPBD@Z 0046aa38 f   mfc42:MFC42.DLL
 0001:00069a3e       ??0CStringArray@@QAE@XZ    0046aa3e f   mfc42:MFC42.DLL
 0001:00069a44       ?GetLocalTm@CTime@@QBEPAUtm@@PAU2@@Z 0046aa44 f   mfc42:MFC42.DLL
 0001:00069a4a       ?GetTickCount@CTime@@SG?AV1@XZ 0046aa4a f   mfc42:MFC42.DLL
 0001:00069a50       ?Format@CString@@QAAXPBDZZ 0046aa50 f   mfc42:MFC42.DLL
 0001:00069a56       ?OnInitDialog@CDialog@@UAEHXZ 0046aa56 f   mfc42:MFC42.DLL
 0001:00069a5c       ?SetOccDialogInfo@CWnd@@MAEHPAU_AFX_OCC_DIALOG_INFO@@@Z 0046aa5c f   mfc42:MFC42.DLL
 0001:00069a62       ?CheckAutoCenter@CWnd@@UAEHXZ 0046aa62 f   mfc42:MFC42.DLL
 0001:00069a68       ?PreTranslateMessage@CWnd@@UAEHPAUtagMSG@@@Z 0046aa68 f   mfc42:MFC42.DLL
 0001:00069a6e       ?GetMessageMap@CWnd@@MBEPBUAFX_MSGMAP@@XZ 0046aa6e f   mfc42:MFC42.DLL
 0001:00069a74       ?OnCmdMsg@CCmdTarget@@UAEHIHPAXPAUAFX_CMDHANDLERINFO@@@Z 0046aa74 f   mfc42:MFC42.DLL
 0001:00069a7a       ?GetRuntimeClass@CDateTimeCtrl@@UBEPAUCRuntimeClass@@XZ 0046aa7a f   mfc42:MFC42.DLL
 0001:00069a80       ??1CDateTimeCtrl@@UAE@XZ   0046aa80 f   mfc42:MFC42.DLL
 0001:00069a86       ??4CString@@QAEABV0@ABV0@@Z 0046aa86 f   mfc42:MFC42.DLL
 0001:00069a8c       ??0CWnd@@QAE@XZ            0046aa8c f   mfc42:MFC42.DLL
 0001:00069a92       ?DDX_Check@@YGXPAVCDataExchange@@HAAH@Z 0046aa92 f   mfc42:MFC42.DLL
 0001:00069a98       ?DDX_Text@@YGXPAVCDataExchange@@HAAH@Z 0046aa98 f   mfc42:MFC42.DLL
 0001:00069a9e       ?SetTime@CDateTimeCtrl@@QAEHPBVCTime@@@Z 0046aa9e f   mfc42:MFC42.DLL
 0001:00069aa4       ?GetTime@CDateTimeCtrl@@QBEKAAVCTime@@@Z 0046aaa4 f   mfc42:MFC42.DLL
 0001:00069aaa       ?DrawItem@CButton@@UAEXPAUtagDRAWITEMSTRUCT@@@Z 0046aaaa f   mfc42:MFC42.DLL
 0001:00069ab0       ?OnChildNotify@CButton@@MAEHIIJPAJ@Z 0046aab0 f   mfc42:MFC42.DLL
 0001:00069ab6       ?GetRuntimeClass@CButton@@UBEPAUCRuntimeClass@@XZ 0046aab6 f   mfc42:MFC42.DLL
 0001:00069abc       ??1CButton@@UAE@XZ         0046aabc f   mfc42:MFC42.DLL
 0001:00069ac2       ?InsertColumn@CListCtrl@@QAEHHPBDHHH@Z 0046aac2 f   mfc42:MFC42.DLL
 0001:00069ac8       ?EnableWindow@CWnd@@QAEHH@Z 0046aac8 f   mfc42:MFC42.DLL
 0001:00069ace       ?SetItem@CListCtrl@@QAEHHHIPBDHIIJ@Z 0046aace f   mfc42:MFC42.DLL
 0001:00069ad4       ?InsertItem@CListCtrl@@QAEHIHPBDIIHJ@Z 0046aad4 f   mfc42:MFC42.DLL
 0001:00069ada       ?GetItemData@CListCtrl@@QBEKH@Z 0046aada f   mfc42:MFC42.DLL
 0001:00069ae0       ?MessageBoxA@CWnd@@QAEHPBD0I@Z 0046aae0 f   mfc42:MFC42.DLL
 0001:00069ae6       ?SetItemText@CListCtrl@@QAEHHHPBD@Z 0046aae6 f   mfc42:MFC42.DLL
 0001:00069aec       ?DeleteItem@CComboBox@@UAEXPAUtagDELETEITEMSTRUCT@@@Z 0046aaec f   mfc42:MFC42.DLL
 0001:00069af2       ?CompareItem@CComboBox@@UAEHPAUtagCOMPAREITEMSTRUCT@@@Z 0046aaf2 f   mfc42:MFC42.DLL
 0001:00069af8       ?MeasureItem@CComboBox@@UAEXPAUtagMEASUREITEMSTRUCT@@@Z 0046aaf8 f   mfc42:MFC42.DLL
 0001:00069afe       ?DrawItem@CComboBox@@UAEXPAUtagDRAWITEMSTRUCT@@@Z 0046aafe f   mfc42:MFC42.DLL
 0001:00069b04       ?OnChildNotify@CComboBox@@MAEHIIJPAJ@Z 0046ab04 f   mfc42:MFC42.DLL
 0001:00069b0a       ?GetRuntimeClass@CComboBox@@UBEPAUCRuntimeClass@@XZ 0046ab0a f   mfc42:MFC42.DLL
 0001:00069b10       ??1CImageList@@UAE@XZ      0046ab10 f   mfc42:MFC42.DLL
 0001:00069b16       ??1CComboBox@@UAE@XZ       0046ab16 f   mfc42:MFC42.DLL
 0001:00069b1c       ??0CImageList@@QAE@XZ      0046ab1c f   mfc42:MFC42.DLL
 0001:00069b22       ?DDV_MinMaxInt@@YGXPAVCDataExchange@@HHH@Z 0046ab22 f   mfc42:MFC42.DLL
 0001:00069b28       ?GetLBText@CComboBox@@QBEXHAAVCString@@@Z 0046ab28 f   mfc42:MFC42.DLL
 0001:00069b2e       ?Default@CWnd@@IAEJXZ      0046ab2e f   mfc42:MFC42.DLL
 0001:00069b34       ?SetWindowTextA@CWnd@@QAEXPBD@Z 0046ab34 f   mfc42:MFC42.DLL
 0001:00069b3a       ??1CStatic@@UAE@XZ         0046ab3a f   mfc42:MFC42.DLL
 0001:00069b40       ?GetStyle@CWnd@@QBEKXZ     0046ab40 f   mfc42:MFC42.DLL
 0001:00069b46       ?SetCheck@CListCtrl@@QAEHHH@Z 0046ab46 f   mfc42:MFC42.DLL
 0001:00069b4c       ?GetCheck@CListCtrl@@QBEHH@Z 0046ab4c f   mfc42:MFC42.DLL
 0001:00069b52       ?GetItemText@CListCtrl@@QBE?AVCString@@HH@Z 0046ab52 f   mfc42:MFC42.DLL
 0001:00069b58       ?GetRuntimeClass@CStatic@@UBEPAUCRuntimeClass@@XZ 0046ab58 f   mfc42:MFC42.DLL
 0001:00069b5e       ?DDX_CBString@@YGXPAVCDataExchange@@HAAVCString@@@Z 0046ab5e f   mfc42:MFC42.DLL
 0001:00069b64       ?DDX_DateTimeCtrl@@YGXPAVCDataExchange@@HAAVCTime@@@Z 0046ab64 f   mfc42:MFC42.DLL
 0001:00069b6a       ?DDV_MaxChars@@YGXPAVCDataExchange@@ABVCString@@H@Z 0046ab6a f   mfc42:MFC42.DLL
 0001:00069b70       ?Replace@CString@@QAEHPBD0@Z 0046ab70 f   mfc42:MFC42.DLL
 0001:00069b76       ?GetRuntimeClass@CEdit@@UBEPAUCRuntimeClass@@XZ 0046ab76 f   mfc42:MFC42.DLL
 0001:00069b7c       ?CharToItem@CListBox@@UAEHII@Z 0046ab7c f   mfc42:MFC42.DLL
 0001:00069b82       ?VKeyToItem@CListBox@@UAEHII@Z 0046ab82 f   mfc42:MFC42.DLL
 0001:00069b88       ?DeleteItem@CListBox@@UAEXPAUtagDELETEITEMSTRUCT@@@Z 0046ab88 f   mfc42:MFC42.DLL
 0001:00069b8e       ?CompareItem@CListBox@@UAEHPAUtagCOMPAREITEMSTRUCT@@@Z 0046ab8e f   mfc42:MFC42.DLL
 0001:00069b94       ?MeasureItem@CListBox@@UAEXPAUtagMEASUREITEMSTRUCT@@@Z 0046ab94 f   mfc42:MFC42.DLL
 0001:00069b9a       ?DrawItem@CListBox@@UAEXPAUtagDRAWITEMSTRUCT@@@Z 0046ab9a f   mfc42:MFC42.DLL
 0001:00069ba0       ?OnChildNotify@CListBox@@MAEHIIJPAJ@Z 0046aba0 f   mfc42:MFC42.DLL
 0001:00069ba6       ?GetRuntimeClass@CListBox@@UBEPAUCRuntimeClass@@XZ 0046aba6 f   mfc42:MFC42.DLL
 0001:00069bac       ??1CListBox@@UAE@XZ        0046abac f   mfc42:MFC42.DLL
 0001:00069bb2       ??1CEdit@@UAE@XZ           0046abb2 f   mfc42:MFC42.DLL
 0001:00069bb8       ?GetText@CListBox@@QBEXHAAVCString@@@Z 0046abb8 f   mfc42:MFC42.DLL
 0001:00069bbe       ?SetItem@CTreeCtrl@@QAEHPAU_TREEITEM@@IPBDHHIIJ@Z 0046abbe f   mfc42:MFC42.DLL
 0001:00069bc4       ??2@YAPAXI@Z               0046abc4 f   mfc42:MFC42.DLL
 0001:00069bca       ?InsertItem@CTreeCtrl@@QAEPAU_TREEITEM@@IPBDHHIIJPAU2@1@Z 0046abca f   mfc42:MFC42.DLL
 0001:00069bd0       ?GetItemData@CTreeCtrl@@QBEKPAU_TREEITEM@@@Z 0046abd0 f   mfc42:MFC42.DLL
 0001:00069bd6       ??0CString@@QAE@ABV0@@Z    0046abd6 f   mfc42:MFC42.DLL
 0001:00069bdc       ??0CString@@QAE@PBD@Z      0046abdc f   mfc42:MFC42.DLL
 0001:00069be2       ?GetMessageMap@CTreeCtrl@@MBEPBUAFX_MSGMAP@@XZ 0046abe2 f   mfc42:MFC42.DLL
 0001:00069be8       ?GetRuntimeClass@CTreeCtrl@@UBEPAUCRuntimeClass@@XZ 0046abe8 f   mfc42:MFC42.DLL
 0001:00069bee       ??1CTreeCtrl@@UAE@XZ       0046abee f   mfc42:MFC42.DLL
 0001:00069bf4       ?FromHandle@CWnd@@SGPAV1@PAUHWND__@@@Z 0046abf4 f   mfc42:MFC42.DLL
 0001:00069bfa       ?GetItemText@CTreeCtrl@@QBE?AVCString@@PAU_TREEITEM@@@Z 0046abfa f   mfc42:MFC42.DLL
 0001:00069c00       ?MeasureItem@CMenu@@UAEXPAUtagMEASUREITEMSTRUCT@@@Z 0046ac00 f   mfc42:MFC42.DLL
 0001:00069c06       ?DrawItem@CMenu@@UAEXPAUtagDRAWITEMSTRUCT@@@Z 0046ac06 f   mfc42:MFC42.DLL
 0001:00069c0c       ?GetRuntimeClass@CMenu@@UBEPAUCRuntimeClass@@XZ 0046ac0c f   mfc42:MFC42.DLL
 0001:00069c12       ?DestroyMenu@CMenu@@QAEHXZ 0046ac12 f   mfc42:MFC42.DLL
 0001:00069c18       ?TrackPopupMenu@CMenu@@QAEHIHHPAVCWnd@@PBUtagRECT@@@Z 0046ac18 f   mfc42:MFC42.DLL
 0001:00069c1e       ?FromHandle@CMenu@@SGPAV1@PAUHMENU__@@@Z 0046ac1e f   mfc42:MFC42.DLL
 0001:00069c24       ?Attach@CMenu@@QAEHPAUHMENU__@@@Z 0046ac24 f   mfc42:MFC42.DLL
 0001:00069c2a       ?AfxFindResourceHandle@@YGPAUHINSTANCE__@@PBD0@Z 0046ac2a f   mfc42:MFC42.DLL
 0001:00069c30       ?GetRuntimeClass@CObject@@UBEPAUCRuntimeClass@@XZ 0046ac30 f   mfc42:MFC42.DLL
 0001:00069c36       ?OnCancel@CCommonDialog@@MAEXXZ 0046ac36 f   mfc42:MFC42.DLL
 0001:00069c3c       ?OnOK@CCommonDialog@@MAEXXZ 0046ac3c f   mfc42:MFC42.DLL
 0001:00069c42       ?PostModal@CDialog@@IAEXXZ 0046ac42 f   mfc42:MFC42.DLL
 0001:00069c48       ?PreModal@CDialog@@IAEPAUHWND__@@XZ 0046ac48 f   mfc42:MFC42.DLL
 0001:00069c4e       ?SetWindowPos@CWnd@@QAEHPBV1@HHHHI@Z 0046ac4e f   mfc42:MFC42.DLL
 0001:00069c54       ??YCString@@QAEABV0@PBD@Z  0046ac54 f   mfc42:MFC42.DLL
 0001:00069c5a       ?Left@CString@@QBE?AV1@H@Z 0046ac5a f   mfc42:MFC42.DLL
 0001:00069c60       ??H@YG?AVCString@@PBDABV0@@Z 0046ac60 f   mfc42:MFC42.DLL
 0001:00069c66       ?InsertItem@CTabCtrl@@QAEHIHPBDHJ@Z 0046ac66 f   mfc42:MFC42.DLL
 0001:00069c6c       ??YCString@@QAEABV0@ABV0@@Z 0046ac6c f   mfc42:MFC42.DLL
 0001:00069c72       ?DrawItem@CTabCtrl@@UAEXPAUtagDRAWITEMSTRUCT@@@Z 0046ac72 f   mfc42:MFC42.DLL
 0001:00069c78       ?OnChildNotify@CTabCtrl@@MAEHIIJPAJ@Z 0046ac78 f   mfc42:MFC42.DLL
 0001:00069c7e       ?GetRuntimeClass@CTabCtrl@@UBEPAUCRuntimeClass@@XZ 0046ac7e f   mfc42:MFC42.DLL
 0001:00069c84       ??1CTabCtrl@@UAE@XZ        0046ac84 f   mfc42:MFC42.DLL
 0001:00069c8a       ?Create@CDialog@@QAEHPBDPAVCWnd@@@Z 0046ac8a f   mfc42:MFC42.DLL
 0001:00069c90       ?ScreenToClient@CWnd@@QBEXPAUtagRECT@@@Z 0046ac90 f   mfc42:MFC42.DLL
 0001:00069c96       ?ShowWindow@CWnd@@QAEHH@Z  0046ac96 f   mfc42:MFC42.DLL
 0001:00069c9c       ?OnContextHelp@CFrameWnd@@QAEXXZ 0046ac9c f   mfc42:MFC42.DLL
 0001:00069ca2       ?OnHelp@CFrameWnd@@IAEXXZ  0046aca2 f   mfc42:MFC42.DLL
 0001:00069ca8       ?OnHelpFinder@CWnd@@QAEXXZ 0046aca8 f   mfc42:MFC42.DLL
 0001:00069cae       ?OnInitMenuPopup@CFrameWnd@@IAEXPAVCMenu@@IH@Z 0046acae f   mfc42:MFC42.DLL
 0001:00069cb4       ?OnDrawItem@CWnd@@IAEXHPAUtagDRAWITEMSTRUCT@@@Z 0046acb4 f   mfc42:MFC42.DLL
 0001:00069cba       ?ExitHelpMode@CFrameWnd@@UAEXXZ 0046acba f   mfc42:MFC42.DLL
 0001:00069cc0       ?DelayUpdateFrameMenu@CFrameWnd@@UAEXPAUHMENU__@@@Z 0046acc0 f   mfc42:MFC42.DLL
 0001:00069cc6       ?GetDefaultAccelerator@CFrameWnd@@UAEPAUHACCEL__@@XZ 0046acc6 f   mfc42:MFC42.DLL
 0001:00069ccc       ?OnUpdateFrameMenu@CFrameWnd@@UAEXPAUHMENU__@@@Z 0046accc f   mfc42:MFC42.DLL
 0001:00069cd2       ?OnUpdateFrameTitle@CFrameWnd@@UAEXH@Z 0046acd2 f   mfc42:MFC42.DLL
 0001:00069cd8       ?OnCreateClient@CFrameWnd@@MAEHPAUtagCREATESTRUCTA@@PAUCCreateContext@@@Z 0046acd8 f   mfc42:MFC42.DLL
 0001:00069cde       ?NegotiateBorderSpace@CFrameWnd@@UAEHIPAUtagRECT@@@Z 0046acde f   mfc42:MFC42.DLL
 0001:00069ce4       ?GetMessageBar@CFrameWnd@@UAEPAVCWnd@@XZ 0046ace4 f   mfc42:MFC42.DLL
 0001:00069cea       ?OnSetPreviewMode@CFrameWnd@@UAEXHPAUCPrintPreviewState@@@Z 0046acea f   mfc42:MFC42.DLL
 0001:00069cf0       ?ActivateFrame@CFrameWnd@@UAEXH@Z 0046acf0 f   mfc42:MFC42.DLL
 0001:00069cf6       ?RecalcLayout@CFrameWnd@@UAEXH@Z 0046acf6 f   mfc42:MFC42.DLL
 0001:00069cfc       ?GetMessageString@CFrameWnd@@UBEXIAAVCString@@@Z 0046acfc f   mfc42:MFC42.DLL
 0001:00069d02       ?GetActiveFrame@CFrameWnd@@UAEPAV1@XZ 0046ad02 f   mfc42:MFC42.DLL
 0001:00069d08       ?GetActiveDocument@CFrameWnd@@UAEPAVCDocument@@XZ 0046ad08 f   mfc42:MFC42.DLL
 0001:00069d0e       ?IsFrameWnd@CFrameWnd@@UBEHXZ 0046ad0e f   mfc42:MFC42.DLL
 0001:00069d14       ?PostNcDestroy@CFrameWnd@@MAEXXZ 0046ad14 f   mfc42:MFC42.DLL
 0001:00069d1a       ?PreTranslateMessage@CFrameWnd@@UAEHPAUtagMSG@@@Z 0046ad1a f   mfc42:MFC42.DLL
 0001:00069d20       ?EndModalState@CFrameWnd@@UAEXXZ 0046ad20 f   mfc42:MFC42.DLL
 0001:00069d26       ?BeginModalState@CFrameWnd@@UAEXXZ 0046ad26 f   mfc42:MFC42.DLL
 0001:00069d2c       ?OnCommand@CFrameWnd@@MAEHIJ@Z 0046ad2c f   mfc42:MFC42.DLL
 0001:00069d32       ?OnCmdMsg@CFrameWnd@@UAEHIHPAXPAUAFX_CMDHANDLERINFO@@@Z 0046ad32 f   mfc42:MFC42.DLL
 0001:00069d38       ?DrawItem@CStatusBar@@UAEXPAUtagDRAWITEMSTRUCT@@@Z 0046ad38 f   mfc42:MFC42.DLL
 0001:00069d3e       ?SetStatusText@CControlBar@@UAEHH@Z 0046ad3e f   mfc42:MFC42.DLL
 0001:00069d44       ?DoPaint@CControlBar@@UAEXPAVCDC@@@Z 0046ad44 f   mfc42:MFC42.DLL
 0001:00069d4a       ?OnBarStyleChange@CStatusBar@@UAEXKK@Z 0046ad4a f   mfc42:MFC42.DLL
 0001:00069d50       ?IsDockBar@CControlBar@@UBEHXZ 0046ad50 f   mfc42:MFC42.DLL
 0001:00069d56       ?RecalcDelayShow@CControlBar@@UAEKPAUAFX_SIZEPARENTPARAMS@@@Z 0046ad56 f   mfc42:MFC42.DLL
 0001:00069d5c       ?IsVisible@CControlBar@@UBEHXZ 0046ad5c f   mfc42:MFC42.DLL
 0001:00069d62       ?DelayShow@CControlBar@@UAEXH@Z 0046ad62 f   mfc42:MFC42.DLL
 0001:00069d68       ?OnUpdateCmdUI@CStatusBar@@UAEXPAVCFrameWnd@@H@Z 0046ad68 f   mfc42:MFC42.DLL
 0001:00069d6e       ?CalcDynamicLayout@CControlBar@@UAE?AVCSize@@HK@Z 0046ad6e f   mfc42:MFC42.DLL
 0001:00069d74       ?CalcFixedLayout@CStatusBar@@UAE?AVCSize@@HH@Z 0046ad74 f   mfc42:MFC42.DLL
 0001:00069d7a       ?OnChildNotify@CStatusBar@@MAEHIIJPAJ@Z 0046ad7a f   mfc42:MFC42.DLL
 0001:00069d80       ?PostNcDestroy@CControlBar@@UAEXXZ 0046ad80 f   mfc42:MFC42.DLL
 0001:00069d86       ?WindowProc@CControlBar@@UAEJIIJ@Z 0046ad86 f   mfc42:MFC42.DLL
 0001:00069d8c       ?PreTranslateMessage@CControlBar@@UAEHPAUtagMSG@@@Z 0046ad8c f   mfc42:MFC42.DLL
 0001:00069d92       ?PreCreateWindow@CStatusBar@@UAEHAAUtagCREATESTRUCTA@@@Z 0046ad92 f   mfc42:MFC42.DLL
 0001:00069d98       ?DestroyWindow@CControlBar@@UAEHXZ 0046ad98 f   mfc42:MFC42.DLL
 0001:00069d9e       ??1CToolBar@@UAE@XZ        0046ad9e f   mfc42:MFC42.DLL
 0001:00069da4       ??1CFrameWnd@@UAE@XZ       0046ada4 f   mfc42:MFC42.DLL
 0001:00069daa       ??0CDialogBar@@QAE@XZ      0046adaa f   mfc42:MFC42.DLL
 0001:00069db0       ??0CReBar@@QAE@XZ          0046adb0 f   mfc42:MFC42.DLL
 0001:00069db6       ??0CToolBar@@QAE@XZ        0046adb6 f   mfc42:MFC42.DLL
 0001:00069dbc       ??0CStatusBar@@QAE@XZ      0046adbc f   mfc42:MFC42.DLL
 0001:00069dc2       ??0CFrameWnd@@QAE@XZ       0046adc2 f   mfc42:MFC42.DLL
 0001:00069dc8       ??1CStatusBar@@UAE@XZ      0046adc8 f   mfc42:MFC42.DLL
 0001:00069dce       ??1CControlBar@@UAE@XZ     0046adce f   mfc42:MFC42.DLL
 0001:00069dd4       ??1CDialogBar@@UAE@XZ      0046add4 f   mfc42:MFC42.DLL
 0001:00069dda       ?MoveWindow@CWnd@@QAEXHHHHH@Z 0046adda f   mfc42:MFC42.DLL
 0001:00069de0       ?SetBarStyle@CControlBar@@QAEXK@Z 0046ade0 f   mfc42:MFC42.DLL
 0001:00069de6       ?Create@CStatusBar@@QAEHPAVCWnd@@KI@Z 0046ade6 f   mfc42:MFC42.DLL
 0001:00069dec       ?OnCreate@CFrameWnd@@IAEHPAUtagCREATESTRUCTA@@@Z 0046adec f   mfc42:MFC42.DLL
 0001:00069df2       ?PreCreateWindow@CFrameWnd@@MAEHAAUtagCREATESTRUCTA@@@Z 0046adf2 f   mfc42:MFC42.DLL
 0001:00069df8       ?GetRuntimeClass@CGdiObject@@UBEPAUCRuntimeClass@@XZ 0046adf8 f   mfc42:MFC42.DLL
 0001:00069dfe       ?DeleteObject@CGdiObject@@QAEHXZ 0046adfe f   mfc42:MFC42.DLL
 0001:00069e04       ?LoadFrame@CFrameWnd@@UAEHIKPAVCWnd@@PAUCCreateContext@@@Z 0046ae04 f   mfc42:MFC42.DLL
 0001:00069e0a       ?EndDialog@CDialog@@QAEXH@Z 0046ae0a f   mfc42:MFC42.DLL
 0001:00069e10       ?GetRuntimeClass@CFont@@UBEPAUCRuntimeClass@@XZ 0046ae10 f   mfc42:MFC42.DLL
 0001:00069e16       ?Attach@CGdiObject@@QAEHPAX@Z 0046ae16 f   mfc42:MFC42.DLL
 0001:00069e1c       ?ItemHasChildren@CTreeCtrl@@QBEHPAU_TREEITEM@@@Z 0046ae1c f   mfc42:MFC42.DLL
 0001:00069e22       ??H@YG?AVCString@@ABV0@PBD@Z 0046ae22 f   mfc42:MFC42.DLL
 0001:00069e28       ?HitTest@CTreeCtrl@@QBEPAU_TREEITEM@@VCPoint@@PAI@Z 0046ae28 f   mfc42:MFC42.DLL
 0001:00069e2e       ?DDX_Radio@@YGXPAVCDataExchange@@HAAH@Z 0046ae2e f   mfc42:MFC42.DLL
 0001:00069e34       ?GetDlgItem@CWnd@@QBEPAV1@H@Z 0046ae34 f   mfc42:MFC42.DLL
 0001:00069e3a       ?GetPathName@CFileDialog@@QBE?AVCString@@XZ 0046ae3a f   mfc42:MFC42.DLL
 0001:00069e40       ?DoModal@CFileDialog@@UAEHXZ 0046ae40 f   mfc42:MFC42.DLL
 0001:00069e46       ??0CFileDialog@@QAE@HPBD0K0PAVCWnd@@@Z 0046ae46 f   mfc42:MFC42.DLL
 0001:00069e4c       ?MakeUpper@CString@@QAEXXZ 0046ae4c f   mfc42:MFC42.DLL
 0001:00069e52       ?Format@CTime@@QBE?AVCString@@PBD@Z 0046ae52 f   mfc42:MFC42.DLL
 0001:00069e58       ?WriteProfileInt@CWinApp@@QAEHPBD0H@Z 0046ae58 f   mfc42:MFC42.DLL
 0001:00069e5e       ?GetProfileIntA@CWinApp@@QAEIPBD0H@Z 0046ae5e f   mfc42:MFC42.DLL
 0001:00069e64       ?ReleaseBuffer@CString@@QAEXH@Z 0046ae64 f   mfc42:MFC42.DLL
 0001:00069e6a       ?GetBuffer@CString@@QAEPADH@Z 0046ae6a f   mfc42:MFC42.DLL
 0001:00069e70       ??H@YG?AVCString@@ABV0@0@Z 0046ae70 f   mfc42:MFC42.DLL
 0001:00069e76       ?Mid@CString@@QBE?AV1@HH@Z 0046ae76 f   mfc42:MFC42.DLL
 0001:00069e7c       ?Mid@CString@@QBE?AV1@H@Z  0046ae7c f   mfc42:MFC42.DLL
 0001:00069e82       ?ReverseFind@CString@@QBEHD@Z 0046ae82 f   mfc42:MFC42.DLL
 0001:00069e88       ?DestructElements@@YGXPAVCString@@H@Z 0046ae88 f   mfc42:MFC42.DLL
 0001:00069e8e       ??0CTime@@QAE@HHHHHHH@Z    0046ae8e f   mfc42:MFC42.DLL
 0001:00069e94       ?Read@CArchive@@QAEIPAXI@Z 0046ae94 f   mfc42:MFC42.DLL
 0001:00069e9a       ?Write@CArchive@@QAEXPBXI@Z 0046ae9a f   mfc42:MFC42.DLL
 0001:00069ea0       ?ReadCount@CArchive@@QAEKXZ 0046aea0 f   mfc42:MFC42.DLL
 0001:00069ea6       ?WriteCount@CArchive@@QAEXK@Z 0046aea6 f   mfc42:MFC42.DLL
 0001:00069eac       ?SerializeElements@@YGXAAVCArchive@@PAVCString@@H@Z 0046aeac f   mfc42:MFC42.DLL
 0001:00069eb2       ?ConstructElements@@YGXPAVCString@@H@Z 0046aeb2 f   mfc42:MFC42.DLL
 0001:00069eb8       ?SetCheck@CTreeCtrl@@QAEHPAU_TREEITEM@@H@Z 0046aeb8 f   mfc42:MFC42.DLL
 0001:00069ebe       ?ModifyStyle@CWnd@@QAEHKKI@Z 0046aebe f   mfc42:MFC42.DLL
 0001:00069ec4       ?GetCheck@CTreeCtrl@@QBEHPAU_TREEITEM@@@Z 0046aec4 f   mfc42:MFC42.DLL
 0001:00069eca       ?DDX_LBString@@YGXPAVCDataExchange@@HAAVCString@@@Z 0046aeca f   mfc42:MFC42.DLL
 0001:00069ed0       ?Find@CString@@QBEHPBD@Z   0046aed0 f   mfc42:MFC42.DLL
 0001:00069ed6       ?TrimRight@CString@@QAEXXZ 0046aed6 f   mfc42:MFC42.DLL
 0001:00069edc       ?OnDDECommand@CWinApp@@UAEHPAD@Z 0046aedc f   mfc42:MFC42.DLL
 0001:00069ee2       ?DoWaitCursor@CWinApp@@UAEXH@Z 0046aee2 f   mfc42:MFC42.DLL
 0001:00069ee8       ?DoMessageBox@CWinApp@@UAEHPBDII@Z 0046aee8 f   mfc42:MFC42.DLL
 0001:00069eee       ?SaveAllModified@CWinApp@@UAEHXZ 0046aeee f   mfc42:MFC42.DLL
 0001:00069ef4       ?InitApplication@CWinApp@@UAEHXZ 0046aef4 f   mfc42:MFC42.DLL
 0001:00069efa       ?AddToRecentFileList@CWinApp@@UAEXPBD@Z 0046aefa f   mfc42:MFC42.DLL
 0001:00069f00       ?OpenDocumentFile@CWinApp@@UAEPAVCDocument@@PBD@Z 0046af00 f   mfc42:MFC42.DLL
 0001:00069f06       ?Delete@CWinThread@@UAEXXZ 0046af06 f   mfc42:MFC42.DLL
 0001:00069f0c       ?GetMainWnd@CWinThread@@UAEPAVCWnd@@XZ 0046af0c f   mfc42:MFC42.DLL
 0001:00069f12       ?ProcessMessageFilter@CWinThread@@UAEHHPAUtagMSG@@@Z 0046af12 f   mfc42:MFC42.DLL
 0001:00069f18       ?ProcessWndProcException@CWinApp@@UAEJPAVCException@@PBUtagMSG@@@Z 0046af18 f   mfc42:MFC42.DLL
 0001:00069f1e       ?IsIdleMessage@CWinThread@@UAEHPAUtagMSG@@@Z 0046af1e f   mfc42:MFC42.DLL
 0001:00069f24       ?OnIdle@CWinApp@@UAEHJ@Z   0046af24 f   mfc42:MFC42.DLL
 0001:00069f2a       ?PumpMessage@CWinThread@@UAEHXZ 0046af2a f   mfc42:MFC42.DLL
 0001:00069f30       ?PreTranslateMessage@CWinThread@@UAEHPAUtagMSG@@@Z 0046af30 f   mfc42:MFC42.DLL
 0001:00069f36       ?Run@CWinApp@@UAEHXZ       0046af36 f   mfc42:MFC42.DLL
 0001:00069f3c       ?OnFinalRelease@CCmdTarget@@UAEXXZ 0046af3c f   mfc42:MFC42.DLL
 0001:00069f42       ?GetRuntimeClass@CWinApp@@UBEPAUCRuntimeClass@@XZ 0046af42 f   mfc42:MFC42.DLL
 0001:00069f48       ??1CWinApp@@UAE@XZ         0046af48 f   mfc42:MFC42.DLL
 0001:00069f4e       ??0CWinApp@@QAE@PBD@Z      0046af4e f   mfc42:MFC42.DLL
 0001:00069f54       ?AfxGetThread@@YGPAVCWinThread@@XZ 0046af54 f   mfc42:MFC42.DLL
 0001:00069f5a       ??1CCommandLineInfo@@UAE@XZ 0046af5a f   mfc42:MFC42.DLL
 0001:00069f60       ?ProcessShellCommand@CWinApp@@QAEHAAVCCommandLineInfo@@@Z 0046af60 f   mfc42:MFC42.DLL
 0001:00069f66       ?ParseCommandLine@CWinApp@@QAEXAAVCCommandLineInfo@@@Z 0046af66 f   mfc42:MFC42.DLL
 0001:00069f6c       ??0CCommandLineInfo@@QAE@XZ 0046af6c f   mfc42:MFC42.DLL
 0001:00069f72       ?AddDocTemplate@CWinApp@@QAEXPAVCDocTemplate@@@Z 0046af72 f   mfc42:MFC42.DLL
 0001:00069f78       ??0CSingleDocTemplate@@QAE@IPAUCRuntimeClass@@00@Z 0046af78 f   mfc42:MFC42.DLL
 0001:00069f7e       ?LoadStdProfileSettings@CWinApp@@IAEXI@Z 0046af7e f   mfc42:MFC42.DLL
 0001:00069f84       ?SetRegistryKey@CWinApp@@IAEXPBD@Z 0046af84 f   mfc42:MFC42.DLL
 0001:00069f8a       ?Enable3dControls@CWinApp@@IAEHXZ 0046af8a f   mfc42:MFC42.DLL
 0001:00069f90       ?AfxEnableControlContainer@@YAXPAVCOccManager@@@Z 0046af90 f   mfc42:MFC42.DLL
 0001:00069f96       ?Delete@CException@@QAEXXZ 0046af96 f   mfc42:MFC42.DLL
 0001:00069f9c       ??1CFile@@UAE@XZ           0046af9c f   mfc42:MFC42.DLL
 0001:00069fa2       ?Close@CFile@@UAEXXZ       0046afa2 f   mfc42:MFC42.DLL
 0001:00069fa8       ?Read@CFile@@UAEIPAXI@Z    0046afa8 f   mfc42:MFC42.DLL
 0001:00069fae       ??0CFile@@QAE@PBDI@Z       0046afae f   mfc42:MFC42.DLL
 0001:00069fb4       ?ExitInstance@CWinApp@@UAEHXZ 0046afb4 f   mfc42:MFC42.DLL
 0001:00069fba       ?Find@CString@@QBEHD@Z     0046afba f   mfc42:MFC42.DLL
 0001:00069fc0       ?OnIdle@CDocument@@UAEXXZ  0046afc0 f   mfc42:MFC42.DLL
 0001:00069fc6       ?GetDefaultAccelerator@CDocument@@UAEPAUHACCEL__@@XZ 0046afc6 f   mfc42:MFC42.DLL
 0001:00069fcc       ?GetDefaultMenu@CDocument@@UAEPAUHMENU__@@XZ 0046afcc f   mfc42:MFC42.DLL
 0001:00069fd2       ?UpdateFrameCounts@CDocument@@UAEXXZ 0046afd2 f   mfc42:MFC42.DLL
 0001:00069fd8       ?DoFileSave@CDocument@@UAEHXZ 0046afd8 f   mfc42:MFC42.DLL
 0001:00069fde       ?DoSave@CDocument@@UAEHPBDH@Z 0046afde f   mfc42:MFC42.DLL
 0001:00069fe4       ?PreCloseFrame@CDocument@@UAEXPAVCFrameWnd@@@Z 0046afe4 f   mfc42:MFC42.DLL
 0001:00069fea       ?SaveModified@CDocument@@UAEHXZ 0046afea f   mfc42:MFC42.DLL
 0001:00069ff0       ?CanCloseFrame@CDocument@@UAEHPAVCFrameWnd@@@Z 0046aff0 f   mfc42:MFC42.DLL
 0001:00069ff6       ?ReleaseFile@CDocument@@UAEXPAVCFile@@H@Z 0046aff6 f   mfc42:MFC42.DLL
 0001:00069ffc       ?GetFile@CDocument@@UAEPAVCFile@@PBDIPAVCFileException@@@Z 0046affc f   mfc42:MFC42.DLL
 0001:0006a002       ?ReportSaveLoadException@CDocument@@UAEXPBDPAVCException@@HI@Z 0046b002 f   mfc42:MFC42.DLL
 0001:0006a008       ?OnCloseDocument@CDocument@@UAEXXZ 0046b008 f   mfc42:MFC42.DLL
 0001:0006a00e       ?OnSaveDocument@CDocument@@UAEHPBD@Z 0046b00e f   mfc42:MFC42.DLL
 0001:0006a014       ?OnOpenDocument@CDocument@@UAEHPBD@Z 0046b014 f   mfc42:MFC42.DLL
 0001:0006a01a       ?DeleteContents@CDocument@@UAEXXZ 0046b01a f   mfc42:MFC42.DLL
 0001:0006a020       ?OnChangedViewList@CDocument@@UAEXXZ 0046b020 f   mfc42:MFC42.DLL
 0001:0006a026       ?GetNextView@CDocument@@UBEPAVCView@@AAPAU__POSITION@@@Z 0046b026 f   mfc42:MFC42.DLL
 0001:0006a02c       ?GetFirstViewPosition@CDocument@@UBEPAU__POSITION@@XZ 0046b02c f   mfc42:MFC42.DLL
 0001:0006a032       ?SetPathName@CDocument@@UAEXPBDH@Z 0046b032 f   mfc42:MFC42.DLL
 0001:0006a038       ?SetTitle@CDocument@@UAEXPBD@Z 0046b038 f   mfc42:MFC42.DLL
 0001:0006a03e       ?OnFinalRelease@CDocument@@UAEXXZ 0046b03e f   mfc42:MFC42.DLL
 0001:0006a044       ?OnCmdMsg@CDocument@@UAEHIHPAXPAUAFX_CMDHANDLERINFO@@@Z 0046b044 f   mfc42:MFC42.DLL
 0001:0006a04a       ??0CDocument@@QAE@XZ       0046b04a f   mfc42:MFC42.DLL
 0001:0006a050       ??1CDocument@@UAE@XZ       0046b050 f   mfc42:MFC42.DLL
 0001:0006a056       ?OnNewDocument@CDocument@@UAEHXZ 0046b056 f   mfc42:MFC42.DLL
 0001:0006a05c       ?OnFilePrintPreview@CView@@IAEXXZ 0046b05c f   mfc42:MFC42.DLL
 0001:0006a062       ?OnFilePrint@CView@@IAEXXZ 0046b062 f   mfc42:MFC42.DLL
 0001:0006a068       ?OnEndPrintPreview@CView@@MAEXPAVCDC@@PAUCPrintInfo@@UtagPOINT@@PAVCPreviewView@@@Z 0046b068 f   mfc42:MFC42.DLL
 0001:0006a06e       ?OnPrint@CView@@MAEXPAVCDC@@PAUCPrintInfo@@@Z 0046b06e f   mfc42:MFC42.DLL
 0001:0006a074       ?OnUpdate@CView@@MAEXPAV1@JPAVCObject@@@Z 0046b074 f   mfc42:MFC42.DLL
 0001:0006a07a       ?OnActivateFrame@CView@@MAEXIPAVCFrameWnd@@@Z 0046b07a f   mfc42:MFC42.DLL
 0001:0006a080       ?OnActivateView@CView@@MAEXHPAV1@0@Z 0046b080 f   mfc42:MFC42.DLL
 0001:0006a086       ?OnPrepareDC@CView@@UAEXPAVCDC@@PAUCPrintInfo@@@Z 0046b086 f   mfc42:MFC42.DLL
 0001:0006a08c       ?OnDragScroll@CView@@UAEKKVCPoint@@@Z 0046b08c f   mfc42:MFC42.DLL
 0001:0006a092       ?OnDropEx@CView@@UAEKPAVCOleDataObject@@KKVCPoint@@@Z 0046b092 f   mfc42:MFC42.DLL
 0001:0006a098       ?OnDrop@CView@@UAEHPAVCOleDataObject@@KVCPoint@@@Z 0046b098 f   mfc42:MFC42.DLL
 0001:0006a09e       ?OnDragLeave@CView@@UAEXXZ 0046b09e f   mfc42:MFC42.DLL
 0001:0006a0a4       ?OnDragOver@CView@@UAEKPAVCOleDataObject@@KVCPoint@@@Z 0046b0a4 f   mfc42:MFC42.DLL
 0001:0006a0aa       ?OnDragEnter@CView@@UAEKPAVCOleDataObject@@KVCPoint@@@Z 0046b0aa f   mfc42:MFC42.DLL
 0001:0006a0b0       ?OnScrollBy@CView@@UAEHVCSize@@H@Z 0046b0b0 f   mfc42:MFC42.DLL
 0001:0006a0b6       ?OnScroll@CView@@UAEHIIH@Z 0046b0b6 f   mfc42:MFC42.DLL
 0001:0006a0bc       ?IsSelected@CView@@UBEHPBVCObject@@@Z 0046b0bc f   mfc42:MFC42.DLL
 0001:0006a0c2       ?PostNcDestroy@CView@@MAEXXZ 0046b0c2 f   mfc42:MFC42.DLL
 0001:0006a0c8       ?GetScrollBarCtrl@CView@@UBEPAVCScrollBar@@H@Z 0046b0c8 f   mfc42:MFC42.DLL
 0001:0006a0ce       ?CalcWindowRect@CView@@UAEXPAUtagRECT@@I@Z 0046b0ce f   mfc42:MFC42.DLL
 0001:0006a0d4       ?OnCmdMsg@CView@@UAEHIHPAXPAUAFX_CMDHANDLERINFO@@@Z 0046b0d4 f   mfc42:MFC42.DLL
 0001:0006a0da       ??0CView@@IAE@XZ           0046b0da f   mfc42:MFC42.DLL
 0001:0006a0e0       ??1CView@@UAE@XZ           0046b0e0 f   mfc42:MFC42.DLL
 0001:0006a0e6       ?PreCreateWindow@CView@@MAEHAAUtagCREATESTRUCTA@@@Z 0046b0e6 f   mfc42:MFC42.DLL
 0001:0006a0ec       ?DoPreparePrinting@CView@@QAEHPAUCPrintInfo@@@Z 0046b0ec f   mfc42:MFC42.DLL
 0001:0006a0f2       ??1CWindowDC@@UAE@XZ       0046b0f2 f   mfc42:MFC42.DLL
 0001:0006a0f8       ??0CWindowDC@@QAE@PAVCWnd@@@Z 0046b0f8 f   mfc42:MFC42.DLL
 0001:0006a0fe       ?OnInitialUpdate@CView@@UAEXXZ 0046b0fe f   mfc42:MFC42.DLL
 0001:0006a104       ?GetProperty@COleDispatchDriver@@QBEXJGPAX@Z 0046b104 f   mfc42:MFC42.DLL
 0001:0006a10a       ?SetProperty@COleDispatchDriver@@QAAXJGZZ 0046b10a f   mfc42:MFC42.DLL
 0001:0006a110       ?CreateControl@CWnd@@QAEHABU_GUID@@PBDKABUtagRECT@@PAV1@IPAVCFile@@HPAG@Z 0046b110 f   mfc42:MFC42.DLL
 0001:0006a116       ??1CWnd@@UAE@XZ            0046b116 f   mfc42:MFC42.DLL
 0001:0006a11c       ?InvokeHelper@CWnd@@QAAXJGGPAXPBEZZ 0046b11c f   mfc42:MFC42.DLL
 0001:0006a122       ??0COleDispatchDriver@@QAE@PAUIDispatch@@H@Z 0046b122 f   mfc42:MFC42.DLL
 0001:0006a128       ?InvokeHelper@COleDispatchDriver@@QAAXJGGPAXPBEZZ 0046b128 f   mfc42:MFC42.DLL
 0001:0006a12e       ?GetRuntimeClass@CBrush@@UBEPAUCRuntimeClass@@XZ 0046b12e f   mfc42:MFC42.DLL
 0001:0006a134       ?GetWindowTextA@CWnd@@QBEXAAVCString@@@Z 0046b134 f   mfc42:MFC42.DLL
 0001:0006a13a       ?TrimLeft@CString@@QAEXXZ  0046b13a f   mfc42:MFC42.DLL
 0001:0006a140       ?FromHandle@CDC@@SGPAV1@PAUHDC__@@@Z 0046b140 f   mfc42:MFC42.DLL
 0001:0006a146       ??0CString@@QAE@DH@Z       0046b146 f   mfc42:MFC42.DLL
 0001:0006a14c       ??YCString@@QAEABV0@D@Z    0046b14c f   mfc42:MFC42.DLL
 0001:0006a152       ?FindOneOf@CString@@QBEHPBD@Z 0046b152 f   mfc42:MFC42.DLL
 0001:0006a158       ?SetAt@CString@@QAEXHD@Z   0046b158 f   mfc42:MFC42.DLL
 0001:0006a15e       ?Insert@CString@@QAEHHD@Z  0046b15e f   mfc42:MFC42.DLL
 0001:0006a164       ?TrimRight@CString@@QAEXD@Z 0046b164 f   mfc42:MFC42.DLL
 0001:0006a16a       ?Replace@CString@@QAEHDD@Z 0046b16a f   mfc42:MFC42.DLL
 0001:0006a170       ??H@YG?AVCString@@ABV0@D@Z 0046b170 f   mfc42:MFC42.DLL
 0001:0006a176       ??4CString@@QAEABV0@D@Z    0046b176 f   mfc42:MFC42.DLL
 0001:0006a17c       ?SetFocus@CWnd@@QAEPAV1@XZ 0046b17c f   mfc42:MFC42.DLL
 0001:0006a182       ?TrimLeft@CString@@QAEXD@Z 0046b182 f   mfc42:MFC42.DLL
 0001:0006a188       ?Delete@CString@@QAEHHH@Z  0046b188 f   mfc42:MFC42.DLL
 0001:0006a18e       ?IsWindowEnabled@CWnd@@QBEHXZ 0046b18e f   mfc42:MFC42.DLL
 0001:0006a194       ?AfxMessageBox@@YGHPBDII@Z 0046b194 f   mfc42:MFC42.DLL
 0001:0006a19a       ?SetDateTime@COleDateTime@@QAEHHHHHHH@Z 0046b19a f   mfc42:MFC42.DLL
 0001:0006a1a0       ?GetYear@COleDateTime@@QBEHXZ 0046b1a0 f   mfc42:MFC42.DLL
 0001:0006a1a6       ?GetMonth@COleDateTime@@QBEHXZ 0046b1a6 f   mfc42:MFC42.DLL
 0001:0006a1ac       ?GetDay@COleDateTime@@QBEHXZ 0046b1ac f   mfc42:MFC42.DLL
 0001:0006a1b2       ?GetTickCount@COleDateTime@@SG?AV1@XZ 0046b1b2 f   mfc42:MFC42.DLL
 0001:0006a1b8       ??NCOleDateTime@@QBEHABV0@@Z 0046b1b8 f   mfc42:MFC42.DLL
 0001:0006a1be       ??PCOleDateTime@@QBEHABV0@@Z 0046b1be f   mfc42:MFC42.DLL
 0001:0006a1c4       ??H@YG?AVCString@@DABV0@@Z 0046b1c4 f   mfc42:MFC42.DLL
 0001:0006a1ca       ?GetHour@COleDateTime@@QBEHXZ 0046b1ca f   mfc42:MFC42.DLL
 0001:0006a1d0       ?GetMinute@COleDateTime@@QBEHXZ 0046b1d0 f   mfc42:MFC42.DLL
 0001:0006a1d6       ?GetSecond@COleDateTime@@QBEHXZ 0046b1d6 f   mfc42:MFC42.DLL
 0001:0006a1dc       ??OCOleDateTime@@QBEHABV0@@Z 0046b1dc f   mfc42:MFC42.DLL
 0001:0006a1e2       ??MCOleDateTime@@QBEHABV0@@Z 0046b1e2 f   mfc42:MFC42.DLL
 0001:0006a1e8       ??1CClientDC@@UAE@XZ       0046b1e8 f   mfc42:MFC42.DLL
 0001:0006a1ee       ?Create@CButton@@QAEHPBDKABUtagRECT@@PAVCWnd@@I@Z 0046b1ee f   mfc42:MFC42.DLL
 0001:0006a1f4       ?SelectObject@CDC@@UAEPAVCFont@@PAV2@@Z 0046b1f4 f   mfc42:MFC42.DLL
 0001:0006a1fa       ?FromHandle@CGdiObject@@SGPAV1@PAX@Z 0046b1fa f   mfc42:MFC42.DLL
 0001:0006a200       ??0CClientDC@@QAE@PAVCWnd@@@Z 0046b200 f   mfc42:MFC42.DLL
 0001:0006a206       ?IsKindOf@CObject@@QBEHPBUCRuntimeClass@@@Z 0046b206 f   mfc42:MFC42.DLL
 0001:0006a20c       ?GetMessageMap@CListCtrl@@MBEPBUAFX_MSGMAP@@XZ 0046b20c f   mfc42:MFC42.DLL
 0001:0006a212       ?DrawItem@CListCtrl@@UAEXPAUtagDRAWITEMSTRUCT@@@Z 0046b212 f   mfc42:MFC42.DLL
 0001:0006a218       ?OnChildNotify@CListCtrl@@MAEHIIJPAJ@Z 0046b218 f   mfc42:MFC42.DLL
 0001:0006a21e       ?GetRuntimeClass@CListCtrl@@UBEPAUCRuntimeClass@@XZ 0046b21e f   mfc42:MFC42.DLL
 0001:0006a224       ??1CListCtrl@@UAE@XZ       0046b224 f   mfc42:MFC42.DLL
 0001:0006a22a       ?Empty@CString@@QAEXXZ     0046b22a f   mfc42:MFC42.DLL
 0001:0006a230       ?FreeDataChain@CPlex@@QAEXXZ 0046b230 f   mfc42:MFC42.DLL
 0001:0006a236       ?OnHScroll@CWnd@@IAEXIIPAVCScrollBar@@@Z 0046b236 f   mfc42:MFC42.DLL
 0001:0006a23c       ?OnVScroll@CWnd@@IAEXIIPAVCScrollBar@@@Z 0046b23c f   mfc42:MFC42.DLL
 0001:0006a242       ??1CStringList@@UAE@XZ     0046b242 f   mfc42:MFC42.DLL
 0001:0006a248       ??0CStringList@@QAE@H@Z    0046b248 f   mfc42:MFC42.DLL
 0001:0006a24e       ?GetItemRect@CListCtrl@@QBEHHPAUtagRECT@@I@Z 0046b24e f   mfc42:MFC42.DLL
 0001:0006a254       ?HitTest@CListCtrl@@QBEHVCPoint@@PAI@Z 0046b254 f   mfc42:MFC42.DLL
 0001:0006a25a       ?Create@CPlex@@SGPAU1@AAPAU1@II@Z 0046b25a f   mfc42:MFC42.DLL
 0001:0006a260       ?GetDlgCtrlID@CWnd@@QBEHXZ 0046b260 f   mfc42:MFC42.DLL
 0001:0006a266       ?GetRuntimeClass@CBitmap@@UBEPAUCRuntimeClass@@XZ 0046b266 f   mfc42:MFC42.DLL
 0001:0006a26c       ??1CDC@@UAE@XZ             0046b26c f   mfc42:MFC42.DLL
 0001:0006a272       ?LineTo@CDC@@QAEHHH@Z      0046b272 f   mfc42:MFC42.DLL
 0001:0006a278       ?MoveTo@CDC@@QAE?AVCPoint@@HH@Z 0046b278 f   mfc42:MFC42.DLL
 0001:0006a27e       ?SelectObject@CDC@@QAEPAVCPen@@PAV2@@Z 0046b27e f   mfc42:MFC42.DLL
 0001:0006a284       ??0CPen@@QAE@HHK@Z         0046b284 f   mfc42:MFC42.DLL
 0001:0006a28a       ?SetBkMode@CDC@@QAEHH@Z    0046b28a f   mfc42:MFC42.DLL
 0001:0006a290       ?DrawIndirect@CImageList@@QAEHPAVCDC@@HUtagPOINT@@UtagSIZE@@1IKKK@Z 0046b290 f   mfc42:MFC42.DLL
 0001:0006a296       ??0CBrush@@QAE@K@Z         0046b296 f   mfc42:MFC42.DLL
 0001:0006a29c       ??0CDC@@QAE@XZ             0046b29c f   mfc42:MFC42.DLL
 0001:0006a2a2       ?Create@CImageList@@QAEHIHHK@Z 0046b2a2 f   mfc42:MFC42.DLL
 0001:0006a2a8       ?OnSysColorChange@CWnd@@IAEXXZ 0046b2a8 f   mfc42:MFC42.DLL
 0001:0006a2ae       ?GetClipBox@CDC@@UBEHPAUtagRECT@@@Z 0046b2ae f   mfc42:MFC42.DLL
 0001:0006a2b4       ?ScaleWindowExt@CDC@@UAE?AVCSize@@HHHH@Z 0046b2b4 f   mfc42:MFC42.DLL
 0001:0006a2ba       ?SetWindowExt@CDC@@UAE?AVCSize@@HH@Z 0046b2ba f   mfc42:MFC42.DLL
 0001:0006a2c0       ?ScaleViewportExt@CDC@@UAE?AVCSize@@HHHH@Z 0046b2c0 f   mfc42:MFC42.DLL
 0001:0006a2c6       ?SetViewportExt@CDC@@UAE?AVCSize@@HH@Z 0046b2c6 f   mfc42:MFC42.DLL
 0001:0006a2cc       ?OffsetViewportOrg@CDC@@UAE?AVCPoint@@HH@Z 0046b2cc f   mfc42:MFC42.DLL
 0001:0006a2d2       ?SetViewportOrg@CDC@@UAE?AVCPoint@@HH@Z 0046b2d2 f   mfc42:MFC42.DLL
 0001:0006a2d8       ?SetMapMode@CDC@@UAEHH@Z   0046b2d8 f   mfc42:MFC42.DLL
 0001:0006a2de       ?SetTextColor@CDC@@UAEKK@Z 0046b2de f   mfc42:MFC42.DLL
 0001:0006a2e4       ?SetBkColor@CDC@@UAEKK@Z   0046b2e4 f   mfc42:MFC42.DLL
 0001:0006a2ea       ?SelectStockObject@CDC@@UAEPAVCGdiObject@@H@Z 0046b2ea f   mfc42:MFC42.DLL
 0001:0006a2f0       ?RestoreDC@CDC@@UAEHH@Z    0046b2f0 f   mfc42:MFC42.DLL
 0001:0006a2f6       ?SaveDC@CDC@@UAEHXZ        0046b2f6 f   mfc42:MFC42.DLL
 0001:0006a2fc       ?ReleaseOutputDC@CDC@@UAEXXZ 0046b2fc f   mfc42:MFC42.DLL
 0001:0006a302       ?ReleaseAttribDC@CDC@@UAEXXZ 0046b302 f   mfc42:MFC42.DLL
 0001:0006a308       ?SetOutputDC@CDC@@UAEXPAUHDC__@@@Z 0046b308 f   mfc42:MFC42.DLL
 0001:0006a30e       ?SetAttribDC@CDC@@UAEXPAUHDC__@@@Z 0046b30e f   mfc42:MFC42.DLL
 0001:0006a314       ?GetRuntimeClass@CDC@@UBEPAUCRuntimeClass@@XZ 0046b314 f   mfc42:MFC42.DLL
 0001:0006a31a       ?ExcludeClipRect@CDC@@QAEHHHHH@Z 0046b31a f   mfc42:MFC42.DLL
 0001:0006a320       ?Attach@CDC@@QAEHPAUHDC__@@@Z 0046b320 f   mfc42:MFC42.DLL
 0001:0006a326       ?GetRuntimeClass@CPen@@UBEPAUCRuntimeClass@@XZ 0046b326 f   mfc42:MFC42.DLL
 0001:0006a32c       ?Create@CComboBox@@QAEHKABUtagRECT@@PAVCWnd@@I@Z 0046b32c f   mfc42:MFC42.DLL
 0001:0006a332       ?AddTail@CStringList@@QAEXPAV1@@Z 0046b332 f   mfc42:MFC42.DLL
 0001:0006a338       ?RemoveAll@CStringList@@QAEXXZ 0046b338 f   mfc42:MFC42.DLL
 0001:0006a33e       ?Create@CEdit@@QAEHKABUtagRECT@@PAVCWnd@@I@Z 0046b33e f   mfc42:MFC42.DLL
 0001:0006a344       ?Create@CFrameWnd@@QAEHPBD0KABUtagRECT@@PAVCWnd@@0KPAUCCreateContext@@@Z 0046b344 f   mfc42:MFC42.DLL
 0001:0006a34a       ?OnClose@CFrameWnd@@IAEXXZ 0046b34a f   mfc42:MFC42.DLL
 0001:0006a350       ?Create@CStatic@@QAEHPBDKABUtagRECT@@PAVCWnd@@I@Z 0046b350 f   mfc42:MFC42.DLL
 0001:0006a356       ?GetRuntimeClass@CWnd@@UBEPAUCRuntimeClass@@XZ 0046b356 f   mfc42:MFC42.DLL
 0001:0006a35c       ?FillSolidRect@CDC@@QAEXPBUtagRECT@@K@Z 0046b35c f   mfc42:MFC42.DLL
 0001:0006a362       ?IntersectClipRect@CDC@@QAEHPBUtagRECT@@@Z 0046b362 f   mfc42:MFC42.DLL
 0001:0006a368       ?SetTextAlign@CDC@@QAEII@Z 0046b368 f   mfc42:MFC42.DLL
 0001:0006a36e       ?InflateRect@CRect@@QAEXHHHH@Z 0046b36e f   mfc42:MFC42.DLL
 0001:0006a374       ?DeflateRect@CRect@@QAEXHHHH@Z 0046b374 f   mfc42:MFC42.DLL
 0001:0006a37a       ??1CPaintDC@@UAE@XZ        0046b37a f   mfc42:MFC42.DLL
 0001:0006a380       ?SetWindowOrg@CDC@@QAE?AVCPoint@@HH@Z 0046b380 f   mfc42:MFC42.DLL
 0001:0006a386       ?SelectGdiObject@CDC@@KGPAVCGdiObject@@PAUHDC__@@PAX@Z 0046b386 f   mfc42:MFC42.DLL
 0001:0006a38c       ??0CPaintDC@@QAE@PAVCWnd@@@Z 0046b38c f   mfc42:MFC42.DLL
 0001:0006a392       ?Detach@CDC@@QAEPAUHDC__@@XZ 0046b392 f   mfc42:MFC42.DLL
 0001:0006a398       ?DoModal@CPrintDialog@@UAEHXZ 0046b398 f   mfc42:MFC42.DLL
 0001:0006a39e       ??0CPrintDialog@@QAE@HKPAVCWnd@@@Z 0046b39e f   mfc42:MFC42.DLL
 0001:0006a3a4       ?Right@CString@@QBE?AV1@H@Z 0046b3a4 f   mfc42:MFC42.DLL
 0001:0006a3aa       ?GetParentFrame@CWnd@@QBEPAVCFrameWnd@@XZ 0046b3aa f   mfc42:MFC42.DLL
 0001:0006a3b0       ?MDIGetActive@CMDIFrameWnd@@QBEPAVCMDIChildWnd@@PAH@Z 0046b3b0 f   mfc42:MFC42.DLL
 0001:0006a3b6       ?CreateEx@CWnd@@QAEHKPBD0KHHHHPAUHWND__@@PAUHMENU__@@PAX@Z 0046b3b6 f   mfc42:MFC42.DLL
 0001:0006a3bc       ?AfxGetAfxWndProc@@YGP6GJPAUHWND__@@IIJ@ZXZ 0046b3bc f   mfc42:MFC42.DLL
 0001:0006a3c2       ?CreatePointFont@CFont@@QAEHHPBDPAVCDC@@@Z 0046b3c2 f   mfc42:MFC42.DLL
 0001:0006a3c8       ?DeleteDC@CDC@@QAEHXZ      0046b3c8 f   mfc42:MFC42.DLL
 0001:0006a3ce       ?SetPaneInfo@CStatusBar@@QAEXHIIH@Z 0046b3ce f   mfc42:MFC42.DLL
 0001:0006a3d4       ?GetPaneInfo@CStatusBar@@QBEXHAAI0AAH@Z 0046b3d4 f   mfc42:MFC42.DLL
 0001:0006a3da       ?SetIndicators@CStatusBar@@QAEHPBIH@Z 0046b3da f   mfc42:MFC42.DLL
 0001:0006a3e0       ?GetItemRect@CStatusBar@@QBEXHPAUtagRECT@@@Z 0046b3e0 f   mfc42:MFC42.DLL
 0001:0006a3e6       ?GetItemState@CTreeCtrl@@QBEIPAU_TREEITEM@@I@Z 0046b3e6 f   mfc42:MFC42.DLL
 0001:0006a3ec       ?Find@CString@@QBEHDH@Z    0046b3ec f   mfc42:MFC42.DLL
 0001:0006a3f2       ?GetProfileBinary@CWinApp@@QAEHPBD0PAPAEPAI@Z 0046b3f2 f   mfc42:MFC42.DLL
 0001:0006a3f8       ?WriteProfileBinary@CWinApp@@QAEHPBD0PAEI@Z 0046b3f8 f   mfc42:MFC42.DLL
 0001:0006a3fe       ?GetHeaderCtrl@CListCtrl@@QAEPAVCHeaderCtrl@@XZ 0046b3fe f   mfc42:MFC42.DLL
 0001:0006a404       ?GetRuntimeClass@CRgn@@UBEPAUCRuntimeClass@@XZ 0046b404 f   mfc42:MFC42.DLL
 0001:0006a40a       ?GetItemRect@CTreeCtrl@@QBEHPAU_TREEITEM@@PAUtagRECT@@H@Z 0046b40a f   mfc42:MFC42.DLL
 0001:0006a410       ?SelectClipRgn@CDC@@QAEHPAVCRgn@@@Z 0046b410 f   mfc42:MFC42.DLL
 0001:0006a416       ?GetRuntimeClass@CScrollBar@@UBEPAUCRuntimeClass@@XZ 0046b416 f   mfc42:MFC42.DLL
 0001:0006a41c       ??1CScrollBar@@UAE@XZ      0046b41c f   mfc42:MFC42.DLL
 0001:0006a422       ?SetScrollInfo@CWnd@@QAEHHPAUtagSCROLLINFO@@H@Z 0046b422 f   mfc42:MFC42.DLL
 0001:0006a428       ?GetScrollInfo@CWnd@@QAEHHPAUtagSCROLLINFO@@I@Z 0046b428 f   mfc42:MFC42.DLL
 0001:0006a42e       ?Create@CScrollBar@@QAEHKABUtagRECT@@PAVCWnd@@I@Z 0046b42e f   mfc42:MFC42.DLL
 0001:0006a434       ?Create@CListBox@@QAEHKABUtagRECT@@PAVCWnd@@I@Z 0046b434 f   mfc42:MFC42.DLL
 0001:0006a43a       ?GetCurrentMessage@CWnd@@KGPBUtagMSG@@XZ 0046b43a f   mfc42:MFC42.DLL
 0001:0006a440       ?OnDestroy@CWnd@@IAEXXZ    0046b440 f   mfc42:MFC42.DLL
 0001:0006a446       ?ItemFromPoint@CListBox@@QBEIVCPoint@@AAH@Z 0046b446 f   mfc42:MFC42.DLL
 0001:0006a44c       ?OnChildNotify@CHeaderCtrl@@MAEHIIJPAJ@Z 0046b44c f   mfc42:MFC42.DLL
 0001:0006a452       ??1CHeaderCtrl@@UAE@XZ     0046b452 f   mfc42:MFC42.DLL
 0001:0006a458       ?Draw3dRect@CDC@@QAEXPBUtagRECT@@KK@Z 0046b458 f   mfc42:MFC42.DLL
 0001:0006a45e       ?FromHandle@CImageList@@SGPAV1@PAU_IMAGELIST@@@Z 0046b45e f   mfc42:MFC42.DLL
 0001:0006a464       ?SubclassWindow@CWnd@@QAEHPAUHWND__@@@Z 0046b464 f   mfc42:MFC42.DLL
 0001:0006a46a       ?CreateEx@CWnd@@QAEHKPBD0KABUtagRECT@@PAV1@IPAX@Z 0046b46a f   mfc42:MFC42.DLL
 0001:0006a470       ?AfxRegisterWndClass@@YGPBDIPAUHICON__@@PAUHBRUSH__@@0@Z 0046b470 f   mfc42:MFC42.DLL
 0001:0006a476       ?ClientToScreen@CWnd@@QBEXPAUtagRECT@@@Z 0046b476 f   mfc42:MFC42.DLL
 0001:0006a47c       ?GetSubItemRect@CListCtrl@@QAEHHHHAAVCRect@@@Z 0046b47c f   mfc42:MFC42.DLL
 0001:0006a482       ?SetItemState@CListCtrl@@QAEHHII@Z 0046b482 f   mfc42:MFC42.DLL
 0001:0006a488       ?_mbstowcsz@@YAHPAGPBDI@Z  0046b488 f   mfc42:MFC42.DLL
 0001:0006a48e       ??0CDialog@@QAE@XZ         0046b48e f   mfc42:MFC42.DLL
 0001:0006a494       ??0CDialog@@QAE@PBDPAVCWnd@@@Z 0046b494 f   mfc42:MFC42.DLL
 0001:0006a49a       ?GetExStyle@CWnd@@QBEKXZ   0046b49a f   mfc42:MFC42.DLL
 0001:0006a4a0       ?OnEndPrinting@CView@@MAEXPAVCDC@@PAUCPrintInfo@@@Z 0046b4a0 f   mfc42:MFC42.DLL
 0001:0006a4a6       ?OnBeginPrinting@CView@@MAEXPAVCDC@@PAUCPrintInfo@@@Z 0046b4a6 f   mfc42:MFC42.DLL
 0001:0006a4ac       ?OnPreparePrinting@CView@@MAEHPAUCPrintInfo@@@Z 0046b4ac f   mfc42:MFC42.DLL
 0001:0006a4b2       ?OnDraw@CFormView@@MAEXPAVCDC@@@Z 0046b4b2 f   mfc42:MFC42.DLL
 0001:0006a4b8       ?OnActivateFrame@CFormView@@MAEXIPAVCFrameWnd@@@Z 0046b4b8 f   mfc42:MFC42.DLL
 0001:0006a4be       ?OnActivateView@CFormView@@MAEXHPAVCView@@0@Z 0046b4be f   mfc42:MFC42.DLL
 0001:0006a4c4       ?OnPrepareDC@CScrollView@@UAEXPAVCDC@@PAUCPrintInfo@@@Z 0046b4c4 f   mfc42:MFC42.DLL
 0001:0006a4ca       ?OnScrollBy@CScrollView@@UAEHVCSize@@H@Z 0046b4ca f   mfc42:MFC42.DLL
 0001:0006a4d0       ?OnScroll@CScrollView@@UAEHIIH@Z 0046b4d0 f   mfc42:MFC42.DLL
 0001:0006a4d6       ?SetOccDialogInfo@CFormView@@MAEHPAU_AFX_OCC_DIALOG_INFO@@@Z 0046b4d6 f   mfc42:MFC42.DLL
 0001:0006a4dc       ?PreTranslateMessage@CFormView@@MAEHPAUtagMSG@@@Z 0046b4dc f   mfc42:MFC42.DLL
 0001:0006a4e2       ?CalcWindowRect@CScrollView@@UAEXPAUtagRECT@@I@Z 0046b4e2 f   mfc42:MFC42.DLL
 0001:0006a4e8       ?Create@CFormView@@MAEHPBD0KABUtagRECT@@PAVCWnd@@IPAUCCreateContext@@@Z 0046b4e8 f   mfc42:MFC42.DLL
 0001:0006a4ee       ??0CFormView@@IAE@I@Z      0046b4ee f   mfc42:MFC42.DLL
 0001:0006a4f4       ??0CFormView@@IAE@PBD@Z    0046b4f4 f   mfc42:MFC42.DLL
 0001:0006a4fa       ??1CScrollView@@UAE@XZ     0046b4fa f   mfc42:MFC42.DLL
 0001:0006a500       ?OnSize@CScrollView@@QAEXIHH@Z 0046b500 f   mfc42:MFC42.DLL
 0001:0006a506       ?OnInitialUpdate@CFormView@@UAEXXZ 0046b506 f   mfc42:MFC42.DLL
 0001:0006a50c       ?Detach@CGdiObject@@QAEPAXXZ 0046b50c f   mfc42:MFC42.DLL
 0001:0006a512       ?GetBufferSetLength@CString@@QAEPADH@Z 0046b512 f   mfc42:MFC42.DLL
 0001:0006a518       ?GetScrollPos@CWnd@@QBEHH@Z 0046b518 f   mfc42:MFC42.DLL
 0001:0006a51e       ?GetScrollLimit@CWnd@@QAEHH@Z 0046b51e f   mfc42:MFC42.DLL
 0001:0006a524       ?SelectClipRgn@CDC@@QAEHPAVCRgn@@H@Z 0046b524 f   mfc42:MFC42.DLL
 0001:0006a52a       ?OnWizardFinish@CPropertyPage@@UAEHXZ 0046b52a f   mfc42:MFC42.DLL
 0001:0006a530       ?OnWizardNext@CPropertyPage@@UAEJXZ 0046b530 f   mfc42:MFC42.DLL
 0001:0006a536       ?OnWizardBack@CPropertyPage@@UAEJXZ 0046b536 f   mfc42:MFC42.DLL
 0001:0006a53c       ?OnQueryCancel@CPropertyPage@@UAEHXZ 0046b53c f   mfc42:MFC42.DLL
 0001:0006a542       ?OnKillActive@CPropertyPage@@UAEHXZ 0046b542 f   mfc42:MFC42.DLL
 0001:0006a548       ?OnSetActive@CPropertyPage@@UAEHXZ 0046b548 f   mfc42:MFC42.DLL
 0001:0006a54e       ?OnReset@CPropertyPage@@UAEXXZ 0046b54e f   mfc42:MFC42.DLL
 0001:0006a554       ?OnApply@CPropertyPage@@UAEHXZ 0046b554 f   mfc42:MFC42.DLL
 0001:0006a55a       ?OnCancel@CPropertyPage@@UAEXXZ 0046b55a f   mfc42:MFC42.DLL
 0001:0006a560       ?OnOK@CPropertyPage@@UAEXXZ 0046b560 f   mfc42:MFC42.DLL
 0001:0006a566       ?PreTranslateMessage@CPropertyPage@@MAEHPAUtagMSG@@@Z 0046b566 f   mfc42:MFC42.DLL
 0001:0006a56c       ?OnNotify@CPropertyPage@@MAEHIJPAJ@Z 0046b56c f   mfc42:MFC42.DLL
 0001:0006a572       ??0CPropertyPage@@QAE@XZ   0046b572 f   mfc42:MFC42.DLL
 0001:0006a578       ??0CPropertyPage@@QAE@II@Z 0046b578 f   mfc42:MFC42.DLL
 0001:0006a57e       ??0CPropertyPage@@QAE@PBDI@Z 0046b57e f   mfc42:MFC42.DLL
 0001:0006a584       ??1CPropertyPage@@UAE@XZ   0046b584 f   mfc42:MFC42.DLL
 0001:0006a58a       ??0CPropertyPageEx@@QAE@XZ 0046b58a f   mfc42:MFC42.DLL
 0001:0006a590       ??0CPropertyPageEx@@QAE@IIII@Z 0046b590 f   mfc42:MFC42.DLL
 0001:0006a596       ??0CPropertyPageEx@@QAE@PBDIII@Z 0046b596 f   mfc42:MFC42.DLL
 0001:0006a59c       ?BuildPropPageArray@CPropertySheet@@UAEXXZ 0046b59c f   mfc42:MFC42.DLL
 0001:0006a5a2       ?DoModal@CPropertySheet@@UAEHXZ 0046b5a2 f   mfc42:MFC42.DLL
 0001:0006a5a8       ?PreTranslateMessage@CPropertySheet@@UAEHPAUtagMSG@@@Z 0046b5a8 f   mfc42:MFC42.DLL
 0001:0006a5ae       ?OnCommand@CPropertySheet@@UAEHIJ@Z 0046b5ae f   mfc42:MFC42.DLL
 0001:0006a5b4       ?ContinueModal@CPropertySheet@@UAEHXZ 0046b5b4 f   mfc42:MFC42.DLL
 0001:0006a5ba       ?OnCmdMsg@CPropertySheet@@UAEHIHPAXPAUAFX_CMDHANDLERINFO@@@Z 0046b5ba f   mfc42:MFC42.DLL
 0001:0006a5c0       ??1CPropertySheet@@UAE@XZ  0046b5c0 f   mfc42:MFC42.DLL
 0001:0006a5c6       ??0CPropertySheet@@QAE@XZ  0046b5c6 f   mfc42:MFC42.DLL
 0001:0006a5cc       ??0CPropertySheet@@QAE@IPAVCWnd@@I@Z 0046b5cc f   mfc42:MFC42.DLL
 0001:0006a5d2       ??0CPropertySheet@@QAE@PBDPAVCWnd@@I@Z 0046b5d2 f   mfc42:MFC42.DLL
 0001:0006a5d8       ?OnInitDialog@CPropertySheet@@UAEHXZ 0046b5d8 f   mfc42:MFC42.DLL
 0001:0006a5de       ?GetActivePage@CPropertySheet@@QBEPAVCPropertyPage@@XZ 0046b5de f   mfc42:MFC42.DLL
 0001:0006a5e4       ?SetActivePage@CPropertySheet@@QAEHH@Z 0046b5e4 f   mfc42:MFC42.DLL
 0001:0006a5ea       ?BuildPropPageArray@CPropertySheetEx@@UAEXXZ 0046b5ea f   mfc42:MFC42.DLL
 0001:0006a5f0       ??1CPropertySheetEx@@UAE@XZ 0046b5f0 f   mfc42:MFC42.DLL
 0001:0006a5f6       ??0CPropertySheetEx@@QAE@XZ 0046b5f6 f   mfc42:MFC42.DLL
 0001:0006a5fc       ??0CPropertySheetEx@@QAE@IPAVCWnd@@IPAUHBITMAP__@@PAUHPALETTE__@@1@Z 0046b5fc f   mfc42:MFC42.DLL
 0001:0006a602       ??0CPropertySheetEx@@QAE@PBDPAVCWnd@@IPAUHBITMAP__@@PAUHPALETTE__@@2@Z 0046b602 f   mfc42:MFC42.DLL
 0001:0006a608       ?WriteProfileStringA@CWinApp@@QAEHPBD00@Z 0046b608 f   mfc42:MFC42.DLL
 0001:0006a60e       ?GetWindowPlacement@CWnd@@QBEHPAUtagWINDOWPLACEMENT@@@Z 0046b60e f   mfc42:MFC42.DLL
 0001:0006a614       ?SetWindowPlacement@CWnd@@QAEHPBUtagWINDOWPLACEMENT@@@Z 0046b614 f   mfc42:MFC42.DLL
 0001:0006a61a       ?GetProfileStringA@CWinApp@@QAE?AVCString@@PBD00@Z 0046b61a f   mfc42:MFC42.DLL
 0001:0006a620       ??0CPtrArray@@QAE@XZ       0046b620 f   mfc42:MFC42.DLL
 0001:0006a626       ??1CPtrArray@@UAE@XZ       0046b626 f   mfc42:MFC42.DLL
 0001:0006a62c       ?SetSize@CPtrArray@@QAEXHH@Z 0046b62c f   mfc42:MFC42.DLL
 0001:0006a632       ?SetAtGrow@CPtrArray@@QAEXHPAX@Z 0046b632 f   mfc42:MFC42.DLL
 0001:0006a638       ?ReportError@CException@@UAEHII@Z 0046b638 f   mfc42:MFC42.DLL
 0001:0006a63e       ?GetErrorMessage@CFileException@@UAEHPADIPAI@Z 0046b63e f   mfc42:MFC42.DLL
 0001:0006a644       ?GetRuntimeClass@CFileException@@UBEPAUCRuntimeClass@@XZ 0046b644 f   mfc42:MFC42.DLL
 0001:0006a64a       ?AfxTryCleanup@@YGXXZ      0046b64a f   mfc42:MFC42.DLL
 0001:0006a650       ??0AFX_EXCEPTION_LINK@@QAE@XZ 0046b650 f   mfc42:MFC42.DLL
 0001:0006a656       ??0CFile@@QAE@XZ           0046b656 f   mfc42:MFC42.DLL
 0001:0006a65c       ??0CException@@QAE@XZ      0046b65c f   mfc42:MFC42.DLL
 0001:0006a662       ?Fail@CDataExchange@@QAEXXZ 0046b662 f   mfc42:MFC42.DLL
 0001:0006a668       ?GetWindowTextA@CWnd@@QBEHPADH@Z 0046b668 f   mfc42:MFC42.DLL
 0001:0006a66e       ?PrepareEditCtrl@CDataExchange@@QAEPAUHWND__@@H@Z 0046b66e f   mfc42:MFC42.DLL
 0001:0006a674       ___CxxFrameHandler         0046b674 f   msvcrt:MSVCRT.dll
 0001:0006a680       _atoi                      0046b680 f   msvcrt:MSVCRT.dll
 0001:0006a686       _atol                      0046b686 f   msvcrt:MSVCRT.dll
 0001:0006a68c       _sprintf                   0046b68c f   msvcrt:MSVCRT.dll
 0001:0006a6a0       __chkstk                   0046b6a0 f   msvcrt:chkstk.obj
 0001:0006a6a0       __alloca_probe             0046b6a0 f   msvcrt:chkstk.obj
 0001:0006a6d0       __mbscmp                   0046b6d0 f   msvcrt:MSVCRT.dll
 0001:0006a6d6       _atof                      0046b6d6 f   msvcrt:MSVCRT.dll
 0001:0006a6dc       __ftol                     0046b6dc f   msvcrt:MSVCRT.dll
 0001:0006a6e2       _exit                      0046b6e2 f   msvcrt:MSVCRT.dll
 0001:0006a6e8       _rand                      0046b6e8 f   msvcrt:MSVCRT.dll
 0001:0006a6ee       __CxxThrowException@8      0046b6ee f   msvcrt:MSVCRT.dll
 0001:0006a6f4       _fclose                    0046b6f4 f   msvcrt:MSVCRT.dll
 0001:0006a6fa       _fopen                     0046b6fa f   msvcrt:MSVCRT.dll
 0001:0006a700       ??0exception@@QAE@ABV0@@Z  0046b700 f   msvcrt:MSVCRT.dll
 0001:0006a706       ??0type_info@@AAE@ABV0@@Z  0046b706 f   msvcrt:ti_inst.obj
 0001:0006a711       ??_Gtype_info@@UAEPAXI@Z   0046b711 f i msvcrt:ti_inst.obj
 0001:0006a711       ??_Etype_info@@UAEPAXI@Z   0046b711 f i msvcrt:ti_inst.obj
 0001:0006a72d       ??4type_info@@AAEAAV0@ABV0@@Z 0046b72d f   msvcrt:ti_inst.obj
 0001:0006a732       ??1exception@@UAE@XZ       0046b732 f   msvcrt:MSVCRT.dll
 0001:0006a738       ??0exception@@QAE@ABQBD@Z  0046b738 f   msvcrt:MSVCRT.dll
 0001:0006a73e       _fprintf                   0046b73e f   msvcrt:MSVCRT.dll
 0001:0006a744       __vsnprintf                0046b744 f   msvcrt:MSVCRT.dll
 0001:0006a74a       __onexit                   0046b74a f   msvcrt:atonexit.obj
 0001:0006a776       _atexit                    0046b776 f   msvcrt:atonexit.obj
 0001:0006a788       _srand                     0046b788 f   msvcrt:MSVCRT.dll
 0001:0006a78e       _time                      0046b78e f   msvcrt:MSVCRT.dll
 0001:0006a794       _fgets                     0046b794 f   msvcrt:MSVCRT.dll
 0001:0006a79a       __purecall                 0046b79a f   msvcrt:MSVCRT.dll
 0001:0006a7a0       __ismbcprint               0046b7a0 f   msvcrt:MSVCRT.dll
 0001:0006a7a6       __ismbcdigit               0046b7a6 f   msvcrt:MSVCRT.dll
 0001:0006a7ac       _strtod                    0046b7ac f   msvcrt:MSVCRT.dll
 0001:0006a7b2       __mbctoupper               0046b7b2 f   msvcrt:MSVCRT.dll
 0001:0006a7b8       __mbsicmp                  0046b7b8 f   msvcrt:MSVCRT.dll
 0001:0006a7be       _toupper                   0046b7be f   msvcrt:MSVCRT.dll
 0001:0006a7c4       __except_handler3          0046b7c4 f   msvcrt:MSVCRT.dll
 0001:0006a7ca       __strdup                   0046b7ca f   msvcrt:MSVCRT.dll
 0001:0006a7d0       _strncpy                   0046b7d0 f   msvcrt:MSVCRT.dll
 0001:0006a7d6       ??_L@YGXPAXIHP6EX0@Z1@Z    0046b7d6 f   msvcrt:ehvecctr.obj
 0001:0006a858       ??_M@YGXPAXIHP6EX0@Z@Z     0046b858 f   msvcrt:ehvecdtr.obj
 0001:0006a8d8       ?__ArrayUnwind@@YGXPAXIHP6EX0@Z@Z 0046b8d8 f   msvcrt:ehvecdtr.obj
 0001:0006a94c       _memmove                   0046b94c f   msvcrt:MSVCRT.dll
 0001:0006a952       _sscanf                    0046b952 f   msvcrt:MSVCRT.dll
 0001:0006a958       _malloc                    0046b958 f   msvcrt:MSVCRT.dll
 0001:0006a95e       _free                      0046b95e f   msvcrt:MSVCRT.dll
 0001:0006a964       _mktime                    0046b964 f   msvcrt:MSVCRT.dll
 0001:0006a96a       _localtime                 0046b96a f   msvcrt:MSVCRT.dll
 0001:0006a970       _isdigit                   0046b970 f   msvcrt:MSVCRT.dll
 0001:0006a976       _strchr                    0046b976 f   msvcrt:MSVCRT.dll
 0001:0006a97c       _isspace                   0046b97c f   msvcrt:MSVCRT.dll
 0001:0006a982       __mbschr                   0046b982 f   msvcrt:MSVCRT.dll
 0001:0006a988       _tolower                   0046b988 f   msvcrt:MSVCRT.dll
 0001:0006a98e       __ismbcspace               0046b98e f   msvcrt:MSVCRT.dll
 0001:0006a994       __mbspbrk                  0046b994 f   msvcrt:MSVCRT.dll
 0001:0006a99a       __mbsnbicmp                0046b99a f   msvcrt:MSVCRT.dll
 0001:0006a9a0       _WinMainCRTStartup         0046b9a0 f   msvcrt:crtexew.obj
 0001:0006aafe       ??1type_info@@UAE@XZ       0046bafe f   msvcrt:MSVCRT.dll
 0001:0006ab04       ___dllonexit               0046bb04 f   msvcrt:MSVCRT.dll
 0001:0006ab0a       ?terminate@@YAXXZ          0046bb0a f   msvcrt:MSVCRT.dll
 0001:0006ab10       __exit                     0046bb10 f   msvcrt:MSVCRT.dll
 0001:0006ab16       __XcptFilter               0046bb16 f   msvcrt:MSVCRT.dll
 0001:0006ab1c       ___getmainargs             0046bb1c f   msvcrt:MSVCRT.dll
 0001:0006ab22       __initterm                 0046bb22 f   msvcrt:MSVCRT.dll
 0001:0006ab28       __setdefaultprecision      0046bb28 f   msvcrt:fp8.obj
 0001:0006ab3a       ___setusermatherr          0046bb3a f   msvcrt:MSVCRT.dll
 0001:0006ab40       __matherr                  0046bb40 f   msvcrt:merr.obj
 0001:0006ab43       __setargv                  0046bb43 f   msvcrt:dllargv.obj
 0001:0006ab44       ___p__commode              0046bb44 f   msvcrt:MSVCRT.dll
 0001:0006ab4a       ___p__fmode                0046bb4a f   msvcrt:MSVCRT.dll
 0001:0006ab50       ___set_app_type            0046bb50 f   msvcrt:MSVCRT.dll
 0001:0006ab56       __controlfp                0046bb56 f   msvcrt:MSVCRT.dll
 0001:0006ab5c       _MultiByteToWideChar@24    0046bb5c f   kernel32:KERNEL32.dll
 0001:0006ab62       _lstrlenA@4                0046bb62 f   kernel32:KERNEL32.dll
 0001:0006ab68       _lstrcpyA@8                0046bb68 f   kernel32:KERNEL32.dll
 0001:0006ab6e       _GetProcAddress@8          0046bb6e f   kernel32:KERNEL32.dll
 0001:0006ab74       _LoadLibraryA@4            0046bb74 f   kernel32:KERNEL32.dll
 0001:0006ab7a       _CopyFileA@12              0046bb7a f   kernel32:KERNEL32.dll
 0001:0006ab80       _WinExec@8                 0046bb80 f   kernel32:KERNEL32.dll
 0001:0006ab86       _Sleep@4                   0046bb86 f   kernel32:KERNEL32.dll
 0001:0006ab8c       _GetCurrentDirectoryA@8    0046bb8c f   kernel32:KERNEL32.dll
 0001:0006ab92       _CreateDirectoryA@8        0046bb92 f   kernel32:KERNEL32.dll
 0001:0006ab98       _GetTempPathA@8            0046bb98 f   kernel32:KERNEL32.dll
 0001:0006ab9e       _CreateMutexA@12           0046bb9e f   kernel32:KERNEL32.dll
 0001:0006aba4       _GetModuleFileNameA@12     0046bba4 f   kernel32:KERNEL32.dll
 0001:0006abaa       _GetLocaleInfoA@16         0046bbaa f   kernel32:KERNEL32.dll
 0001:0006abb0       _GlobalUnlock@4            0046bbb0 f   kernel32:KERNEL32.dll
 0001:0006abb6       _GlobalLock@4              0046bbb6 f   kernel32:KERNEL32.dll
 0001:0006abbc       _GetCurrentThreadId@0      0046bbbc f   kernel32:KERNEL32.dll
 0001:0006abc2       _GetModuleHandleA@4        0046bbc2 f   kernel32:KERNEL32.dll
 0001:0006abc8       _LeaveCriticalSection@4    0046bbc8 f   kernel32:KERNEL32.dll
 0001:0006abce       _EnterCriticalSection@4    0046bbce f   kernel32:KERNEL32.dll
 0001:0006abd4       _InitializeCriticalSection@4 0046bbd4 f   kernel32:KERNEL32.dll
 0001:0006abda       _DeleteCriticalSection@4   0046bbda f   kernel32:KERNEL32.dll
 0001:0006abe0       _GetTickCount@0            0046bbe0 f   kernel32:KERNEL32.dll
 0001:0006abe6       _InterlockedDecrement@4    0046bbe6 f   kernel32:KERNEL32.dll
 0001:0006abec       _GetVersionExA@4           0046bbec f   kernel32:KERNEL32.dll
 0001:0006abf2       _FreeLibrary@4             0046bbf2 f   kernel32:KERNEL32.dll
 0001:0006abf8       _lstrcpynA@12              0046bbf8 f   kernel32:KERNEL32.dll
 0001:0006abfe       _GetCommandLineA@0         0046bbfe f   kernel32:KERNEL32.dll
 0001:0006ac04       _CloseHandle@4             0046bc04 f   kernel32:KERNEL32.dll
 0001:0006ac0a       _ReleaseMutex@4            0046bc0a f   kernel32:KERNEL32.dll
 0001:0006ac10       _WaitForSingleObject@8     0046bc10 f   kernel32:KERNEL32.dll
 0001:0006ac16       _GetLastError@0            0046bc16 f   kernel32:KERNEL32.dll
 0001:0006ac1c       _CreateProcessA@40         0046bc1c f   kernel32:KERNEL32.dll
 0001:0006ac22       _lstrcatA@8                0046bc22 f   kernel32:KERNEL32.dll
 0001:0006ac28       _GetStartupInfoA@4         0046bc28 f   kernel32:KERNEL32.dll
 0001:0006ac2e       _EnableWindow@8            0046bc2e f   user32:USER32.dll
 0001:0006ac34       _SendMessageA@16           0046bc34 f   user32:USER32.dll
 0001:0006ac3a       _GetDesktopWindow@0        0046bc3a f   user32:USER32.dll
 0001:0006ac40       _GetClientRect@8           0046bc40 f   user32:USER32.dll
 0001:0006ac46       _GetSubMenu@8              0046bc46 f   user32:USER32.dll
 0001:0006ac4c       _LoadMenuA@8               0046bc4c f   user32:USER32.dll
 0001:0006ac52       _ScreenToClient@8          0046bc52 f   user32:USER32.dll
 0001:0006ac58       _GetCursorPos@4            0046bc58 f   user32:USER32.dll
 0001:0006ac5e       _MessageBeep@4             0046bc5e f   user32:USER32.dll
 0001:0006ac64       _SetTimer@16               0046bc64 f   user32:USER32.dll
 0001:0006ac6a       _KillTimer@8               0046bc6a f   user32:USER32.dll
 0001:0006ac70       _GetDlgItem@8              0046bc70 f   user32:USER32.dll
 0001:0006ac76       _GetParent@4               0046bc76 f   user32:USER32.dll
 0001:0006ac7c       _IsWindowVisible@4         0046bc7c f   user32:USER32.dll
 0001:0006ac82       _OffsetRect@12             0046bc82 f   user32:USER32.dll
 0001:0006ac88       _GetWindowRect@8           0046bc88 f   user32:USER32.dll
 0001:0006ac8e       _ClientToScreen@8          0046bc8e f   user32:USER32.dll
 0001:0006ac94       _IsWindow@4                0046bc94 f   user32:USER32.dll
 0001:0006ac9a       _EnableMenuItem@12         0046bc9a f   user32:USER32.dll
 0001:0006aca0       _SetCursor@4               0046bca0 f   user32:USER32.dll
 0001:0006aca6       _LoadCursorA@8             0046bca6 f   user32:USER32.dll
 0001:0006acac       _MessageBoxA@16            0046bcac f   user32:USER32.dll
 0001:0006acb2       _PostMessageA@16           0046bcb2 f   user32:USER32.dll
 0001:0006acb8       _UpdateWindow@4            0046bcb8 f   user32:USER32.dll
 0001:0006acbe       _GetSysColor@4             0046bcbe f   user32:USER32.dll
 0001:0006acc4       _InvalidateRect@12         0046bcc4 f   user32:USER32.dll
 0001:0006acca       _GetDC@4                   0046bcca f   user32:USER32.dll
 0001:0006acd0       _keybd_event@16            0046bcd0 f   user32:USER32.dll
 0001:0006acd6       _GetDlgCtrlID@4            0046bcd6 f   user32:USER32.dll
 0001:0006acdc       _GetWindow@8               0046bcdc f   user32:USER32.dll
 0001:0006ace2       _GetWindowLongA@8          0046bce2 f   user32:USER32.dll
 0001:0006ace8       _EqualRect@8               0046bce8 f   user32:USER32.dll
 0001:0006acee       _IntersectRect@12          0046bcee f   user32:USER32.dll
 0001:0006acf4       _RedrawWindow@16           0046bcf4 f   user32:USER32.dll
 0001:0006acfa       _GetFocus@0                0046bcfa f   user32:USER32.dll
 0001:0006ad00       _GetKeyState@4             0046bd00 f   user32:USER32.dll
 0001:0006ad06       _PtInRect@12               0046bd06 f   user32:USER32.dll
 0001:0006ad0c       _CreatePopupMenu@0         0046bd0c f   user32:USER32.dll
 0001:0006ad12       _DrawEdge@16               0046bd12 f   user32:USER32.dll
 0001:0006ad18       _DrawStateA@40             0046bd18 f   user32:USER32.dll
 0001:0006ad1e       _DrawFocusRect@8           0046bd1e f   user32:USER32.dll
 0001:0006ad24       _FrameRect@12              0046bd24 f   user32:USER32.dll
 0001:0006ad2a       _DrawFrameControl@16       0046bd2a f   user32:USER32.dll
 0001:0006ad30       _InflateRect@12            0046bd30 f   user32:USER32.dll
 0001:0006ad36       _FillRect@12               0046bd36 f   user32:USER32.dll
 0001:0006ad3c       _CopyRect@8                0046bd3c f   user32:USER32.dll
 0001:0006ad42       _ReleaseCapture@0          0046bd42 f   user32:USER32.dll
 0001:0006ad48       _WindowFromPoint@8         0046bd48 f   user32:USER32.dll
 0001:0006ad4e       _CopyImage@20              0046bd4e f   user32:USER32.dll
 0001:0006ad54       _LoadBitmapA@8             0046bd54 f   user32:USER32.dll
 0001:0006ad5a       _AppendMenuA@16            0046bd5a f   user32:USER32.dll
 0001:0006ad60       _RemoveMenu@12             0046bd60 f   user32:USER32.dll
 0001:0006ad66       _CheckMenuItem@12          0046bd66 f   user32:USER32.dll
 0001:0006ad6c       _ReleaseDC@8               0046bd6c f   user32:USER32.dll
 0001:0006ad72       _IsRectEmpty@4             0046bd72 f   user32:USER32.dll
 0001:0006ad78       _DispatchMessageA@4        0046bd78 f   user32:USER32.dll
 0001:0006ad7e       _GetMessageA@16            0046bd7e f   user32:USER32.dll
 0001:0006ad84       _SetCapture@4              0046bd84 f   user32:USER32.dll
 0001:0006ad8a       _GetCapture@0              0046bd8a f   user32:USER32.dll
 0001:0006ad90       _TabbedTextOutA@32         0046bd90 f   user32:USER32.dll
 0001:0006ad96       _DrawTextA@20              0046bd96 f   user32:USER32.dll
 0001:0006ad9c       _GrayStringA@36            0046bd9c f   user32:USER32.dll
 0001:0006ada2       _TranslateMessage@4        0046bda2 f   user32:USER32.dll
 0001:0006ada8       _CloseClipboard@0          0046bda8 f   user32:USER32.dll
 0001:0006adae       _GetClipboardData@4        0046bdae f   user32:USER32.dll
 0001:0006adb4       _OpenClipboard@4           0046bdb4 f   user32:USER32.dll
 0001:0006adba       _SetForegroundWindow@4     0046bdba f   user32:USER32.dll
 0001:0006adc0       _SetRectEmpty@4            0046bdc0 f   user32:USER32.dll
 0001:0006adc6       _GetSystemMetrics@4        0046bdc6 f   user32:USER32.dll
 0001:0006adcc       _GetMenuItemInfoA@16       0046bdcc f   user32:USER32.dll
 0001:0006add2       _SetRect@20                0046bdd2 f   user32:USER32.dll
 0001:0006add8       _DestroyIcon@4             0046bdd8 f   user32:USER32.dll
 0001:0006adde       _SystemParametersInfoA@16  0046bdde f   user32:USER32.dll
 0001:0006ade4       _RemovePropA@8             0046bde4 f   user32:USER32.dll
 0001:0006adea       _SetPropA@12               0046bdea f   user32:USER32.dll
 0001:0006adf0       _GetPropA@8                0046bdf0 f   user32:USER32.dll
 0001:0006adf6       _GetMenu@4                 0046bdf6 f   user32:USER32.dll
 0001:0006adfc       _GetClassNameA@12          0046bdfc f   user32:USER32.dll
 0001:0006ae02       _SetMenuItemInfoA@16       0046be02 f   user32:USER32.dll
 0001:0006ae08       _GetSystemMenu@8           0046be08 f   user32:USER32.dll
 0001:0006ae0e       _GetMenuItemCount@4        0046be0e f   user32:USER32.dll
 0001:0006ae14       _IsMenu@4                  0046be14 f   user32:USER32.dll
 0001:0006ae1a       _GetMenuItemRect@16        0046be1a f   user32:USER32.dll
 0001:0006ae20       _SetWindowsHookExA@16      0046be20 f   user32:USER32.dll
 0001:0006ae26       _UnhookWindowsHookEx@4     0046be26 f   user32:USER32.dll
 0001:0006ae2c       _SetWindowLongA@12         0046be2c f   user32:USER32.dll
 0001:0006ae32       _CallNextHookEx@16         0046be32 f   user32:USER32.dll
 0001:0006ae38       _GetForegroundWindow@0     0046be38 f   user32:USER32.dll
 0001:0006ae3e       _CallWindowProcA@20        0046be3e f   user32:USER32.dll
 0001:0006ae44       _RegisterClassExA@4        0046be44 f   user32:USER32.dll
 0001:0006ae4a       _GetSysColorBrush@4        0046be4a f   user32:USER32.dll
 0001:0006ae50       _SetWindowRgn@12           0046be50 f   user32:USER32.dll
 0001:0006ae56       _LoadImageA@24             0046be56 f   user32:USER32.dll
 0001:0006ae5c       _TrackMouseEvent@4         0046be5c f   user32:USER32.dll
 0001:0006ae62       _SetWindowPos@28           0046be62 f   user32:USER32.dll
 0001:0006ae68       _RegisterWindowMessageA@4  0046be68 f   user32:USER32.dll
 0001:0006ae6e       _SetScrollPos@16           0046be6e f   user32:USER32.dll
 0001:0006ae74       _BringWindowToTop@4        0046be74 f   user32:USER32.dll
 0001:0006ae7a       _AdjustWindowRectEx@16     0046be7a f   user32:USER32.dll
 0001:0006ae80       _IsZoomed@4                0046be80 f   user32:USER32.dll
 0001:0006ae86       _DeferWindowPos@32         0046be86 f   user32:USER32.dll
 0001:0006ae8c       _EndDeferWindowPos@4       0046be8c f   user32:USER32.dll
 0001:0006ae92       _BeginDeferWindowPos@4     0046be92 f   user32:USER32.dll
 0001:0006ae98       _GetWindowRgn@8            0046be98 f   user32:USER32.dll
 0001:0006ae9e       _CreateFontIndirectA@4     0046be9e f   gdi32:GDI32.dll
 0001:0006aea4       _Rectangle@20              0046bea4 f   gdi32:GDI32.dll
 0001:0006aeaa       _CreateSolidBrush@4        0046beaa f   gdi32:GDI32.dll
 0001:0006aeb0       _GetObjectA@12             0046beb0 f   gdi32:GDI32.dll
 0001:0006aeb6       _GetBkColor@4              0046beb6 f   gdi32:GDI32.dll
 0001:0006aebc       _GetTextColor@4            0046bebc f   gdi32:GDI32.dll
 0001:0006aec2       _GetTextExtentPoint32A@16  0046bec2 f   gdi32:GDI32.dll
 0001:0006aec8       _GetStockObject@4          0046bec8 f   gdi32:GDI32.dll
 0001:0006aece       _SetPixel@16               0046bece f   gdi32:GDI32.dll
 0001:0006aed4       _GetCurrentObject@8        0046bed4 f   gdi32:GDI32.dll
 0001:0006aeda       _DeleteDC@4                0046beda f   gdi32:GDI32.dll
 0001:0006aee0       _BitBlt@36                 0046bee0 f   gdi32:GDI32.dll
 0001:0006aee6       _SelectObject@8            0046bee6 f   gdi32:GDI32.dll
 0001:0006aeec       _CreateCompatibleBitmap@12 0046beec f   gdi32:GDI32.dll
 0001:0006aef2       _CreateCompatibleDC@4      0046bef2 f   gdi32:GDI32.dll
 0001:0006aef8       _GetClipBox@8              0046bef8 f   gdi32:GDI32.dll
 0001:0006aefe       _CreatePen@12              0046befe f   gdi32:GDI32.dll
 0001:0006af04       _SetTextColor@8            0046bf04 f   gdi32:GDI32.dll
 0001:0006af0a       _DeleteObject@4            0046bf0a f   gdi32:GDI32.dll
 0001:0006af10       _GetPixel@12               0046bf10 f   gdi32:GDI32.dll
 0001:0006af16       _PtVisible@12              0046bf16 f   gdi32:GDI32.dll
 0001:0006af1c       _RectVisible@8             0046bf1c f   gdi32:GDI32.dll
 0001:0006af22       _TextOutA@20               0046bf22 f   gdi32:GDI32.dll
 0001:0006af28       _ExtTextOutA@32            0046bf28 f   gdi32:GDI32.dll
 0001:0006af2e       _Escape@20                 0046bf2e f   gdi32:GDI32.dll
 0001:0006af34       _Polyline@12               0046bf34 f   gdi32:GDI32.dll
 0001:0006af3a       _DPtoLP@12                 0046bf3a f   gdi32:GDI32.dll
 0001:0006af40       _GetWindowExtEx@8          0046bf40 f   gdi32:GDI32.dll
 0001:0006af46       _GetMapMode@4              0046bf46 f   gdi32:GDI32.dll
 0001:0006af4c       _LPtoDP@12                 0046bf4c f   gdi32:GDI32.dll
 0001:0006af52       _AbortDoc@4                0046bf52 f   gdi32:GDI32.dll
 0001:0006af58       _EndDoc@4                  0046bf58 f   gdi32:GDI32.dll
 0001:0006af5e       _EndPage@4                 0046bf5e f   gdi32:GDI32.dll
 0001:0006af64       _GetDeviceCaps@8           0046bf64 f   gdi32:GDI32.dll
 0001:0006af6a       _StartPage@4               0046bf6a f   gdi32:GDI32.dll
 0001:0006af70       _StartDocA@8               0046bf70 f   gdi32:GDI32.dll
 0001:0006af76       _GetViewportExtEx@8        0046bf76 f   gdi32:GDI32.dll
 0001:0006af7c       _GetTextMetricsA@8         0046bf7c f   gdi32:GDI32.dll
 0001:0006af82       _Ellipse@20                0046bf82 f   gdi32:GDI32.dll
 0001:0006af88       _CombineRgn@16             0046bf88 f   gdi32:GDI32.dll
 0001:0006af8e       _CreateRectRgn@16          0046bf8e f   gdi32:GDI32.dll
 0001:0006af94       _CreateRectRgnIndirect@4   0046bf94 f   gdi32:GDI32.dll
 0001:0006af9a       _SetRectRgn@20             0046bf9a f   gdi32:GDI32.dll
 0001:0006afa0       _OffsetRgn@12              0046bfa0 f   gdi32:GDI32.dll
 0001:0006afa6       _SHGetDesktopFolder@4      0046bfa6 f   shell32:SHELL32.dll
 0001:0006afac       _SHGetPathFromIDListA@8    0046bfac f   shell32:SHELL32.dll
 0001:0006afb2       _SHBrowseForFolderA@4      0046bfb2 f   shell32:SHELL32.dll
 0001:0006afb8       _ShellExecuteA@24          0046bfb8 f   shell32:SHELL32.dll
 0001:0006afbe       _SHGetSpecialFolderLocation@12 0046bfbe f   shell32:SHELL32.dll
 0001:0006afc4       _SHFileOperationA@4        0046bfc4 f   shell32:SHELL32.dll
 0001:0006afca       _StrStrA@8                 0046bfca f   shell32:SHELL32.dll
 0001:0006afd0       _InitCommonControls@0      0046bfd0 f   comctl32:COMCTL32.dll
 0001:0006afd6       __TrackMouseEvent@4        0046bfd6 f   comctl32:COMCTL32.dll
 0001:0006afdc       _CreateMappedBitmap@20     0046bfdc f   comctl32:COMCTL32.dll
 0001:0006afe2       _ImageList_Draw@24         0046bfe2 f   comctl32:COMCTL32.dll
 0001:0006afe8       _ImageList_GetIcon@12      0046bfe8 f   comctl32:COMCTL32.dll
 0001:0006afee       _ImageList_SetBkColor@8    0046bfee f   comctl32:COMCTL32.dll
 0001:0006aff4       _ImageList_GetBkColor@4    0046bff4 f   comctl32:COMCTL32.dll
 0001:0006affa       _ImageList_GetImageInfo@12 0046bffa f   comctl32:COMCTL32.dll
 0001:0006b000       _CoTaskMemFree@4           0046c000 f   ole32:ole32.dll
 0001:0006b006       _StgCreateDocfile@16       0046c006 f   ole32:ole32.dll
 0001:0006b00c       _StgOpenStorage@24         0046c00c f   ole32:ole32.dll
 0001:0006b012       _CoCreateInstance@20       0046c012 f   ole32:ole32.dll
 0001:0006b018       _VariantClear@4            0046c018 f   oleaut32:OLEAUT32.dll
 0001:0006b01e       _SysFreeString@4           0046c01e f   oleaut32:OLEAUT32.dll
 0001:0006b024       _SysAllocString@4          0046c024 f   oleaut32:OLEAUT32.dll
 0001:0006b02a       _SysStringLen@4            0046c02a f   oleaut32:OLEAUT32.dll
 0001:0006b030       _URLDownloadToFileA@20     0046c030 f   urlmon:urlmon.dll
 0001:0006b036       ?_com_issue_error@@YGXJ@Z  0046c036 f   comsupp:comsupp.obj
 0001:0006b044       ?_com_issue_errorex@@YGXJPAUIUnknown@@ABU_GUID@@@Z 0046c044 f   comsupp:comsupp.obj
 0001:0006b0a5       ?_com_dispatch_raw_method@@YAJPAUIDispatch@@JGGPAXPBGZZ 0046c0a5 f   comsupp:comsupp.obj
 0001:0006b58a       ?_com_dispatch_method@@YAJPAUIDispatch@@JGGPAXPBGZZ 0046c58a f   comsupp:comsupp.obj
 0001:0006b5c4       ?_com_dispatch_raw_propget@@YGJPAUIDispatch@@JGPAX@Z 0046c5c4 f   comsupp:comsupp.obj
 0001:0006b5e3       ?_com_dispatch_propget@@YGJPAUIDispatch@@JGPAX@Z 0046c5e3 f   comsupp:comsupp.obj
 0001:0006b602       ?_com_dispatch_raw_propput@@YAJPAUIDispatch@@JGZZ 0046c602 f   comsupp:comsupp.obj
 0001:0006b65b       ?_com_dispatch_propput@@YAJPAUIDispatch@@JGZZ 0046c65b f   comsupp:comsupp.obj
 0001:0006b6f0       ?ConvertStringToBSTR@_com_util@@YGPAGPBD@Z 0046c6f0 f   comsupp:comutil.obj
 0001:0006b765       ?ConvertBSTRToString@_com_util@@YGPADPAG@Z 0046c765 f   comsupp:comutil.obj
 0001:0006b7d9       ??0_variant_t@@QAE@JG@Z    0046c7d9 f i comsupp:comutil.obj
 0001:0006b835       ?_com_raise_error@@YGXJPAUIErrorInfo@@@Z 0046c835 f   comsupp:comraise.obj
 0001:0006b859       ??0_com_error@@QAE@JPAUIErrorInfo@@_N@Z 0046c859 f i comsupp:comraise.obj
 0001:0006b88b       ??_E_com_error@@UAEPAXI@Z  0046c88b f i comsupp:comraise.obj
 0001:0006b88b       ??_G_com_error@@UAEPAXI@Z  0046c88b f i comsupp:comraise.obj
 0001:0006b8a7       ??0_com_error@@QAE@ABV0@@Z 0046c8a7 f i comsupp:comraise.obj
 0001:0006b8d4       ??1_com_error@@UAE@XZ      0046c8d4 f i comsupp:comraise.obj
 0001:0006b8fa       ??0logic_error@std@@QAE@ABV01@@Z 0046c8fa f   msvcprt:MSVCP60.dll
 0001:0006b900       ??0out_of_range@std@@QAE@ABV01@@Z 0046c900 f   msvcprt:MSVCP60.dll
 0001:0006b906       ??1out_of_range@std@@UAE@XZ 0046c906 f   msvcprt:MSVCP60.dll
 0001:0006b90c       ??1?$basic_string@DU?$char_traits@D@std@@V?$allocator@D@2@@std@@QAE@XZ 0046c90c f   msvcprt:MSVCP60.dll
 0001:0006b912       ?assign@?$basic_string@DU?$char_traits@D@std@@V?$allocator@D@2@@std@@QAEAAV12@ABV12@II@Z 0046c912 f   msvcprt:MSVCP60.dll
 0001:0006b918       ?_Tidy@?$basic_string@DU?$char_traits@D@std@@V?$allocator@D@2@@std@@AAEX_N@Z 0046c918 f   msvcprt:MSVCP60.dll
 0001:0006b91e       ?_Grow@?$basic_string@DU?$char_traits@D@std@@V?$allocator@D@2@@std@@AAE_NI_N@Z 0046c91e f   msvcprt:MSVCP60.dll
 0001:0006b924       ??0out_of_range@std@@QAE@ABV?$basic_string@DU?$char_traits@D@std@@V?$allocator@D@2@@1@@Z 0046c924 f   msvcprt:MSVCP60.dll
 0001:0006b92a       ??0?$basic_string@DU?$char_traits@D@std@@V?$allocator@D@2@@std@@QAE@PBDABV?$allocator@D@1@@Z 0046c92a f   msvcprt:MSVCP60.dll
 0001:0006b930       ?assign@?$basic_string@DU?$char_traits@D@std@@V?$allocator@D@2@@std@@QAEAAV12@PBDI@Z 0046c930 f   msvcprt:MSVCP60.dll
 0001:0006b936       ?_Copy@?$basic_string@DU?$char_traits@D@std@@V?$allocator@D@2@@std@@AAEXI@Z 0046c936 f   msvcprt:MSVCP60.dll
 0001:0006b93c       ?_Xlen@std@@YAXXZ          0046c93c f   msvcprt:MSVCP60.dll
 0001:0006b942       ??0Init@ios_base@std@@QAE@XZ 0046c942 f   msvcprt:MSVCP60.dll
 0001:0006b948       ??1Init@ios_base@std@@QAE@XZ 0046c948 f   msvcprt:MSVCP60.dll
 0001:0006b94e       ??0_Winit@std@@QAE@XZ      0046c94e f   msvcprt:MSVCP60.dll
 0001:0006b954       ??1_Winit@std@@QAE@XZ      0046c954 f   msvcprt:MSVCP60.dll
 0001:0006b95a       ??1?$basic_streambuf@DU?$char_traits@D@std@@@std@@UAE@XZ 0046c95a f   msvcprt:MSVCP60.dll
 0001:0006b960       ??_D?$basic_ostringstream@DU?$char_traits@D@std@@V?$allocator@D@2@@std@@QAEXXZ 0046c960 f   msvcprt:MSVCP60.dll
 0001:0006b966       ??1?$basic_ostream@DU?$char_traits@D@std@@@std@@UAE@XZ 0046c966 f   msvcprt:MSVCP60.dll
 0001:0006b96c       ??1?$basic_ios@DU?$char_traits@D@std@@@std@@UAE@XZ 0046c96c f   msvcprt:MSVCP60.dll
 0001:0006b972       ??1ios_base@std@@UAE@XZ    0046c972 f   msvcprt:MSVCP60.dll
 0001:0006b978       ??1locale@std@@QAE@XZ      0046c978 f   msvcprt:MSVCP60.dll
 0001:0006b97e       ?_Tidy@?$basic_stringbuf@DU?$char_traits@D@std@@V?$allocator@D@2@@std@@IAEXXZ 0046c97e f   msvcprt:MSVCP60.dll
 0001:0006b984       ?str@?$basic_ostringstream@DU?$char_traits@D@std@@V?$allocator@D@2@@std@@QBE?AV?$basic_string@DU?$char_traits@D@std@@V?$allocator@D@2@@2@XZ 0046c984 f   msvcprt:MSVCP60.dll
 0001:0006b98a       ??6std@@YAAAV?$basic_ostream@DU?$char_traits@D@std@@@0@AAV10@D@Z 0046c98a f   msvcprt:MSVCP60.dll
 0001:0006b990       ??6std@@YAAAV?$basic_ostream@DU?$char_traits@D@std@@@0@AAV10@PBD@Z 0046c990 f   msvcprt:MSVCP60.dll
 0001:0006b996       ??0?$basic_stringbuf@DU?$char_traits@D@std@@V?$allocator@D@2@@std@@QAE@H@Z 0046c996 f   msvcprt:MSVCP60.dll
 0001:0006b99c       ??0?$basic_ostream@DU?$char_traits@D@std@@@std@@QAE@PAV?$basic_streambuf@DU?$char_traits@D@std@@@1@_N1@Z 0046c99c f   msvcprt:MSVCP60.dll
 0001:0006b9a2       ??0ios_base@std@@IAE@XZ    0046c9a2 f   msvcprt:MSVCP60.dll
 0001:0006b9a8       ??1_Lockit@std@@QAE@XZ     0046c9a8 f   msvcprt:MSVCP60.dll
 0001:0006b9ae       ??0_Lockit@std@@QAE@XZ     0046c9ae f   msvcprt:MSVCP60.dll
 0001:0006b9b4       ??1?$basic_stringbuf@DU?$char_traits@D@std@@V?$allocator@D@2@@std@@UAE@XZ 0046c9b4 f   msvcprt:MSVCP60.dll
 0001:0006b9ba       ??1?$basic_ostringstream@DU?$char_traits@D@std@@V?$allocator@D@2@@std@@UAE@XZ 0046c9ba f   msvcprt:MSVCP60.dll
 0001:0006b9c0       ??0?$basic_ios@DU?$char_traits@D@std@@@std@@IAE@XZ 0046c9c0 f   msvcprt:MSVCP60.dll
 0001:0006b9c6       _PathFileExistsA@4         0046c9c6 f   shlwapi:SHLWAPI.dll
 0001:0006b9cc       _PathQuoteSpacesA@4        0046c9cc f   shlwapi:SHLWAPI.dll
 0001:0006b9e0       _AddFile                   0046c9e0 f   crashrpt:CrashRpt.dll
 0001:0006b9e6       _Install                   0046c9e6 f   crashrpt:CrashRpt.dll
 0001:0006b9ec       _WinMain@16                0046c9ec f   mfcs42:appmodul.obj
 0001:0006ba04       ?AfxInitialize@@YGHHK@Z    0046ca04 f   mfcs42:appmodul.obj
 0001:0006ba44       _wcslen                    0046ca44 f   msvcrt:MSVCRT.dll
 0001:0006ba4a       __unlink                   0046ca4a f   msvcrt:MSVCRT.dll
 0001:0006ba50       __setmbcp                  0046ca50 f   msvcrt:MSVCRT.dll
 0001:0006ba56       _lstrlenW@4                0046ca56 f   kernel32:KERNEL32.dll
 0001:0006ba5c       _WideCharToMultiByte@32    0046ca5c f   kernel32:KERNEL32.dll
 0001:0006ba62       _LocalFree@4               0046ca62 f   kernel32:KERNEL32.dll
 0001:0006ba68       _GetErrorInfo@8            0046ca68 f   oleaut32:OLEAUT32.dll
 0001:0006ba6e       _SetErrorInfo@8            0046ca6e f   oleaut32:OLEAUT32.dll
 0001:0006ba74       _VariantChangeType@16      0046ca74 f   oleaut32:OLEAUT32.dll
 0001:0006ba7a       _CreateErrorInfo@4         0046ca7a f   oleaut32:OLEAUT32.dll
 0001:0006ba80       _VariantInit@4             0046ca80 f   oleaut32:OLEAUT32.dll
 0001:0006ba86       ?AfxWinMain@@YGHPAUHINSTANCE__@@0PADH@Z 0046ca86 f   mfc42:MFC42.DLL
 0002:00000000       __imp__ImageList_GetImageInfo@12 00477000     comctl32:COMCTL32.dll
 0002:00000004       __imp___TrackMouseEvent@4  00477004     comctl32:COMCTL32.dll
 0002:00000008       __imp__CreateMappedBitmap@20 00477008     comctl32:COMCTL32.dll
 0002:0000000c       __imp__ImageList_Draw@24   0047700c     comctl32:COMCTL32.dll
 0002:00000010       __imp__ImageList_GetIcon@12 00477010     comctl32:COMCTL32.dll
 0002:00000014       __imp__ImageList_SetBkColor@8 00477014     comctl32:COMCTL32.dll
 0002:00000018       __imp__ImageList_GetBkColor@4 00477018     comctl32:COMCTL32.dll
 0002:0000001c       __imp__InitCommonControls@0 0047701c     comctl32:COMCTL32.dll
 0002:00000020       \177COMCTL32_NULL_THUNK_DATA 00477020     comctl32:COMCTL32.dll
 0002:00000024       __imp__Install             00477024     crashrpt:CrashRpt.dll
 0002:00000028       __imp__AddFile             00477028     crashrpt:CrashRpt.dll
 0002:0000002c       \177CrashRpt_NULL_THUNK_DATA 0047702c     crashrpt:CrashRpt.dll
 0002:00000030       __imp__DPtoLP@12           00477030     gdi32:GDI32.dll
 0002:00000034       __imp__GetWindowExtEx@8    00477034     gdi32:GDI32.dll
 0002:00000038       __imp__LPtoDP@12           00477038     gdi32:GDI32.dll
 0002:0000003c       __imp__Polyline@12         0047703c     gdi32:GDI32.dll
 0002:00000040       __imp__OffsetRgn@12        00477040     gdi32:GDI32.dll
 0002:00000044       __imp__SetRectRgn@20       00477044     gdi32:GDI32.dll
 0002:00000048       __imp__CreateRectRgnIndirect@4 00477048     gdi32:GDI32.dll
 0002:0000004c       __imp__CreateRectRgn@16    0047704c     gdi32:GDI32.dll
 0002:00000050       __imp__CombineRgn@16       00477050     gdi32:GDI32.dll
 0002:00000054       __imp__Ellipse@20          00477054     gdi32:GDI32.dll
 0002:00000058       __imp__GetTextMetricsA@8   00477058     gdi32:GDI32.dll
 0002:0000005c       __imp__GetViewportExtEx@8  0047705c     gdi32:GDI32.dll
 0002:00000060       __imp__StartDocA@8         00477060     gdi32:GDI32.dll
 0002:00000064       __imp__StartPage@4         00477064     gdi32:GDI32.dll
 0002:00000068       __imp__GetDeviceCaps@8     00477068     gdi32:GDI32.dll
 0002:0000006c       __imp__EndPage@4           0047706c     gdi32:GDI32.dll
 0002:00000070       __imp__EndDoc@4            00477070     gdi32:GDI32.dll
 0002:00000074       __imp__AbortDoc@4          00477074     gdi32:GDI32.dll
 0002:00000078       __imp__Escape@20           00477078     gdi32:GDI32.dll
 0002:0000007c       __imp__ExtTextOutA@32      0047707c     gdi32:GDI32.dll
 0002:00000080       __imp__TextOutA@20         00477080     gdi32:GDI32.dll
 0002:00000084       __imp__RectVisible@8       00477084     gdi32:GDI32.dll
 0002:00000088       __imp__PtVisible@12        00477088     gdi32:GDI32.dll
 0002:0000008c       __imp__GetPixel@12         0047708c     gdi32:GDI32.dll
 0002:00000090       __imp__DeleteObject@4      00477090     gdi32:GDI32.dll
 0002:00000094       __imp__SetTextColor@8      00477094     gdi32:GDI32.dll
 0002:00000098       __imp__CreatePen@12        00477098     gdi32:GDI32.dll
 0002:0000009c       __imp__GetClipBox@8        0047709c     gdi32:GDI32.dll
 0002:000000a0       __imp__CreateCompatibleDC@4 004770a0     gdi32:GDI32.dll
 0002:000000a4       __imp__CreateCompatibleBitmap@12 004770a4     gdi32:GDI32.dll
 0002:000000a8       __imp__SelectObject@8      004770a8     gdi32:GDI32.dll
 0002:000000ac       __imp__BitBlt@36           004770ac     gdi32:GDI32.dll
 0002:000000b0       __imp__DeleteDC@4          004770b0     gdi32:GDI32.dll
 0002:000000b4       __imp__GetCurrentObject@8  004770b4     gdi32:GDI32.dll
 0002:000000b8       __imp__GetMapMode@4        004770b8     gdi32:GDI32.dll
 0002:000000bc       __imp__SetPixel@16         004770bc     gdi32:GDI32.dll
 0002:000000c0       __imp__GetStockObject@4    004770c0     gdi32:GDI32.dll
 0002:000000c4       __imp__GetTextExtentPoint32A@16 004770c4     gdi32:GDI32.dll
 0002:000000c8       __imp__GetTextColor@4      004770c8     gdi32:GDI32.dll
 0002:000000cc       __imp__GetBkColor@4        004770cc     gdi32:GDI32.dll
 0002:000000d0       __imp__GetObjectA@12       004770d0     gdi32:GDI32.dll
 0002:000000d4       __imp__CreateSolidBrush@4  004770d4     gdi32:GDI32.dll
 0002:000000d8       __imp__Rectangle@20        004770d8     gdi32:GDI32.dll
 0002:000000dc       __imp__CreateFontIndirectA@4 004770dc     gdi32:GDI32.dll
 0002:000000e0       \177GDI32_NULL_THUNK_DATA  004770e0     gdi32:GDI32.dll
 0002:000000e4       __imp__CloseHandle@4       004770e4     kernel32:KERNEL32.dll
 0002:000000e8       __imp__ReleaseMutex@4      004770e8     kernel32:KERNEL32.dll
 0002:000000ec       __imp__WaitForSingleObject@8 004770ec     kernel32:KERNEL32.dll
 0002:000000f0       __imp__GetLastError@0      004770f0     kernel32:KERNEL32.dll
 0002:000000f4       __imp__CreateProcessA@40   004770f4     kernel32:KERNEL32.dll
 0002:000000f8       __imp__lstrcatA@8          004770f8     kernel32:KERNEL32.dll
 0002:000000fc       __imp__GetStartupInfoA@4   004770fc     kernel32:KERNEL32.dll
 0002:00000100       __imp__GetCommandLineA@0   00477100     kernel32:KERNEL32.dll
 0002:00000104       __imp__lstrcpynA@12        00477104     kernel32:KERNEL32.dll
 0002:00000108       __imp__FreeLibrary@4       00477108     kernel32:KERNEL32.dll
 0002:0000010c       __imp__GetVersionExA@4     0047710c     kernel32:KERNEL32.dll
 0002:00000110       __imp__InterlockedDecrement@4 00477110     kernel32:KERNEL32.dll
 0002:00000114       __imp__GetTickCount@0      00477114     kernel32:KERNEL32.dll
 0002:00000118       __imp__DeleteCriticalSection@4 00477118     kernel32:KERNEL32.dll
 0002:0000011c       __imp__InitializeCriticalSection@4 0047711c     kernel32:KERNEL32.dll
 0002:00000120       __imp__EnterCriticalSection@4 00477120     kernel32:KERNEL32.dll
 0002:00000124       __imp__GetModuleHandleA@4  00477124     kernel32:KERNEL32.dll
 0002:00000128       __imp__GetCurrentThreadId@0 00477128     kernel32:KERNEL32.dll
 0002:0000012c       __imp__GlobalLock@4        0047712c     kernel32:KERNEL32.dll
 0002:00000130       __imp__GlobalUnlock@4      00477130     kernel32:KERNEL32.dll
 0002:00000134       __imp__GetLocaleInfoA@16   00477134     kernel32:KERNEL32.dll
 0002:00000138       __imp__GetModuleFileNameA@12 00477138     kernel32:KERNEL32.dll
 0002:0000013c       __imp__CreateMutexA@12     0047713c     kernel32:KERNEL32.dll
 0002:00000140       __imp__GetTempPathA@8      00477140     kernel32:KERNEL32.dll
 0002:00000144       __imp__CreateDirectoryA@8  00477144     kernel32:KERNEL32.dll
 0002:00000148       __imp__GetCurrentDirectoryA@8 00477148     kernel32:KERNEL32.dll
 0002:0000014c       __imp__Sleep@4             0047714c     kernel32:KERNEL32.dll
 0002:00000150       __imp__WinExec@8           00477150     kernel32:KERNEL32.dll
 0002:00000154       __imp__MultiByteToWideChar@24 00477154     kernel32:KERNEL32.dll
 0002:00000158       __imp__lstrlenA@4          00477158     kernel32:KERNEL32.dll
 0002:0000015c       __imp__lstrcpyA@8          0047715c     kernel32:KERNEL32.dll
 0002:00000160       __imp__GetProcAddress@8    00477160     kernel32:KERNEL32.dll
 0002:00000164       __imp__lstrlenW@4          00477164     kernel32:KERNEL32.dll
 0002:00000168       __imp__WideCharToMultiByte@32 00477168     kernel32:KERNEL32.dll
 0002:0000016c       __imp__LocalFree@4         0047716c     kernel32:KERNEL32.dll
 0002:00000170       __imp__LeaveCriticalSection@4 00477170     kernel32:KERNEL32.dll
 0002:00000174       __imp__CopyFileA@12        00477174     kernel32:KERNEL32.dll
 0002:00000178       __imp__LoadLibraryA@4      00477178     kernel32:KERNEL32.dll
 0002:0000017c       \177KERNEL32_NULL_THUNK_DATA 0047717c     kernel32:KERNEL32.dll
 0002:00000180       __imp__HPDF_GetVersion@0   00477180     libhpdf:LIBHPDF.DLL
 0002:00000184       __imp__HPDF_SaveToFile@8   00477184     libhpdf:LIBHPDF.DLL
 0002:00000188       __imp__HPDF_Page_MoveToNextLine@4 00477188     libhpdf:LIBHPDF.DLL
 0002:0000018c       __imp__HPDF_Page_ShowText@8 0047718c     libhpdf:LIBHPDF.DLL
 0002:00000190       __imp__HPDF_Page_MoveTextPos@12 00477190     libhpdf:LIBHPDF.DLL
 0002:00000194       __imp__HPDF_Page_TextRect@32 00477194     libhpdf:LIBHPDF.DLL
 0002:00000198       __imp__HPDF_Page_EndText@4 00477198     libhpdf:LIBHPDF.DLL
 0002:0000019c       __imp__HPDF_Page_SetFontAndSize@12 0047719c     libhpdf:LIBHPDF.DLL
 0002:000001a0       __imp__HPDF_Page_SetTextLeading@8 004771a0     libhpdf:LIBHPDF.DLL
 0002:000001a4       __imp__HPDF_Page_SetSize@12 004771a4     libhpdf:LIBHPDF.DLL
 0002:000001a8       __imp__HPDF_Page_BeginText@4 004771a8     libhpdf:LIBHPDF.DLL
 0002:000001ac       __imp__HPDF_GetFont@12     004771ac     libhpdf:LIBHPDF.DLL
 0002:000001b0       __imp__HPDF_AddPage@4      004771b0     libhpdf:LIBHPDF.DLL
 0002:000001b4       __imp__HPDF_LoadTTFontFromFile@12 004771b4     libhpdf:LIBHPDF.DLL
 0002:000001b8       __imp__HPDF_SetCompressionMode@8 004771b8     libhpdf:LIBHPDF.DLL
 0002:000001bc       __imp__HPDF_UseJPEncodings@4 004771bc     libhpdf:LIBHPDF.DLL
 0002:000001c0       __imp__HPDF_New@8          004771c0     libhpdf:LIBHPDF.DLL
 0002:000001c4       __imp__HPDF_Page_TextOut@16 004771c4     libhpdf:LIBHPDF.DLL
 0002:000001c8       __imp__HPDF_Page_Stroke@4  004771c8     libhpdf:LIBHPDF.DLL
 0002:000001cc       __imp__HPDF_Page_LineTo@12 004771cc     libhpdf:LIBHPDF.DLL
 0002:000001d0       __imp__HPDF_Page_MoveTo@12 004771d0     libhpdf:LIBHPDF.DLL
 0002:000001d4       __imp__HPDF_Page_SetLineWidth@8 004771d4     libhpdf:LIBHPDF.DLL
 0002:000001d8       __imp__HPDF_Page_SetRGBFill@16 004771d8     libhpdf:LIBHPDF.DLL
 0002:000001dc       __imp__HPDF_Page_SetTextMatrix@28 004771dc     libhpdf:LIBHPDF.DLL
 0002:000001e0       __imp__HPDF_Page_SetTextRenderingMode@8 004771e0     libhpdf:LIBHPDF.DLL
 0002:000001e4       __imp__HPDF_Page_Fill@4    004771e4     libhpdf:LIBHPDF.DLL
 0002:000001e8       __imp__HPDF_Page_Rectangle@20 004771e8     libhpdf:LIBHPDF.DLL
 0002:000001ec       __imp__HPDF_Page_GetWidth@4 004771ec     libhpdf:LIBHPDF.DLL
 0002:000001f0       __imp__HPDF_Free@4         004771f0     libhpdf:LIBHPDF.DLL
 0002:000001f4       \177LIBHPDF_NULL_THUNK_DATA 004771f4     libhpdf:LIBHPDF.DLL
 0002:000001f8       __imp_?CheckAutoCenter@CWnd@@UAEHXZ 004771f8     mfc42:MFC42.DLL
 0002:000001fc       __imp_?PreTranslateMessage@CWnd@@UAEHPAUtagMSG@@@Z 004771fc     mfc42:MFC42.DLL
 0002:00000200       __imp_?GetMessageMap@CWnd@@MBEPBUAFX_MSGMAP@@XZ 00477200     mfc42:MFC42.DLL
 0002:00000204       __imp_?OnCmdMsg@CCmdTarget@@UAEHIHPAXPAUAFX_CMDHANDLERINFO@@@Z 00477204     mfc42:MFC42.DLL
 0002:00000208       __imp_?GetRuntimeClass@CDateTimeCtrl@@UBEPAUCRuntimeClass@@XZ 00477208     mfc42:MFC42.DLL
 0002:0000020c       __imp_??1CDateTimeCtrl@@UAE@XZ 0047720c     mfc42:MFC42.DLL
 0002:00000210       __imp_??4CString@@QAEABV0@ABV0@@Z 00477210     mfc42:MFC42.DLL
 0002:00000214       __imp_??0CWnd@@QAE@XZ      00477214     mfc42:MFC42.DLL
 0002:00000218       __imp_?DDX_Check@@YGXPAVCDataExchange@@HAAH@Z 00477218     mfc42:MFC42.DLL
 0002:0000021c       __imp_?DDX_Text@@YGXPAVCDataExchange@@HAAH@Z 0047721c     mfc42:MFC42.DLL
 0002:00000220       __imp_?SetTime@CDateTimeCtrl@@QAEHPBVCTime@@@Z 00477220     mfc42:MFC42.DLL
 0002:00000224       __imp_?GetTime@CDateTimeCtrl@@QBEKAAVCTime@@@Z 00477224     mfc42:MFC42.DLL
 0002:00000228       __imp_?DrawItem@CButton@@UAEXPAUtagDRAWITEMSTRUCT@@@Z 00477228     mfc42:MFC42.DLL
 0002:0000022c       __imp_?OnChildNotify@CButton@@MAEHIIJPAJ@Z 0047722c     mfc42:MFC42.DLL
 0002:00000230       __imp_?GetRuntimeClass@CButton@@UBEPAUCRuntimeClass@@XZ 00477230     mfc42:MFC42.DLL
 0002:00000234       __imp_??1CButton@@UAE@XZ   00477234     mfc42:MFC42.DLL
 0002:00000238       __imp_?InsertColumn@CListCtrl@@QAEHHPBDHHH@Z 00477238     mfc42:MFC42.DLL
 0002:0000023c       __imp_?EnableWindow@CWnd@@QAEHH@Z 0047723c     mfc42:MFC42.DLL
 0002:00000240       __imp_?SetItem@CListCtrl@@QAEHHHIPBDHIIJ@Z 00477240     mfc42:MFC42.DLL
 0002:00000244       __imp_?InsertItem@CListCtrl@@QAEHIHPBDIIHJ@Z 00477244     mfc42:MFC42.DLL
 0002:00000248       __imp_?GetItemData@CListCtrl@@QBEKH@Z 00477248     mfc42:MFC42.DLL
 0002:0000024c       __imp_?MessageBoxA@CWnd@@QAEHPBD0I@Z 0047724c     mfc42:MFC42.DLL
 0002:00000250       __imp_?SetItemText@CListCtrl@@QAEHHHPBD@Z 00477250     mfc42:MFC42.DLL
 0002:00000254       __imp_?DeleteItem@CComboBox@@UAEXPAUtagDELETEITEMSTRUCT@@@Z 00477254     mfc42:MFC42.DLL
 0002:00000258       __imp_?CompareItem@CComboBox@@UAEHPAUtagCOMPAREITEMSTRUCT@@@Z 00477258     mfc42:MFC42.DLL
 0002:0000025c       __imp_?MeasureItem@CComboBox@@UAEXPAUtagMEASUREITEMSTRUCT@@@Z 0047725c     mfc42:MFC42.DLL
 0002:00000260       __imp_?DrawItem@CComboBox@@UAEXPAUtagDRAWITEMSTRUCT@@@Z 00477260     mfc42:MFC42.DLL
 0002:00000264       __imp_?OnChildNotify@CComboBox@@MAEHIIJPAJ@Z 00477264     mfc42:MFC42.DLL
 0002:00000268       __imp_?GetRuntimeClass@CComboBox@@UBEPAUCRuntimeClass@@XZ 00477268     mfc42:MFC42.DLL
 0002:0000026c       __imp_??1CImageList@@UAE@XZ 0047726c     mfc42:MFC42.DLL
 0002:00000270       __imp_??1CComboBox@@UAE@XZ 00477270     mfc42:MFC42.DLL
 0002:00000274       __imp_??0CImageList@@QAE@XZ 00477274     mfc42:MFC42.DLL
 0002:00000278       __imp_?DDV_MinMaxInt@@YGXPAVCDataExchange@@HHH@Z 00477278     mfc42:MFC42.DLL
 0002:0000027c       __imp_?GetLBText@CComboBox@@QBEXHAAVCString@@@Z 0047727c     mfc42:MFC42.DLL
 0002:00000280       __imp_?Default@CWnd@@IAEJXZ 00477280     mfc42:MFC42.DLL
 0002:00000284       __imp_?SetWindowTextA@CWnd@@QAEXPBD@Z 00477284     mfc42:MFC42.DLL
 0002:00000288       __imp_??1CStatic@@UAE@XZ   00477288     mfc42:MFC42.DLL
 0002:0000028c       __imp_?GetStyle@CWnd@@QBEKXZ 0047728c     mfc42:MFC42.DLL
 0002:00000290       __imp_?SetCheck@CListCtrl@@QAEHHH@Z 00477290     mfc42:MFC42.DLL
 0002:00000294       __imp_?GetCheck@CListCtrl@@QBEHH@Z 00477294     mfc42:MFC42.DLL
 0002:00000298       __imp_?GetItemText@CListCtrl@@QBE?AVCString@@HH@Z 00477298     mfc42:MFC42.DLL
 0002:0000029c       __imp_?GetRuntimeClass@CStatic@@UBEPAUCRuntimeClass@@XZ 0047729c     mfc42:MFC42.DLL
 0002:000002a0       __imp_?DDX_CBString@@YGXPAVCDataExchange@@HAAVCString@@@Z 004772a0     mfc42:MFC42.DLL
 0002:000002a4       __imp_?DDX_DateTimeCtrl@@YGXPAVCDataExchange@@HAAVCTime@@@Z 004772a4     mfc42:MFC42.DLL
 0002:000002a8       __imp_?DDV_MaxChars@@YGXPAVCDataExchange@@ABVCString@@H@Z 004772a8     mfc42:MFC42.DLL
 0002:000002ac       __imp_?Replace@CString@@QAEHPBD0@Z 004772ac     mfc42:MFC42.DLL
 0002:000002b0       __imp_?GetRuntimeClass@CEdit@@UBEPAUCRuntimeClass@@XZ 004772b0     mfc42:MFC42.DLL
 0002:000002b4       __imp_?CharToItem@CListBox@@UAEHII@Z 004772b4     mfc42:MFC42.DLL
 0002:000002b8       __imp_?VKeyToItem@CListBox@@UAEHII@Z 004772b8     mfc42:MFC42.DLL
 0002:000002bc       __imp_?DeleteItem@CListBox@@UAEXPAUtagDELETEITEMSTRUCT@@@Z 004772bc     mfc42:MFC42.DLL
 0002:000002c0       __imp_?CompareItem@CListBox@@UAEHPAUtagCOMPAREITEMSTRUCT@@@Z 004772c0     mfc42:MFC42.DLL
 0002:000002c4       __imp_?MeasureItem@CListBox@@UAEXPAUtagMEASUREITEMSTRUCT@@@Z 004772c4     mfc42:MFC42.DLL
 0002:000002c8       __imp_?DrawItem@CListBox@@UAEXPAUtagDRAWITEMSTRUCT@@@Z 004772c8     mfc42:MFC42.DLL
 0002:000002cc       __imp_?OnChildNotify@CListBox@@MAEHIIJPAJ@Z 004772cc     mfc42:MFC42.DLL
 0002:000002d0       __imp_?GetRuntimeClass@CListBox@@UBEPAUCRuntimeClass@@XZ 004772d0     mfc42:MFC42.DLL
 0002:000002d4       __imp_??1CListBox@@UAE@XZ  004772d4     mfc42:MFC42.DLL
 0002:000002d8       __imp_??1CEdit@@UAE@XZ     004772d8     mfc42:MFC42.DLL
 0002:000002dc       __imp_?GetText@CListBox@@QBEXHAAVCString@@@Z 004772dc     mfc42:MFC42.DLL
 0002:000002e0       __imp_?SetItem@CTreeCtrl@@QAEHPAU_TREEITEM@@IPBDHHIIJ@Z 004772e0     mfc42:MFC42.DLL
 0002:000002e4       __imp_??2@YAPAXI@Z         004772e4     mfc42:MFC42.DLL
 0002:000002e8       __imp_?InsertItem@CTreeCtrl@@QAEPAU_TREEITEM@@IPBDHHIIJPAU2@1@Z 004772e8     mfc42:MFC42.DLL
 0002:000002ec       __imp_?GetItemData@CTreeCtrl@@QBEKPAU_TREEITEM@@@Z 004772ec     mfc42:MFC42.DLL
 0002:000002f0       __imp_??0CString@@QAE@ABV0@@Z 004772f0     mfc42:MFC42.DLL
 0002:000002f4       __imp_??0CString@@QAE@PBD@Z 004772f4     mfc42:MFC42.DLL
 0002:000002f8       __imp_?GetMessageMap@CTreeCtrl@@MBEPBUAFX_MSGMAP@@XZ 004772f8     mfc42:MFC42.DLL
 0002:000002fc       __imp_?GetRuntimeClass@CTreeCtrl@@UBEPAUCRuntimeClass@@XZ 004772fc     mfc42:MFC42.DLL
 0002:00000300       __imp_??1CTreeCtrl@@UAE@XZ 00477300     mfc42:MFC42.DLL
 0002:00000304       __imp_?FromHandle@CWnd@@SGPAV1@PAUHWND__@@@Z 00477304     mfc42:MFC42.DLL
 0002:00000308       __imp_?GetItemText@CTreeCtrl@@QBE?AVCString@@PAU_TREEITEM@@@Z 00477308     mfc42:MFC42.DLL
 0002:0000030c       __imp_?MeasureItem@CMenu@@UAEXPAUtagMEASUREITEMSTRUCT@@@Z 0047730c     mfc42:MFC42.DLL
 0002:00000310       __imp_?DrawItem@CMenu@@UAEXPAUtagDRAWITEMSTRUCT@@@Z 00477310     mfc42:MFC42.DLL
 0002:00000314       __imp_?GetRuntimeClass@CMenu@@UBEPAUCRuntimeClass@@XZ 00477314     mfc42:MFC42.DLL
 0002:00000318       __imp_?DestroyMenu@CMenu@@QAEHXZ 00477318     mfc42:MFC42.DLL
 0002:0000031c       __imp_?TrackPopupMenu@CMenu@@QAEHIHHPAVCWnd@@PBUtagRECT@@@Z 0047731c     mfc42:MFC42.DLL
 0002:00000320       __imp_?FromHandle@CMenu@@SGPAV1@PAUHMENU__@@@Z 00477320     mfc42:MFC42.DLL
 0002:00000324       __imp_?Attach@CMenu@@QAEHPAUHMENU__@@@Z 00477324     mfc42:MFC42.DLL
 0002:00000328       __imp_?AfxFindResourceHandle@@YGPAUHINSTANCE__@@PBD0@Z 00477328     mfc42:MFC42.DLL
 0002:0000032c       __imp_?GetRuntimeClass@CObject@@UBEPAUCRuntimeClass@@XZ 0047732c     mfc42:MFC42.DLL
 0002:00000330       __imp_?classCDialog@CDialog@@2UCRuntimeClass@@B 00477330     mfc42:MFC42.DLL
 0002:00000334       __imp_?OnCancel@CCommonDialog@@MAEXXZ 00477334     mfc42:MFC42.DLL
 0002:00000338       __imp_?OnOK@CCommonDialog@@MAEXXZ 00477338     mfc42:MFC42.DLL
 0002:0000033c       __imp_?messageMap@CCommonDialog@@1UAFX_MSGMAP@@B 0047733c     mfc42:MFC42.DLL
 0002:00000340       __imp_?PostModal@CDialog@@IAEXXZ 00477340     mfc42:MFC42.DLL
 0002:00000344       __imp_?PreModal@CDialog@@IAEPAUHWND__@@XZ 00477344     mfc42:MFC42.DLL
 0002:00000348       __imp_?SetWindowPos@CWnd@@QAEHPBV1@HHHHI@Z 00477348     mfc42:MFC42.DLL
 0002:0000034c       __imp_?wndTopMost@CWnd@@2V1@B 0047734c     mfc42:MFC42.DLL
 0002:00000350       __imp_??YCString@@QAEABV0@PBD@Z 00477350     mfc42:MFC42.DLL
 0002:00000354       __imp_?Left@CString@@QBE?AV1@H@Z 00477354     mfc42:MFC42.DLL
 0002:00000358       __imp_??H@YG?AVCString@@PBDABV0@@Z 00477358     mfc42:MFC42.DLL
 0002:0000035c       __imp_?InsertItem@CTabCtrl@@QAEHIHPBDHJ@Z 0047735c     mfc42:MFC42.DLL
 0002:00000360       __imp_??YCString@@QAEABV0@ABV0@@Z 00477360     mfc42:MFC42.DLL
 0002:00000364       __imp_?DrawItem@CTabCtrl@@UAEXPAUtagDRAWITEMSTRUCT@@@Z 00477364     mfc42:MFC42.DLL
 0002:00000368       __imp_?OnChildNotify@CTabCtrl@@MAEHIIJPAJ@Z 00477368     mfc42:MFC42.DLL
 0002:0000036c       __imp_?GetRuntimeClass@CTabCtrl@@UBEPAUCRuntimeClass@@XZ 0047736c     mfc42:MFC42.DLL
 0002:00000370       __imp_??1CTabCtrl@@UAE@XZ  00477370     mfc42:MFC42.DLL
 0002:00000374       __imp_?messageMap@CTabCtrl@@1UAFX_MSGMAP@@B 00477374     mfc42:MFC42.DLL
 0002:00000378       __imp_?Create@CDialog@@QAEHPBDPAVCWnd@@@Z 00477378     mfc42:MFC42.DLL
 0002:0000037c       __imp_?wndTop@CWnd@@2V1@B  0047737c     mfc42:MFC42.DLL
 0002:00000380       __imp_?ScreenToClient@CWnd@@QBEXPAUtagRECT@@@Z 00477380     mfc42:MFC42.DLL
 0002:00000384       __imp_?ShowWindow@CWnd@@QAEHH@Z 00477384     mfc42:MFC42.DLL
 0002:00000388       __imp_?OnContextHelp@CFrameWnd@@QAEXXZ 00477388     mfc42:MFC42.DLL
 0002:0000038c       __imp_?OnHelp@CFrameWnd@@IAEXXZ 0047738c     mfc42:MFC42.DLL
 0002:00000390       __imp_?OnHelpFinder@CWnd@@QAEXXZ 00477390     mfc42:MFC42.DLL
 0002:00000394       __imp_?classCFrameWnd@CFrameWnd@@2UCRuntimeClass@@B 00477394     mfc42:MFC42.DLL
 0002:00000398       __imp_?OnInitMenuPopup@CFrameWnd@@IAEXPAVCMenu@@IH@Z 00477398     mfc42:MFC42.DLL
 0002:0000039c       __imp_?OnDrawItem@CWnd@@IAEXHPAUtagDRAWITEMSTRUCT@@@Z 0047739c     mfc42:MFC42.DLL
 0002:000003a0       __imp_?messageMap@CFrameWnd@@1UAFX_MSGMAP@@B 004773a0     mfc42:MFC42.DLL
 0002:000003a4       __imp_?ExitHelpMode@CFrameWnd@@UAEXXZ 004773a4     mfc42:MFC42.DLL
 0002:000003a8       __imp_?DelayUpdateFrameMenu@CFrameWnd@@UAEXPAUHMENU__@@@Z 004773a8     mfc42:MFC42.DLL
 0002:000003ac       __imp_?GetDefaultAccelerator@CFrameWnd@@UAEPAUHACCEL__@@XZ 004773ac     mfc42:MFC42.DLL
 0002:000003b0       __imp_?OnUpdateFrameMenu@CFrameWnd@@UAEXPAUHMENU__@@@Z 004773b0     mfc42:MFC42.DLL
 0002:000003b4       __imp_?OnUpdateFrameTitle@CFrameWnd@@UAEXH@Z 004773b4     mfc42:MFC42.DLL
 0002:000003b8       __imp_?OnCreateClient@CFrameWnd@@MAEHPAUtagCREATESTRUCTA@@PAUCCreateContext@@@Z 004773b8     mfc42:MFC42.DLL
 0002:000003bc       __imp_?NegotiateBorderSpace@CFrameWnd@@UAEHIPAUtagRECT@@@Z 004773bc     mfc42:MFC42.DLL
 0002:000003c0       __imp_?GetMessageBar@CFrameWnd@@UAEPAVCWnd@@XZ 004773c0     mfc42:MFC42.DLL
 0002:000003c4       __imp_?OnSetPreviewMode@CFrameWnd@@UAEXHPAUCPrintPreviewState@@@Z 004773c4     mfc42:MFC42.DLL
 0002:000003c8       __imp_?ActivateFrame@CFrameWnd@@UAEXH@Z 004773c8     mfc42:MFC42.DLL
 0002:000003cc       __imp_?RecalcLayout@CFrameWnd@@UAEXH@Z 004773cc     mfc42:MFC42.DLL
 0002:000003d0       __imp_?GetMessageString@CFrameWnd@@UBEXIAAVCString@@@Z 004773d0     mfc42:MFC42.DLL
 0002:000003d4       __imp_?GetActiveFrame@CFrameWnd@@UAEPAV1@XZ 004773d4     mfc42:MFC42.DLL
 0002:000003d8       __imp_?GetActiveDocument@CFrameWnd@@UAEPAVCDocument@@XZ 004773d8     mfc42:MFC42.DLL
 0002:000003dc       __imp_?IsFrameWnd@CFrameWnd@@UBEHXZ 004773dc     mfc42:MFC42.DLL
 0002:000003e0       __imp_?PostNcDestroy@CFrameWnd@@MAEXXZ 004773e0     mfc42:MFC42.DLL
 0002:000003e4       __imp_?PreTranslateMessage@CFrameWnd@@UAEHPAUtagMSG@@@Z 004773e4     mfc42:MFC42.DLL
 0002:000003e8       __imp_?EndModalState@CFrameWnd@@UAEXXZ 004773e8     mfc42:MFC42.DLL
 0002:000003ec       __imp_?BeginModalState@CFrameWnd@@UAEXXZ 004773ec     mfc42:MFC42.DLL
 0002:000003f0       __imp_?OnCommand@CFrameWnd@@MAEHIJ@Z 004773f0     mfc42:MFC42.DLL
 0002:000003f4       __imp_?OnCmdMsg@CFrameWnd@@UAEHIHPAXPAUAFX_CMDHANDLERINFO@@@Z 004773f4     mfc42:MFC42.DLL
 0002:000003f8       __imp_?DrawItem@CStatusBar@@UAEXPAUtagDRAWITEMSTRUCT@@@Z 004773f8     mfc42:MFC42.DLL
 0002:000003fc       __imp_?SetStatusText@CControlBar@@UAEHH@Z 004773fc     mfc42:MFC42.DLL
 0002:00000400       __imp_?DoPaint@CControlBar@@UAEXPAVCDC@@@Z 00477400     mfc42:MFC42.DLL
 0002:00000404       __imp_?OnBarStyleChange@CStatusBar@@UAEXKK@Z 00477404     mfc42:MFC42.DLL
 0002:00000408       __imp_?IsDockBar@CControlBar@@UBEHXZ 00477408     mfc42:MFC42.DLL
 0002:0000040c       __imp_?RecalcDelayShow@CControlBar@@UAEKPAUAFX_SIZEPARENTPARAMS@@@Z 0047740c     mfc42:MFC42.DLL
 0002:00000410       __imp_?IsVisible@CControlBar@@UBEHXZ 00477410     mfc42:MFC42.DLL
 0002:00000414       __imp_?DelayShow@CControlBar@@UAEXH@Z 00477414     mfc42:MFC42.DLL
 0002:00000418       __imp_?OnUpdateCmdUI@CStatusBar@@UAEXPAVCFrameWnd@@H@Z 00477418     mfc42:MFC42.DLL
 0002:0000041c       __imp_?CalcDynamicLayout@CControlBar@@UAE?AVCSize@@HK@Z 0047741c     mfc42:MFC42.DLL
 0002:00000420       __imp_?CalcFixedLayout@CStatusBar@@UAE?AVCSize@@HH@Z 00477420     mfc42:MFC42.DLL
 0002:00000424       __imp_?OnChildNotify@CStatusBar@@MAEHIIJPAJ@Z 00477424     mfc42:MFC42.DLL
 0002:00000428       __imp_?PostNcDestroy@CControlBar@@UAEXXZ 00477428     mfc42:MFC42.DLL
 0002:0000042c       __imp_?WindowProc@CControlBar@@UAEJIIJ@Z 0047742c     mfc42:MFC42.DLL
 0002:00000430       __imp_?PreTranslateMessage@CControlBar@@UAEHPAUtagMSG@@@Z 00477430     mfc42:MFC42.DLL
 0002:00000434       __imp_?PreCreateWindow@CStatusBar@@UAEHAAUtagCREATESTRUCTA@@@Z 00477434     mfc42:MFC42.DLL
 0002:00000438       __imp_?DestroyWindow@CControlBar@@UAEHXZ 00477438     mfc42:MFC42.DLL
 0002:0000043c       __imp_??1CToolBar@@UAE@XZ  0047743c     mfc42:MFC42.DLL
 0002:00000440       __imp_??1CFrameWnd@@UAE@XZ 00477440     mfc42:MFC42.DLL
 0002:00000444       __imp_??0CDialogBar@@QAE@XZ 00477444     mfc42:MFC42.DLL
 0002:00000448       __imp_??0CReBar@@QAE@XZ    00477448     mfc42:MFC42.DLL
 0002:0000044c       __imp_??0CToolBar@@QAE@XZ  0047744c     mfc42:MFC42.DLL
 0002:00000450       __imp_??0CStatusBar@@QAE@XZ 00477450     mfc42:MFC42.DLL
 0002:00000454       __imp_??0CFrameWnd@@QAE@XZ 00477454     mfc42:MFC42.DLL
 0002:00000458       __imp_??1CStatusBar@@UAE@XZ 00477458     mfc42:MFC42.DLL
 0002:0000045c       __imp_??1CControlBar@@UAE@XZ 0047745c     mfc42:MFC42.DLL
 0002:00000460       __imp_??1CDialogBar@@UAE@XZ 00477460     mfc42:MFC42.DLL
 0002:00000464       __imp_?MoveWindow@CWnd@@QAEXHHHHH@Z 00477464     mfc42:MFC42.DLL
 0002:00000468       __imp_?SetBarStyle@CControlBar@@QAEXK@Z 00477468     mfc42:MFC42.DLL
 0002:0000046c       __imp_?Create@CStatusBar@@QAEHPAVCWnd@@KI@Z 0047746c     mfc42:MFC42.DLL
 0002:00000470       __imp_?OnCreate@CFrameWnd@@IAEHPAUtagCREATESTRUCTA@@@Z 00477470     mfc42:MFC42.DLL
 0002:00000474       __imp_?PreCreateWindow@CFrameWnd@@MAEHAAUtagCREATESTRUCTA@@@Z 00477474     mfc42:MFC42.DLL
 0002:00000478       __imp_?GetRuntimeClass@CGdiObject@@UBEPAUCRuntimeClass@@XZ 00477478     mfc42:MFC42.DLL
 0002:0000047c       __imp_?DeleteObject@CGdiObject@@QAEHXZ 0047747c     mfc42:MFC42.DLL
 0002:00000480       __imp_?LoadFrame@CFrameWnd@@UAEHIKPAVCWnd@@PAUCCreateContext@@@Z 00477480     mfc42:MFC42.DLL
 0002:00000484       __imp_?EndDialog@CDialog@@QAEXH@Z 00477484     mfc42:MFC42.DLL
 0002:00000488       __imp_?eventsinkMap@CCmdTarget@@1UAFX_EVENTSINKMAP@@B 00477488     mfc42:MFC42.DLL
 0002:0000048c       __imp_?GetRuntimeClass@CFont@@UBEPAUCRuntimeClass@@XZ 0047748c     mfc42:MFC42.DLL
 0002:00000490       __imp_?Attach@CGdiObject@@QAEHPAX@Z 00477490     mfc42:MFC42.DLL
 0002:00000494       __imp_?ItemHasChildren@CTreeCtrl@@QBEHPAU_TREEITEM@@@Z 00477494     mfc42:MFC42.DLL
 0002:00000498       __imp_??H@YG?AVCString@@ABV0@PBD@Z 00477498     mfc42:MFC42.DLL
 0002:0000049c       __imp_?HitTest@CTreeCtrl@@QBEPAU_TREEITEM@@VCPoint@@PAI@Z 0047749c     mfc42:MFC42.DLL
 0002:000004a0       __imp_?DDX_Radio@@YGXPAVCDataExchange@@HAAH@Z 004774a0     mfc42:MFC42.DLL
 0002:000004a4       __imp_?GetDlgItem@CWnd@@QBEPAV1@H@Z 004774a4     mfc42:MFC42.DLL
 0002:000004a8       __imp_?GetPathName@CFileDialog@@QBE?AVCString@@XZ 004774a8     mfc42:MFC42.DLL
 0002:000004ac       __imp_?DoModal@CFileDialog@@UAEHXZ 004774ac     mfc42:MFC42.DLL
 0002:000004b0       __imp_??0CFileDialog@@QAE@HPBD0K0PAVCWnd@@@Z 004774b0     mfc42:MFC42.DLL
 0002:000004b4       __imp_?MakeUpper@CString@@QAEXXZ 004774b4     mfc42:MFC42.DLL
 0002:000004b8       __imp_?Format@CTime@@QBE?AVCString@@PBD@Z 004774b8     mfc42:MFC42.DLL
 0002:000004bc       __imp_?WriteProfileInt@CWinApp@@QAEHPBD0H@Z 004774bc     mfc42:MFC42.DLL
 0002:000004c0       __imp_?GetProfileIntA@CWinApp@@QAEIPBD0H@Z 004774c0     mfc42:MFC42.DLL
 0002:000004c4       __imp_?ReleaseBuffer@CString@@QAEXH@Z 004774c4     mfc42:MFC42.DLL
 0002:000004c8       __imp_?GetBuffer@CString@@QAEPADH@Z 004774c8     mfc42:MFC42.DLL
 0002:000004cc       __imp_??H@YG?AVCString@@ABV0@0@Z 004774cc     mfc42:MFC42.DLL
 0002:000004d0       __imp_?Mid@CString@@QBE?AV1@HH@Z 004774d0     mfc42:MFC42.DLL
 0002:000004d4       __imp_?Mid@CString@@QBE?AV1@H@Z 004774d4     mfc42:MFC42.DLL
 0002:000004d8       __imp_?ReverseFind@CString@@QBEHD@Z 004774d8     mfc42:MFC42.DLL
 0002:000004dc       __imp_?DestructElements@@YGXPAVCString@@H@Z 004774dc     mfc42:MFC42.DLL
 0002:000004e0       __imp_??0CTime@@QAE@HHHHHHH@Z 004774e0     mfc42:MFC42.DLL
 0002:000004e4       __imp_?Read@CArchive@@QAEIPAXI@Z 004774e4     mfc42:MFC42.DLL
 0002:000004e8       __imp_?Write@CArchive@@QAEXPBXI@Z 004774e8     mfc42:MFC42.DLL
 0002:000004ec       __imp_?ReadCount@CArchive@@QAEKXZ 004774ec     mfc42:MFC42.DLL
 0002:000004f0       __imp_?WriteCount@CArchive@@QAEXK@Z 004774f0     mfc42:MFC42.DLL
 0002:000004f4       __imp_?SerializeElements@@YGXAAVCArchive@@PAVCString@@H@Z 004774f4     mfc42:MFC42.DLL
 0002:000004f8       __imp_?ConstructElements@@YGXPAVCString@@H@Z 004774f8     mfc42:MFC42.DLL
 0002:000004fc       __imp_?SetCheck@CTreeCtrl@@QAEHPAU_TREEITEM@@H@Z 004774fc     mfc42:MFC42.DLL
 0002:00000500       __imp_?ModifyStyle@CWnd@@QAEHKKI@Z 00477500     mfc42:MFC42.DLL
 0002:00000504       __imp_?GetCheck@CTreeCtrl@@QBEHPAU_TREEITEM@@@Z 00477504     mfc42:MFC42.DLL
 0002:00000508       __imp_?DDX_LBString@@YGXPAVCDataExchange@@HAAVCString@@@Z 00477508     mfc42:MFC42.DLL
 0002:0000050c       __imp_?Find@CString@@QBEHPBD@Z 0047750c     mfc42:MFC42.DLL
 0002:00000510       __imp_?TrimRight@CString@@QAEXXZ 00477510     mfc42:MFC42.DLL
 0002:00000514       __imp_?messageMap@CWinApp@@1UAFX_MSGMAP@@B 00477514     mfc42:MFC42.DLL
 0002:00000518       __imp_?OnDDECommand@CWinApp@@UAEHPAD@Z 00477518     mfc42:MFC42.DLL
 0002:0000051c       __imp_?DoWaitCursor@CWinApp@@UAEXH@Z 0047751c     mfc42:MFC42.DLL
 0002:00000520       __imp_?DoMessageBox@CWinApp@@UAEHPBDII@Z 00477520     mfc42:MFC42.DLL
 0002:00000524       __imp_?SaveAllModified@CWinApp@@UAEHXZ 00477524     mfc42:MFC42.DLL
 0002:00000528       __imp_?InitApplication@CWinApp@@UAEHXZ 00477528     mfc42:MFC42.DLL
 0002:0000052c       __imp_?AddToRecentFileList@CWinApp@@UAEXPBD@Z 0047752c     mfc42:MFC42.DLL
 0002:00000530       __imp_?OpenDocumentFile@CWinApp@@UAEPAVCDocument@@PBD@Z 00477530     mfc42:MFC42.DLL
 0002:00000534       __imp_?Delete@CWinThread@@UAEXXZ 00477534     mfc42:MFC42.DLL
 0002:00000538       __imp_?GetMainWnd@CWinThread@@UAEPAVCWnd@@XZ 00477538     mfc42:MFC42.DLL
 0002:0000053c       __imp_?ProcessMessageFilter@CWinThread@@UAEHHPAUtagMSG@@@Z 0047753c     mfc42:MFC42.DLL
 0002:00000540       __imp_?ProcessWndProcException@CWinApp@@UAEJPAVCException@@PBUtagMSG@@@Z 00477540     mfc42:MFC42.DLL
 0002:00000544       __imp_?IsIdleMessage@CWinThread@@UAEHPAUtagMSG@@@Z 00477544     mfc42:MFC42.DLL
 0002:00000548       __imp_?OnIdle@CWinApp@@UAEHJ@Z 00477548     mfc42:MFC42.DLL
 0002:0000054c       __imp_?PumpMessage@CWinThread@@UAEHXZ 0047754c     mfc42:MFC42.DLL
 0002:00000550       __imp_?PreTranslateMessage@CWinThread@@UAEHPAUtagMSG@@@Z 00477550     mfc42:MFC42.DLL
 0002:00000554       __imp_?Run@CWinApp@@UAEHXZ 00477554     mfc42:MFC42.DLL
 0002:00000558       __imp_?OnFinalRelease@CCmdTarget@@UAEXXZ 00477558     mfc42:MFC42.DLL
 0002:0000055c       __imp_?GetRuntimeClass@CWinApp@@UBEPAUCRuntimeClass@@XZ 0047755c     mfc42:MFC42.DLL
 0002:00000560       __imp_??1CWinApp@@UAE@XZ   00477560     mfc42:MFC42.DLL
 0002:00000564       __imp_??0CWinApp@@QAE@PBD@Z 00477564     mfc42:MFC42.DLL
 0002:00000568       __imp_?AfxGetThread@@YGPAVCWinThread@@XZ 00477568     mfc42:MFC42.DLL
 0002:0000056c       __imp_??1CCommandLineInfo@@UAE@XZ 0047756c     mfc42:MFC42.DLL
 0002:00000570       __imp_?ProcessShellCommand@CWinApp@@QAEHAAVCCommandLineInfo@@@Z 00477570     mfc42:MFC42.DLL
 0002:00000574       __imp_?ParseCommandLine@CWinApp@@QAEXAAVCCommandLineInfo@@@Z 00477574     mfc42:MFC42.DLL
 0002:00000578       __imp_??0CCommandLineInfo@@QAE@XZ 00477578     mfc42:MFC42.DLL
 0002:0000057c       __imp_?AddDocTemplate@CWinApp@@QAEXPAVCDocTemplate@@@Z 0047757c     mfc42:MFC42.DLL
 0002:00000580       __imp_??0CSingleDocTemplate@@QAE@IPAUCRuntimeClass@@00@Z 00477580     mfc42:MFC42.DLL
 0002:00000584       __imp_?LoadStdProfileSettings@CWinApp@@IAEXI@Z 00477584     mfc42:MFC42.DLL
 0002:00000588       __imp_?SetRegistryKey@CWinApp@@IAEXPBD@Z 00477588     mfc42:MFC42.DLL
 0002:0000058c       __imp_?Enable3dControls@CWinApp@@IAEHXZ 0047758c     mfc42:MFC42.DLL
 0002:00000590       __imp_?AfxEnableControlContainer@@YAXPAVCOccManager@@@Z 00477590     mfc42:MFC42.DLL
 0002:00000594       __imp_?Delete@CException@@QAEXXZ 00477594     mfc42:MFC42.DLL
 0002:00000598       __imp_??1CFile@@UAE@XZ     00477598     mfc42:MFC42.DLL
 0002:0000059c       __imp_?Close@CFile@@UAEXXZ 0047759c     mfc42:MFC42.DLL
 0002:000005a0       __imp_?Read@CFile@@UAEIPAXI@Z 004775a0     mfc42:MFC42.DLL
 0002:000005a4       __imp_??0CFile@@QAE@PBDI@Z 004775a4     mfc42:MFC42.DLL
 0002:000005a8       __imp_?ExitInstance@CWinApp@@UAEHXZ 004775a8     mfc42:MFC42.DLL
 0002:000005ac       __imp_?Find@CString@@QBEHD@Z 004775ac     mfc42:MFC42.DLL
 0002:000005b0       __imp_?classCDocument@CDocument@@2UCRuntimeClass@@B 004775b0     mfc42:MFC42.DLL
 0002:000005b4       __imp_?messageMap@CDocument@@1UAFX_MSGMAP@@B 004775b4     mfc42:MFC42.DLL
 0002:000005b8       __imp_?OnIdle@CDocument@@UAEXXZ 004775b8     mfc42:MFC42.DLL
 0002:000005bc       __imp_?GetDefaultAccelerator@CDocument@@UAEPAUHACCEL__@@XZ 004775bc     mfc42:MFC42.DLL
 0002:000005c0       __imp_?GetDefaultMenu@CDocument@@UAEPAUHMENU__@@XZ 004775c0     mfc42:MFC42.DLL
 0002:000005c4       __imp_?UpdateFrameCounts@CDocument@@UAEXXZ 004775c4     mfc42:MFC42.DLL
 0002:000005c8       __imp_?GetConnectionMap@CCmdTarget@@MBEPBUAFX_CONNECTIONMAP@@XZ 004775c8     mfc42:MFC42.DLL
 0002:000005cc       __imp_?DoSave@CDocument@@UAEHPBDH@Z 004775cc     mfc42:MFC42.DLL
 0002:000005d0       __imp_?PreCloseFrame@CDocument@@UAEXPAVCFrameWnd@@@Z 004775d0     mfc42:MFC42.DLL
 0002:000005d4       __imp_?SaveModified@CDocument@@UAEHXZ 004775d4     mfc42:MFC42.DLL
 0002:000005d8       __imp_?CanCloseFrame@CDocument@@UAEHPAVCFrameWnd@@@Z 004775d8     mfc42:MFC42.DLL
 0002:000005dc       __imp_?ReleaseFile@CDocument@@UAEXPAVCFile@@H@Z 004775dc     mfc42:MFC42.DLL
 0002:000005e0       __imp_?GetFile@CDocument@@UAEPAVCFile@@PBDIPAVCFileException@@@Z 004775e0     mfc42:MFC42.DLL
 0002:000005e4       __imp_?ReportSaveLoadException@CDocument@@UAEXPBDPAVCException@@HI@Z 004775e4     mfc42:MFC42.DLL
 0002:000005e8       __imp_?OnCloseDocument@CDocument@@UAEXXZ 004775e8     mfc42:MFC42.DLL
 0002:000005ec       __imp_?OnSaveDocument@CDocument@@UAEHPBD@Z 004775ec     mfc42:MFC42.DLL
 0002:000005f0       __imp_?OnOpenDocument@CDocument@@UAEHPBD@Z 004775f0     mfc42:MFC42.DLL
 0002:000005f4       __imp_?DeleteContents@CDocument@@UAEXXZ 004775f4     mfc42:MFC42.DLL
 0002:000005f8       __imp_?OnChangedViewList@CDocument@@UAEXXZ 004775f8     mfc42:MFC42.DLL
 0002:000005fc       __imp_?GetNextView@CDocument@@UBEPAVCView@@AAPAU__POSITION@@@Z 004775fc     mfc42:MFC42.DLL
 0002:00000600       __imp_?GetFirstViewPosition@CDocument@@UBEPAU__POSITION@@XZ 00477600     mfc42:MFC42.DLL
 0002:00000604       __imp_?SetPathName@CDocument@@UAEXPBDH@Z 00477604     mfc42:MFC42.DLL
 0002:00000608       __imp_?SetTitle@CDocument@@UAEXPBD@Z 00477608     mfc42:MFC42.DLL
 0002:0000060c       __imp_?OnFinalRelease@CDocument@@UAEXXZ 0047760c     mfc42:MFC42.DLL
 0002:00000610       __imp_?OnCmdMsg@CDocument@@UAEHIHPAXPAUAFX_CMDHANDLERINFO@@@Z 00477610     mfc42:MFC42.DLL
 0002:00000614       __imp_??0CDocument@@QAE@XZ 00477614     mfc42:MFC42.DLL
 0002:00000618       __imp_??1CDocument@@UAE@XZ 00477618     mfc42:MFC42.DLL
 0002:0000061c       __imp_?OnNewDocument@CDocument@@UAEHXZ 0047761c     mfc42:MFC42.DLL
 0002:00000620       __imp_?OnFilePrintPreview@CView@@IAEXXZ 00477620     mfc42:MFC42.DLL
 0002:00000624       __imp_?OnFilePrint@CView@@IAEXXZ 00477624     mfc42:MFC42.DLL
 0002:00000628       __imp_?classCView@CView@@2UCRuntimeClass@@B 00477628     mfc42:MFC42.DLL
 0002:0000062c       __imp_?messageMap@CView@@1UAFX_MSGMAP@@B 0047762c     mfc42:MFC42.DLL
 0002:00000630       __imp_?OnEndPrintPreview@CView@@MAEXPAVCDC@@PAUCPrintInfo@@UtagPOINT@@PAVCPreviewView@@@Z 00477630     mfc42:MFC42.DLL
 0002:00000634       __imp_?OnPrint@CView@@MAEXPAVCDC@@PAUCPrintInfo@@@Z 00477634     mfc42:MFC42.DLL
 0002:00000638       __imp_?OnUpdate@CView@@MAEXPAV1@JPAVCObject@@@Z 00477638     mfc42:MFC42.DLL
 0002:0000063c       __imp_?OnActivateFrame@CView@@MAEXIPAVCFrameWnd@@@Z 0047763c     mfc42:MFC42.DLL
 0002:00000640       __imp_?OnActivateView@CView@@MAEXHPAV1@0@Z 00477640     mfc42:MFC42.DLL
 0002:00000644       __imp_?OnPrepareDC@CView@@UAEXPAVCDC@@PAUCPrintInfo@@@Z 00477644     mfc42:MFC42.DLL
 0002:00000648       __imp_?OnDragScroll@CView@@UAEKKVCPoint@@@Z 00477648     mfc42:MFC42.DLL
 0002:0000064c       __imp_?OnDropEx@CView@@UAEKPAVCOleDataObject@@KKVCPoint@@@Z 0047764c     mfc42:MFC42.DLL
 0002:00000650       __imp_?OnDrop@CView@@UAEHPAVCOleDataObject@@KVCPoint@@@Z 00477650     mfc42:MFC42.DLL
 0002:00000654       __imp_?OnDragLeave@CView@@UAEXXZ 00477654     mfc42:MFC42.DLL
 0002:00000658       __imp_?OnDragOver@CView@@UAEKPAVCOleDataObject@@KVCPoint@@@Z 00477658     mfc42:MFC42.DLL
 0002:0000065c       __imp_?OnDragEnter@CView@@UAEKPAVCOleDataObject@@KVCPoint@@@Z 0047765c     mfc42:MFC42.DLL
 0002:00000660       __imp_?OnScrollBy@CView@@UAEHVCSize@@H@Z 00477660     mfc42:MFC42.DLL
 0002:00000664       __imp_?OnScroll@CView@@UAEHIIH@Z 00477664     mfc42:MFC42.DLL
 0002:00000668       __imp_?IsSelected@CView@@UBEHPBVCObject@@@Z 00477668     mfc42:MFC42.DLL
 0002:0000066c       __imp_?PostNcDestroy@CView@@MAEXXZ 0047766c     mfc42:MFC42.DLL
 0002:00000670       __imp_?GetScrollBarCtrl@CView@@UBEPAVCScrollBar@@H@Z 00477670     mfc42:MFC42.DLL
 0002:00000674       __imp_?CalcWindowRect@CView@@UAEXPAUtagRECT@@I@Z 00477674     mfc42:MFC42.DLL
 0002:00000678       __imp_?OnCmdMsg@CView@@UAEHIHPAXPAUAFX_CMDHANDLERINFO@@@Z 00477678     mfc42:MFC42.DLL
 0002:0000067c       __imp_??0CView@@IAE@XZ     0047767c     mfc42:MFC42.DLL
 0002:00000680       __imp_??1CView@@UAE@XZ     00477680     mfc42:MFC42.DLL
 0002:00000684       __imp_?SetOccDialogInfo@CWnd@@MAEHPAU_AFX_OCC_DIALOG_INFO@@@Z 00477684     mfc42:MFC42.DLL
 0002:00000688       __imp_?DoPreparePrinting@CView@@QAEHPAUCPrintInfo@@@Z 00477688     mfc42:MFC42.DLL
 0002:0000068c       __imp_??1CWindowDC@@UAE@XZ 0047768c     mfc42:MFC42.DLL
 0002:00000690       __imp_??0CWindowDC@@QAE@PAVCWnd@@@Z 00477690     mfc42:MFC42.DLL
 0002:00000694       __imp_?OnInitialUpdate@CView@@UAEXXZ 00477694     mfc42:MFC42.DLL
 0002:00000698       __imp_?GetProperty@COleDispatchDriver@@QBEXJGPAX@Z 00477698     mfc42:MFC42.DLL
 0002:0000069c       __imp_?SetProperty@COleDispatchDriver@@QAAXJGZZ 0047769c     mfc42:MFC42.DLL
 0002:000006a0       __imp_?CreateControl@CWnd@@QAEHABU_GUID@@PBDKABUtagRECT@@PAV1@IPAVCFile@@HPAG@Z 004776a0     mfc42:MFC42.DLL
 0002:000006a4       __imp_??1CWnd@@UAE@XZ      004776a4     mfc42:MFC42.DLL
 0002:000006a8       __imp_?classCWnd@CWnd@@2UCRuntimeClass@@B 004776a8     mfc42:MFC42.DLL
 0002:000006ac       __imp_?InvokeHelper@CWnd@@QAAXJGGPAXPBEZZ 004776ac     mfc42:MFC42.DLL
 0002:000006b0       __imp_??0COleDispatchDriver@@QAE@PAUIDispatch@@H@Z 004776b0     mfc42:MFC42.DLL
 0002:000006b4       __imp_?InvokeHelper@COleDispatchDriver@@QAAXJGGPAXPBEZZ 004776b4     mfc42:MFC42.DLL
 0002:000006b8       __imp_?GetRuntimeClass@CBrush@@UBEPAUCRuntimeClass@@XZ 004776b8     mfc42:MFC42.DLL
 0002:000006bc       __imp_?messageMap@CWnd@@1UAFX_MSGMAP@@B 004776bc     mfc42:MFC42.DLL
 0002:000006c0       __imp_?GetWindowTextA@CWnd@@QBEXAAVCString@@@Z 004776c0     mfc42:MFC42.DLL
 0002:000006c4       __imp_?TrimLeft@CString@@QAEXXZ 004776c4     mfc42:MFC42.DLL
 0002:000006c8       __imp_?FromHandle@CDC@@SGPAV1@PAUHDC__@@@Z 004776c8     mfc42:MFC42.DLL
 0002:000006cc       __imp_??0CString@@QAE@DH@Z 004776cc     mfc42:MFC42.DLL
 0002:000006d0       __imp_??YCString@@QAEABV0@D@Z 004776d0     mfc42:MFC42.DLL
 0002:000006d4       __imp_?FindOneOf@CString@@QBEHPBD@Z 004776d4     mfc42:MFC42.DLL
 0002:000006d8       __imp_?SetAt@CString@@QAEXHD@Z 004776d8     mfc42:MFC42.DLL
 0002:000006dc       __imp_?Insert@CString@@QAEHHD@Z 004776dc     mfc42:MFC42.DLL
 0002:000006e0       __imp_?TrimRight@CString@@QAEXD@Z 004776e0     mfc42:MFC42.DLL
 0002:000006e4       __imp_?Replace@CString@@QAEHDD@Z 004776e4     mfc42:MFC42.DLL
 0002:000006e8       __imp_??H@YG?AVCString@@ABV0@D@Z 004776e8     mfc42:MFC42.DLL
 0002:000006ec       __imp_??4CString@@QAEABV0@D@Z 004776ec     mfc42:MFC42.DLL
 0002:000006f0       __imp_?SetFocus@CWnd@@QAEPAV1@XZ 004776f0     mfc42:MFC42.DLL
 0002:000006f4       __imp_?TrimLeft@CString@@QAEXD@Z 004776f4     mfc42:MFC42.DLL
 0002:000006f8       __imp_?Delete@CString@@QAEHHH@Z 004776f8     mfc42:MFC42.DLL
 0002:000006fc       __imp_?IsWindowEnabled@CWnd@@QBEHXZ 004776fc     mfc42:MFC42.DLL
 0002:00000700       __imp_?AfxMessageBox@@YGHPBDII@Z 00477700     mfc42:MFC42.DLL
 0002:00000704       __imp_?SetDateTime@COleDateTime@@QAEHHHHHHH@Z 00477704     mfc42:MFC42.DLL
 0002:00000708       __imp_?GetYear@COleDateTime@@QBEHXZ 00477708     mfc42:MFC42.DLL
 0002:0000070c       __imp_?GetMonth@COleDateTime@@QBEHXZ 0047770c     mfc42:MFC42.DLL
 0002:00000710       __imp_?GetDay@COleDateTime@@QBEHXZ 00477710     mfc42:MFC42.DLL
 0002:00000714       __imp_?GetTickCount@COleDateTime@@SG?AV1@XZ 00477714     mfc42:MFC42.DLL
 0002:00000718       __imp_??NCOleDateTime@@QBEHABV0@@Z 00477718     mfc42:MFC42.DLL
 0002:0000071c       __imp_??PCOleDateTime@@QBEHABV0@@Z 0047771c     mfc42:MFC42.DLL
 0002:00000720       __imp_??H@YG?AVCString@@DABV0@@Z 00477720     mfc42:MFC42.DLL
 0002:00000724       __imp_?GetHour@COleDateTime@@QBEHXZ 00477724     mfc42:MFC42.DLL
 0002:00000728       __imp_?GetMinute@COleDateTime@@QBEHXZ 00477728     mfc42:MFC42.DLL
 0002:0000072c       __imp_?GetSecond@COleDateTime@@QBEHXZ 0047772c     mfc42:MFC42.DLL
 0002:00000730       __imp_??OCOleDateTime@@QBEHABV0@@Z 00477730     mfc42:MFC42.DLL
 0002:00000734       __imp_??MCOleDateTime@@QBEHABV0@@Z 00477734     mfc42:MFC42.DLL
 0002:00000738       __imp_?classCButton@CButton@@2UCRuntimeClass@@B 00477738     mfc42:MFC42.DLL
 0002:0000073c       __imp_??1CClientDC@@UAE@XZ 0047773c     mfc42:MFC42.DLL
 0002:00000740       __imp_?Create@CButton@@QAEHPBDKABUtagRECT@@PAVCWnd@@I@Z 00477740     mfc42:MFC42.DLL
 0002:00000744       __imp_?SelectObject@CDC@@UAEPAVCFont@@PAV2@@Z 00477744     mfc42:MFC42.DLL
 0002:00000748       __imp_?FromHandle@CGdiObject@@SGPAV1@PAX@Z 00477748     mfc42:MFC42.DLL
 0002:0000074c       __imp_??0CClientDC@@QAE@PAVCWnd@@@Z 0047774c     mfc42:MFC42.DLL
 0002:00000750       __imp_?IsKindOf@CObject@@QBEHPBUCRuntimeClass@@@Z 00477750     mfc42:MFC42.DLL
 0002:00000754       __imp_?GetMessageMap@CListCtrl@@MBEPBUAFX_MSGMAP@@XZ 00477754     mfc42:MFC42.DLL
 0002:00000758       __imp_?DrawItem@CListCtrl@@UAEXPAUtagDRAWITEMSTRUCT@@@Z 00477758     mfc42:MFC42.DLL
 0002:0000075c       __imp_?OnChildNotify@CListCtrl@@MAEHIIJPAJ@Z 0047775c     mfc42:MFC42.DLL
 0002:00000760       __imp_?GetRuntimeClass@CListCtrl@@UBEPAUCRuntimeClass@@XZ 00477760     mfc42:MFC42.DLL
 0002:00000764       __imp_??1CListCtrl@@UAE@XZ 00477764     mfc42:MFC42.DLL
 0002:00000768       __imp_?Empty@CString@@QAEXXZ 00477768     mfc42:MFC42.DLL
 0002:0000076c       __imp_?FreeDataChain@CPlex@@QAEXXZ 0047776c     mfc42:MFC42.DLL
 0002:00000770       __imp_?messageMap@CListCtrl@@1UAFX_MSGMAP@@B 00477770     mfc42:MFC42.DLL
 0002:00000774       __imp_?OnHScroll@CWnd@@IAEXIIPAVCScrollBar@@@Z 00477774     mfc42:MFC42.DLL
 0002:00000778       __imp_?OnVScroll@CWnd@@IAEXIIPAVCScrollBar@@@Z 00477778     mfc42:MFC42.DLL
 0002:0000077c       __imp_??1CStringList@@UAE@XZ 0047777c     mfc42:MFC42.DLL
 0002:00000780       __imp_??0CStringList@@QAE@H@Z 00477780     mfc42:MFC42.DLL
 0002:00000784       __imp_?GetItemRect@CListCtrl@@QBEHHPAUtagRECT@@I@Z 00477784     mfc42:MFC42.DLL
 0002:00000788       __imp_?HitTest@CListCtrl@@QBEHVCPoint@@PAI@Z 00477788     mfc42:MFC42.DLL
 0002:0000078c       __imp_?Create@CPlex@@SGPAU1@AAPAU1@II@Z 0047778c     mfc42:MFC42.DLL
 0002:00000790       __imp_?GetDlgCtrlID@CWnd@@QBEHXZ 00477790     mfc42:MFC42.DLL
 0002:00000794       __imp_?GetRuntimeClass@CBitmap@@UBEPAUCRuntimeClass@@XZ 00477794     mfc42:MFC42.DLL
 0002:00000798       __imp_??1CDC@@UAE@XZ       00477798     mfc42:MFC42.DLL
 0002:0000079c       __imp_?LineTo@CDC@@QAEHHH@Z 0047779c     mfc42:MFC42.DLL
 0002:000007a0       __imp_?MoveTo@CDC@@QAE?AVCPoint@@HH@Z 004777a0     mfc42:MFC42.DLL
 0002:000007a4       __imp_?SelectObject@CDC@@QAEPAVCPen@@PAV2@@Z 004777a4     mfc42:MFC42.DLL
 0002:000007a8       __imp_??0CPen@@QAE@HHK@Z   004777a8     mfc42:MFC42.DLL
 0002:000007ac       __imp_?SetBkMode@CDC@@QAEHH@Z 004777ac     mfc42:MFC42.DLL
 0002:000007b0       __imp_?DrawIndirect@CImageList@@QAEHPAVCDC@@HUtagPOINT@@UtagSIZE@@1IKKK@Z 004777b0     mfc42:MFC42.DLL
 0002:000007b4       __imp_??0CBrush@@QAE@K@Z   004777b4     mfc42:MFC42.DLL
 0002:000007b8       __imp_??0CDC@@QAE@XZ       004777b8     mfc42:MFC42.DLL
 0002:000007bc       __imp_?Create@CImageList@@QAEHIHHK@Z 004777bc     mfc42:MFC42.DLL
 0002:000007c0       __imp_?OnSysColorChange@CWnd@@IAEXXZ 004777c0     mfc42:MFC42.DLL
 0002:000007c4       __imp_?GetClipBox@CDC@@UBEHPAUtagRECT@@@Z 004777c4     mfc42:MFC42.DLL
 0002:000007c8       __imp_?ScaleWindowExt@CDC@@UAE?AVCSize@@HHHH@Z 004777c8     mfc42:MFC42.DLL
 0002:000007cc       __imp_?SetWindowExt@CDC@@UAE?AVCSize@@HH@Z 004777cc     mfc42:MFC42.DLL
 0002:000007d0       __imp_?ScaleViewportExt@CDC@@UAE?AVCSize@@HHHH@Z 004777d0     mfc42:MFC42.DLL
 0002:000007d4       __imp_?SetViewportExt@CDC@@UAE?AVCSize@@HH@Z 004777d4     mfc42:MFC42.DLL
 0002:000007d8       __imp_?OffsetViewportOrg@CDC@@UAE?AVCPoint@@HH@Z 004777d8     mfc42:MFC42.DLL
 0002:000007dc       __imp_?SetViewportOrg@CDC@@UAE?AVCPoint@@HH@Z 004777dc     mfc42:MFC42.DLL
 0002:000007e0       __imp_?SetMapMode@CDC@@UAEHH@Z 004777e0     mfc42:MFC42.DLL
 0002:000007e4       __imp_?SetTextColor@CDC@@UAEKK@Z 004777e4     mfc42:MFC42.DLL
 0002:000007e8       __imp_?AfxWinMain@@YGHPAUHINSTANCE__@@0PADH@Z 004777e8     mfc42:MFC42.DLL
 0002:000007ec       __imp_?SelectStockObject@CDC@@UAEPAVCGdiObject@@H@Z 004777ec     mfc42:MFC42.DLL
 0002:000007f0       __imp_?RestoreDC@CDC@@UAEHH@Z 004777f0     mfc42:MFC42.DLL
 0002:000007f4       __imp_?SaveDC@CDC@@UAEHXZ  004777f4     mfc42:MFC42.DLL
 0002:000007f8       __imp_?ReleaseOutputDC@CDC@@UAEXXZ 004777f8     mfc42:MFC42.DLL
 0002:000007fc       __imp_?ReleaseAttribDC@CDC@@UAEXXZ 004777fc     mfc42:MFC42.DLL
 0002:00000800       __imp_?SetOutputDC@CDC@@UAEXPAUHDC__@@@Z 00477800     mfc42:MFC42.DLL
 0002:00000804       __imp_?SetAttribDC@CDC@@UAEXPAUHDC__@@@Z 00477804     mfc42:MFC42.DLL
 0002:00000808       __imp_?GetRuntimeClass@CDC@@UBEPAUCRuntimeClass@@XZ 00477808     mfc42:MFC42.DLL
 0002:0000080c       __imp_?ExcludeClipRect@CDC@@QAEHHHHH@Z 0047780c     mfc42:MFC42.DLL
 0002:00000810       __imp_?Attach@CDC@@QAEHPAUHDC__@@@Z 00477810     mfc42:MFC42.DLL
 0002:00000814       __imp_?GetRuntimeClass@CPen@@UBEPAUCRuntimeClass@@XZ 00477814     mfc42:MFC42.DLL
 0002:00000818       __imp_?Create@CComboBox@@QAEHKABUtagRECT@@PAVCWnd@@I@Z 00477818     mfc42:MFC42.DLL
 0002:0000081c       __imp_?AddTail@CStringList@@QAEXPAV1@@Z 0047781c     mfc42:MFC42.DLL
 0002:00000820       __imp_?RemoveAll@CStringList@@QAEXXZ 00477820     mfc42:MFC42.DLL
 0002:00000824       __imp_?Create@CEdit@@QAEHKABUtagRECT@@PAVCWnd@@I@Z 00477824     mfc42:MFC42.DLL
 0002:00000828       __imp_?Create@CFrameWnd@@QAEHPBD0KABUtagRECT@@PAVCWnd@@0KPAUCCreateContext@@@Z 00477828     mfc42:MFC42.DLL
 0002:0000082c       __imp_?OnClose@CFrameWnd@@IAEXXZ 0047782c     mfc42:MFC42.DLL
 0002:00000830       __imp_?Create@CStatic@@QAEHPBDKABUtagRECT@@PAVCWnd@@I@Z 00477830     mfc42:MFC42.DLL
 0002:00000834       __imp_?GetRuntimeClass@CWnd@@UBEPAUCRuntimeClass@@XZ 00477834     mfc42:MFC42.DLL
 0002:00000838       __imp_?FillSolidRect@CDC@@QAEXPBUtagRECT@@K@Z 00477838     mfc42:MFC42.DLL
 0002:0000083c       __imp_?IntersectClipRect@CDC@@QAEHPBUtagRECT@@@Z 0047783c     mfc42:MFC42.DLL
 0002:00000840       __imp_?SetTextAlign@CDC@@QAEII@Z 00477840     mfc42:MFC42.DLL
 0002:00000844       __imp_?InflateRect@CRect@@QAEXHHHH@Z 00477844     mfc42:MFC42.DLL
 0002:00000848       __imp_?DeflateRect@CRect@@QAEXHHHH@Z 00477848     mfc42:MFC42.DLL
 0002:0000084c       __imp_??1CPaintDC@@UAE@XZ  0047784c     mfc42:MFC42.DLL
 0002:00000850       __imp_?SetWindowOrg@CDC@@QAE?AVCPoint@@HH@Z 00477850     mfc42:MFC42.DLL
 0002:00000854       __imp_?SelectGdiObject@CDC@@KGPAVCGdiObject@@PAUHDC__@@PAX@Z 00477854     mfc42:MFC42.DLL
 0002:00000858       __imp_??0CPaintDC@@QAE@PAVCWnd@@@Z 00477858     mfc42:MFC42.DLL
 0002:0000085c       __imp_?Detach@CDC@@QAEPAUHDC__@@XZ 0047785c     mfc42:MFC42.DLL
 0002:00000860       __imp_?DoModal@CPrintDialog@@UAEHXZ 00477860     mfc42:MFC42.DLL
 0002:00000864       __imp_??0CPrintDialog@@QAE@HKPAVCWnd@@@Z 00477864     mfc42:MFC42.DLL
 0002:00000868       __imp_?Right@CString@@QBE?AV1@H@Z 00477868     mfc42:MFC42.DLL
 0002:0000086c       __imp_?classCMDIChildWnd@CMDIChildWnd@@2UCRuntimeClass@@B 0047786c     mfc42:MFC42.DLL
 0002:00000870       __imp_?GetParentFrame@CWnd@@QBEPAVCFrameWnd@@XZ 00477870     mfc42:MFC42.DLL
 0002:00000874       __imp_?MDIGetActive@CMDIFrameWnd@@QBEPAVCMDIChildWnd@@PAH@Z 00477874     mfc42:MFC42.DLL
 0002:00000878       __imp_?classCMDIFrameWnd@CMDIFrameWnd@@2UCRuntimeClass@@B 00477878     mfc42:MFC42.DLL
 0002:0000087c       __imp_?CreateEx@CWnd@@QAEHKPBD0KHHHHPAUHWND__@@PAUHMENU__@@PAX@Z 0047787c     mfc42:MFC42.DLL
 0002:00000880       __imp_?AfxGetAfxWndProc@@YGP6GJPAUHWND__@@IIJ@ZXZ 00477880     mfc42:MFC42.DLL
 0002:00000884       __imp_?CreatePointFont@CFont@@QAEHHPBDPAVCDC@@@Z 00477884     mfc42:MFC42.DLL
 0002:00000888       __imp_?DeleteDC@CDC@@QAEHXZ 00477888     mfc42:MFC42.DLL
 0002:0000088c       __imp_?SetPaneInfo@CStatusBar@@QAEXHIIH@Z 0047788c     mfc42:MFC42.DLL
 0002:00000890       __imp_?GetPaneInfo@CStatusBar@@QBEXHAAI0AAH@Z 00477890     mfc42:MFC42.DLL
 0002:00000894       __imp_?SetIndicators@CStatusBar@@QAEHPBIH@Z 00477894     mfc42:MFC42.DLL
 0002:00000898       __imp_?messageMap@CStatusBar@@1UAFX_MSGMAP@@B 00477898     mfc42:MFC42.DLL
 0002:0000089c       __imp_?classCStatusBar@CStatusBar@@2UCRuntimeClass@@B 0047789c     mfc42:MFC42.DLL
 0002:000008a0       __imp_?GetItemRect@CStatusBar@@QBEXHPAUtagRECT@@@Z 004778a0     mfc42:MFC42.DLL
 0002:000008a4       __imp_?GetItemState@CTreeCtrl@@QBEIPAU_TREEITEM@@I@Z 004778a4     mfc42:MFC42.DLL
 0002:000008a8       __imp_?Find@CString@@QBEHDH@Z 004778a8     mfc42:MFC42.DLL
 0002:000008ac       __imp_?GetProfileBinary@CWinApp@@QAEHPBD0PAPAEPAI@Z 004778ac     mfc42:MFC42.DLL
 0002:000008b0       __imp_?WriteProfileBinary@CWinApp@@QAEHPBD0PAEI@Z 004778b0     mfc42:MFC42.DLL
 0002:000008b4       __imp_?GetHeaderCtrl@CListCtrl@@QAEPAVCHeaderCtrl@@XZ 004778b4     mfc42:MFC42.DLL
 0002:000008b8       __imp_?classCControlBar@CControlBar@@2UCRuntimeClass@@B 004778b8     mfc42:MFC42.DLL
 0002:000008bc       __imp_?classCTreeCtrl@CTreeCtrl@@2UCRuntimeClass@@B 004778bc     mfc42:MFC42.DLL
 0002:000008c0       __imp_?messageMap@CTreeCtrl@@1UAFX_MSGMAP@@B 004778c0     mfc42:MFC42.DLL
 0002:000008c4       __imp_?GetRuntimeClass@CRgn@@UBEPAUCRuntimeClass@@XZ 004778c4     mfc42:MFC42.DLL
 0002:000008c8       __imp_?GetItemRect@CTreeCtrl@@QBEHPAU_TREEITEM@@PAUtagRECT@@H@Z 004778c8     mfc42:MFC42.DLL
 0002:000008cc       __imp_?SelectClipRgn@CDC@@QAEHPAVCRgn@@@Z 004778cc     mfc42:MFC42.DLL
 0002:000008d0       __imp_?GetRuntimeClass@CScrollBar@@UBEPAUCRuntimeClass@@XZ 004778d0     mfc42:MFC42.DLL
 0002:000008d4       __imp_??1CScrollBar@@UAE@XZ 004778d4     mfc42:MFC42.DLL
 0002:000008d8       __imp_?SetScrollInfo@CWnd@@QAEHHPAUtagSCROLLINFO@@H@Z 004778d8     mfc42:MFC42.DLL
 0002:000008dc       __imp_?GetScrollInfo@CWnd@@QAEHHPAUtagSCROLLINFO@@I@Z 004778dc     mfc42:MFC42.DLL
 0002:000008e0       __imp_?Create@CScrollBar@@QAEHKABUtagRECT@@PAVCWnd@@I@Z 004778e0     mfc42:MFC42.DLL
 0002:000008e4       __imp_?Create@CListBox@@QAEHKABUtagRECT@@PAVCWnd@@I@Z 004778e4     mfc42:MFC42.DLL
 0002:000008e8       __imp_?GetCurrentMessage@CWnd@@KGPBUtagMSG@@XZ 004778e8     mfc42:MFC42.DLL
 0002:000008ec       __imp_?OnDestroy@CWnd@@IAEXXZ 004778ec     mfc42:MFC42.DLL
 0002:000008f0       __imp_?ItemFromPoint@CListBox@@QBEIVCPoint@@AAH@Z 004778f0     mfc42:MFC42.DLL
 0002:000008f4       __imp_?classCHeaderCtrl@CHeaderCtrl@@2UCRuntimeClass@@B 004778f4     mfc42:MFC42.DLL
 0002:000008f8       __imp_?OnChildNotify@CHeaderCtrl@@MAEHIIJPAJ@Z 004778f8     mfc42:MFC42.DLL
 0002:000008fc       __imp_??1CHeaderCtrl@@UAE@XZ 004778fc     mfc42:MFC42.DLL
 0002:00000900       __imp_?Draw3dRect@CDC@@QAEXPBUtagRECT@@KK@Z 00477900     mfc42:MFC42.DLL
 0002:00000904       __imp_?FromHandle@CImageList@@SGPAV1@PAU_IMAGELIST@@@Z 00477904     mfc42:MFC42.DLL
 0002:00000908       __imp_?SubclassWindow@CWnd@@QAEHPAUHWND__@@@Z 00477908     mfc42:MFC42.DLL
 0002:0000090c       __imp_?CreateEx@CWnd@@QAEHKPBD0KABUtagRECT@@PAV1@IPAX@Z 0047790c     mfc42:MFC42.DLL
 0002:00000910       __imp_?AfxRegisterWndClass@@YGPBDIPAUHICON__@@PAUHBRUSH__@@0@Z 00477910     mfc42:MFC42.DLL
 0002:00000914       __imp_?ClientToScreen@CWnd@@QBEXPAUtagRECT@@@Z 00477914     mfc42:MFC42.DLL
 0002:00000918       __imp_?GetSubItemRect@CListCtrl@@QAEHHHHAAVCRect@@@Z 00477918     mfc42:MFC42.DLL
 0002:0000091c       __imp_?SetItemState@CListCtrl@@QAEHHII@Z 0047791c     mfc42:MFC42.DLL
 0002:00000920       __imp_?_mbstowcsz@@YAHPAGPBDI@Z 00477920     mfc42:MFC42.DLL
 0002:00000924       __imp_??0CDialog@@QAE@XZ   00477924     mfc42:MFC42.DLL
 0002:00000928       __imp_??0CDialog@@QAE@PBDPAVCWnd@@@Z 00477928     mfc42:MFC42.DLL
 0002:0000092c       __imp_?GetExStyle@CWnd@@QBEKXZ 0047792c     mfc42:MFC42.DLL
 0002:00000930       __imp_?classCFormView@CFormView@@2UCRuntimeClass@@B 00477930     mfc42:MFC42.DLL
 0002:00000934       __imp_?OnEndPrinting@CView@@MAEXPAVCDC@@PAUCPrintInfo@@@Z 00477934     mfc42:MFC42.DLL
 0002:00000938       __imp_?OnBeginPrinting@CView@@MAEXPAVCDC@@PAUCPrintInfo@@@Z 00477938     mfc42:MFC42.DLL
 0002:0000093c       __imp_?OnPreparePrinting@CView@@MAEHPAUCPrintInfo@@@Z 0047793c     mfc42:MFC42.DLL
 0002:00000940       __imp_?OnDraw@CFormView@@MAEXPAVCDC@@@Z 00477940     mfc42:MFC42.DLL
 0002:00000944       __imp_?OnActivateFrame@CFormView@@MAEXIPAVCFrameWnd@@@Z 00477944     mfc42:MFC42.DLL
 0002:00000948       __imp_?OnActivateView@CFormView@@MAEXHPAVCView@@0@Z 00477948     mfc42:MFC42.DLL
 0002:0000094c       __imp_?OnPrepareDC@CScrollView@@UAEXPAVCDC@@PAUCPrintInfo@@@Z 0047794c     mfc42:MFC42.DLL
 0002:00000950       __imp_?OnScrollBy@CScrollView@@UAEHVCSize@@H@Z 00477950     mfc42:MFC42.DLL
 0002:00000954       __imp_?OnScroll@CScrollView@@UAEHIIH@Z 00477954     mfc42:MFC42.DLL
 0002:00000958       __imp_?SetOccDialogInfo@CFormView@@MAEHPAU_AFX_OCC_DIALOG_INFO@@@Z 00477958     mfc42:MFC42.DLL
 0002:0000095c       __imp_?PreTranslateMessage@CFormView@@MAEHPAUtagMSG@@@Z 0047795c     mfc42:MFC42.DLL
 0002:00000960       __imp_?CalcWindowRect@CScrollView@@UAEXPAUtagRECT@@I@Z 00477960     mfc42:MFC42.DLL
 0002:00000964       __imp_?Create@CFormView@@MAEHPBD0KABUtagRECT@@PAVCWnd@@IPAUCCreateContext@@@Z 00477964     mfc42:MFC42.DLL
 0002:00000968       __imp_??0CFormView@@IAE@I@Z 00477968     mfc42:MFC42.DLL
 0002:0000096c       __imp_??0CFormView@@IAE@PBD@Z 0047796c     mfc42:MFC42.DLL
 0002:00000970       __imp_??1CScrollView@@UAE@XZ 00477970     mfc42:MFC42.DLL
 0002:00000974       __imp_?messageMap@CFormView@@1UAFX_MSGMAP@@B 00477974     mfc42:MFC42.DLL
 0002:00000978       __imp_?OnSize@CScrollView@@QAEXIHH@Z 00477978     mfc42:MFC42.DLL
 0002:0000097c       __imp_?OnInitialUpdate@CFormView@@UAEXXZ 0047797c     mfc42:MFC42.DLL
 0002:00000980       __imp_?wndBottom@CWnd@@2V1@B 00477980     mfc42:MFC42.DLL
 0002:00000984       __imp_?Detach@CGdiObject@@QAEPAXXZ 00477984     mfc42:MFC42.DLL
 0002:00000988       __imp_?GetBufferSetLength@CString@@QAEPADH@Z 00477988     mfc42:MFC42.DLL
 0002:0000098c       __imp_?GetScrollPos@CWnd@@QBEHH@Z 0047798c     mfc42:MFC42.DLL
 0002:00000990       __imp_?GetScrollLimit@CWnd@@QAEHH@Z 00477990     mfc42:MFC42.DLL
 0002:00000994       __imp_?SelectClipRgn@CDC@@QAEHPAVCRgn@@H@Z 00477994     mfc42:MFC42.DLL
 0002:00000998       __imp_?classCPropertyPage@CPropertyPage@@2UCRuntimeClass@@B 00477998     mfc42:MFC42.DLL
 0002:0000099c       __imp_?OnWizardFinish@CPropertyPage@@UAEHXZ 0047799c     mfc42:MFC42.DLL
 0002:000009a0       __imp_?OnWizardNext@CPropertyPage@@UAEJXZ 004779a0     mfc42:MFC42.DLL
 0002:000009a4       __imp_?OnWizardBack@CPropertyPage@@UAEJXZ 004779a4     mfc42:MFC42.DLL
 0002:000009a8       __imp_?OnQueryCancel@CPropertyPage@@UAEHXZ 004779a8     mfc42:MFC42.DLL
 0002:000009ac       __imp_?OnKillActive@CPropertyPage@@UAEHXZ 004779ac     mfc42:MFC42.DLL
 0002:000009b0       __imp_?OnSetActive@CPropertyPage@@UAEHXZ 004779b0     mfc42:MFC42.DLL
 0002:000009b4       __imp_?OnReset@CPropertyPage@@UAEXXZ 004779b4     mfc42:MFC42.DLL
 0002:000009b8       __imp_?OnApply@CPropertyPage@@UAEHXZ 004779b8     mfc42:MFC42.DLL
 0002:000009bc       __imp_?OnCancel@CPropertyPage@@UAEXXZ 004779bc     mfc42:MFC42.DLL
 0002:000009c0       __imp_?OnOK@CPropertyPage@@UAEXXZ 004779c0     mfc42:MFC42.DLL
 0002:000009c4       __imp_?PreTranslateMessage@CPropertyPage@@MAEHPAUtagMSG@@@Z 004779c4     mfc42:MFC42.DLL
 0002:000009c8       __imp_?OnNotify@CPropertyPage@@MAEHIJPAJ@Z 004779c8     mfc42:MFC42.DLL
 0002:000009cc       __imp_??0CPropertyPage@@QAE@XZ 004779cc     mfc42:MFC42.DLL
 0002:000009d0       __imp_??0CPropertyPage@@QAE@II@Z 004779d0     mfc42:MFC42.DLL
 0002:000009d4       __imp_??0CPropertyPage@@QAE@PBDI@Z 004779d4     mfc42:MFC42.DLL
 0002:000009d8       __imp_??1CPropertyPage@@UAE@XZ 004779d8     mfc42:MFC42.DLL
 0002:000009dc       __imp_?messageMap@CPropertyPage@@1UAFX_MSGMAP@@B 004779dc     mfc42:MFC42.DLL
 0002:000009e0       __imp_?classCPropertyPageEx@CPropertyPageEx@@2UCRuntimeClass@@B 004779e0     mfc42:MFC42.DLL
 0002:000009e4       __imp_??0CPropertyPageEx@@QAE@XZ 004779e4     mfc42:MFC42.DLL
 0002:000009e8       __imp_??0CPropertyPageEx@@QAE@IIII@Z 004779e8     mfc42:MFC42.DLL
 0002:000009ec       __imp_??0CPropertyPageEx@@QAE@PBDIII@Z 004779ec     mfc42:MFC42.DLL
 0002:000009f0       __imp_?classCPropertySheet@CPropertySheet@@2UCRuntimeClass@@B 004779f0     mfc42:MFC42.DLL
 0002:000009f4       __imp_?BuildPropPageArray@CPropertySheet@@UAEXXZ 004779f4     mfc42:MFC42.DLL
 0002:000009f8       __imp_?DoModal@CPropertySheet@@UAEHXZ 004779f8     mfc42:MFC42.DLL
 0002:000009fc       __imp_?PreTranslateMessage@CPropertySheet@@UAEHPAUtagMSG@@@Z 004779fc     mfc42:MFC42.DLL
 0002:00000a00       __imp_?OnCommand@CPropertySheet@@UAEHIJ@Z 00477a00     mfc42:MFC42.DLL
 0002:00000a04       __imp_?ContinueModal@CPropertySheet@@UAEHXZ 00477a04     mfc42:MFC42.DLL
 0002:00000a08       __imp_?OnCmdMsg@CPropertySheet@@UAEHIHPAXPAUAFX_CMDHANDLERINFO@@@Z 00477a08     mfc42:MFC42.DLL
 0002:00000a0c       __imp_??1CPropertySheet@@UAE@XZ 00477a0c     mfc42:MFC42.DLL
 0002:00000a10       __imp_??0CPropertySheet@@QAE@XZ 00477a10     mfc42:MFC42.DLL
 0002:00000a14       __imp_??0CPropertySheet@@QAE@IPAVCWnd@@I@Z 00477a14     mfc42:MFC42.DLL
 0002:00000a18       __imp_??0CPropertySheet@@QAE@PBDPAVCWnd@@I@Z 00477a18     mfc42:MFC42.DLL
 0002:00000a1c       __imp_?messageMap@CPropertySheet@@1UAFX_MSGMAP@@B 00477a1c     mfc42:MFC42.DLL
 0002:00000a20       __imp_?OnInitDialog@CPropertySheet@@UAEHXZ 00477a20     mfc42:MFC42.DLL
 0002:00000a24       __imp_?GetActivePage@CPropertySheet@@QBEPAVCPropertyPage@@XZ 00477a24     mfc42:MFC42.DLL
 0002:00000a28       __imp_?SetActivePage@CPropertySheet@@QAEHH@Z 00477a28     mfc42:MFC42.DLL
 0002:00000a2c       __imp_?classCPropertySheetEx@CPropertySheetEx@@2UCRuntimeClass@@B 00477a2c     mfc42:MFC42.DLL
 0002:00000a30       __imp_?BuildPropPageArray@CPropertySheetEx@@UAEXXZ 00477a30     mfc42:MFC42.DLL
 0002:00000a34       __imp_??1CPropertySheetEx@@UAE@XZ 00477a34     mfc42:MFC42.DLL
 0002:00000a38       __imp_??0CPropertySheetEx@@QAE@XZ 00477a38     mfc42:MFC42.DLL
 0002:00000a3c       __imp_??0CPropertySheetEx@@QAE@IPAVCWnd@@IPAUHBITMAP__@@PAUHPALETTE__@@1@Z 00477a3c     mfc42:MFC42.DLL
 0002:00000a40       __imp_??0CPropertySheetEx@@QAE@PBDPAVCWnd@@IPAUHBITMAP__@@PAUHPALETTE__@@2@Z 00477a40     mfc42:MFC42.DLL
 0002:00000a44       __imp_?WriteProfileStringA@CWinApp@@QAEHPBD00@Z 00477a44     mfc42:MFC42.DLL
 0002:00000a48       __imp_?GetWindowPlacement@CWnd@@QBEHPAUtagWINDOWPLACEMENT@@@Z 00477a48     mfc42:MFC42.DLL
 0002:00000a4c       __imp_?SetWindowPlacement@CWnd@@QAEHPBUtagWINDOWPLACEMENT@@@Z 00477a4c     mfc42:MFC42.DLL
 0002:00000a50       __imp_?GetProfileStringA@CWinApp@@QAE?AVCString@@PBD00@Z 00477a50     mfc42:MFC42.DLL
 0002:00000a54       __imp_??0CPtrArray@@QAE@XZ 00477a54     mfc42:MFC42.DLL
 0002:00000a58       __imp_??1CPtrArray@@UAE@XZ 00477a58     mfc42:MFC42.DLL
 0002:00000a5c       __imp_?SetSize@CPtrArray@@QAEXHH@Z 00477a5c     mfc42:MFC42.DLL
 0002:00000a60       __imp_?SetAtGrow@CPtrArray@@QAEXHPAX@Z 00477a60     mfc42:MFC42.DLL
 0002:00000a64       __imp_?ReportError@CException@@UAEHII@Z 00477a64     mfc42:MFC42.DLL
 0002:00000a68       __imp_?GetErrorMessage@CFileException@@UAEHPADIPAI@Z 00477a68     mfc42:MFC42.DLL
 0002:00000a6c       __imp_?GetRuntimeClass@CFileException@@UBEPAUCRuntimeClass@@XZ 00477a6c     mfc42:MFC42.DLL
 0002:00000a70       __imp_?AfxTryCleanup@@YGXXZ 00477a70     mfc42:MFC42.DLL
 0002:00000a74       __imp_??0AFX_EXCEPTION_LINK@@QAE@XZ 00477a74     mfc42:MFC42.DLL
 0002:00000a78       __imp_??0CFile@@QAE@XZ     00477a78     mfc42:MFC42.DLL
 0002:00000a7c       __imp_??0CException@@QAE@XZ 00477a7c     mfc42:MFC42.DLL
 0002:00000a80       __imp_?Fail@CDataExchange@@QAEXXZ 00477a80     mfc42:MFC42.DLL
 0002:00000a84       __imp_?GetWindowTextA@CWnd@@QBEHPADH@Z 00477a84     mfc42:MFC42.DLL
 0002:00000a88       __imp_?PrepareEditCtrl@CDataExchange@@QAEPAUHWND__@@H@Z 00477a88     mfc42:MFC42.DLL
 0002:00000a8c       __imp_?GetInterfaceMap@CCmdTarget@@MBEPBUAFX_INTERFACEMAP@@XZ 00477a8c     mfc42:MFC42.DLL
 0002:00000a90       __imp_?GetEventSinkMap@CCmdTarget@@MBEPBUAFX_EVENTSINKMAP@@XZ 00477a90     mfc42:MFC42.DLL
 0002:00000a94       __imp_?OnCreateAggregates@CCmdTarget@@UAEHXZ 00477a94     mfc42:MFC42.DLL
 0002:00000a98       __imp_?GetInterfaceHook@CCmdTarget@@UAEPAUIUnknown@@PBX@Z 00477a98     mfc42:MFC42.DLL
 0002:00000a9c       __imp_?GetExtraConnectionPoints@CCmdTarget@@MAEHPAVCPtrArray@@@Z 00477a9c     mfc42:MFC42.DLL
 0002:00000aa0       __imp_?GetConnectionHook@CCmdTarget@@MAEPAUIConnectionPoint@@ABU_GUID@@@Z 00477aa0     mfc42:MFC42.DLL
 0002:00000aa4       __imp_?PreSubclassWindow@CWnd@@UAEXXZ 00477aa4     mfc42:MFC42.DLL
 0002:00000aa8       __imp_?Create@CWnd@@UAEHPBD0KABUtagRECT@@PAV1@IPAUCCreateContext@@@Z 00477aa8     mfc42:MFC42.DLL
 0002:00000aac       __imp_?DestroyWindow@CWnd@@UAEHXZ 00477aac     mfc42:MFC42.DLL
 0002:00000ab0       __imp_?PreCreateWindow@CWnd@@UAEHAAUtagCREATESTRUCTA@@@Z 00477ab0     mfc42:MFC42.DLL
 0002:00000ab4       __imp_?CalcWindowRect@CWnd@@UAEXPAUtagRECT@@I@Z 00477ab4     mfc42:MFC42.DLL
 0002:00000ab8       __imp_?OnToolHitTest@CWnd@@UBEHVCPoint@@PAUtagTOOLINFOA@@@Z 00477ab8     mfc42:MFC42.DLL
 0002:00000abc       __imp_?GetScrollBarCtrl@CWnd@@UBEPAVCScrollBar@@H@Z 00477abc     mfc42:MFC42.DLL
 0002:00000ac0       __imp_?WinHelpA@CWnd@@UAEXKI@Z 00477ac0     mfc42:MFC42.DLL
 0002:00000ac4       __imp_?ContinueModal@CWnd@@UAEHXZ 00477ac4     mfc42:MFC42.DLL
 0002:00000ac8       __imp_?EndModalLoop@CWnd@@UAEXH@Z 00477ac8     mfc42:MFC42.DLL
 0002:00000acc       __imp_?OnCommand@CWnd@@MAEHIJ@Z 00477acc     mfc42:MFC42.DLL
 0002:00000ad0       __imp_?OnNotify@CWnd@@MAEHIJPAJ@Z 00477ad0     mfc42:MFC42.DLL
 0002:00000ad4       __imp_?GetSuperWndProcAddr@CWnd@@MAEPAP6GJPAUHWND__@@IIJ@ZXZ 00477ad4     mfc42:MFC42.DLL
 0002:00000ad8       __imp_?PreTranslateMessage@CDialog@@UAEHPAUtagMSG@@@Z 00477ad8     mfc42:MFC42.DLL
 0002:00000adc       __imp_?OnAmbientProperty@CWnd@@UAEHPAVCOleControlSite@@JPAUtagVARIANT@@@Z 00477adc     mfc42:MFC42.DLL
 0002:00000ae0       __imp_?WindowProc@CWnd@@MAEJIIJ@Z 00477ae0     mfc42:MFC42.DLL
 0002:00000ae4       __imp_?OnWndMsg@CWnd@@MAEHIIJPAJ@Z 00477ae4     mfc42:MFC42.DLL
 0002:00000ae8       __imp_?DefWindowProcA@CWnd@@MAEJIIJ@Z 00477ae8     mfc42:MFC42.DLL
 0002:00000aec       __imp_?PostNcDestroy@CWnd@@MAEXXZ 00477aec     mfc42:MFC42.DLL
 0002:00000af0       __imp_?OnChildNotify@CWnd@@MAEHIIJPAJ@Z 00477af0     mfc42:MFC42.DLL
 0002:00000af4       __imp_?CheckAutoCenter@CDialog@@UAEHXZ 00477af4     mfc42:MFC42.DLL
 0002:00000af8       __imp_?IsFrameWnd@CWnd@@UBEHXZ 00477af8     mfc42:MFC42.DLL
 0002:00000afc       __imp_?SetOccDialogInfo@CDialog@@MAEHPAU_AFX_OCC_DIALOG_INFO@@@Z 00477afc     mfc42:MFC42.DLL
 0002:00000b00       __imp_?DoModal@CDialog@@UAEHXZ 00477b00     mfc42:MFC42.DLL
 0002:00000b04       __imp_?OnSetFont@CDialog@@UAEXPAVCFont@@@Z 00477b04     mfc42:MFC42.DLL
 0002:00000b08       __imp_?OnOK@CDialog@@MAEXXZ 00477b08     mfc42:MFC42.DLL
 0002:00000b0c       __imp_?OnCancel@CDialog@@MAEXXZ 00477b0c     mfc42:MFC42.DLL
 0002:00000b10       __imp_?PreInitDialog@CDialog@@MAEXXZ 00477b10     mfc42:MFC42.DLL
 0002:00000b14       __imp_?OnInitDialog@CDialog@@UAEHXZ 00477b14     mfc42:MFC42.DLL
 0002:00000b18       __imp_?Format@CString@@QAAXPBDZZ 00477b18     mfc42:MFC42.DLL
 0002:00000b1c       __imp_?GetTickCount@CTime@@SG?AV1@XZ 00477b1c     mfc42:MFC42.DLL
 0002:00000b20       __imp_?GetLocalTm@CTime@@QBEPAUtm@@PAU2@@Z 00477b20     mfc42:MFC42.DLL
 0002:00000b24       __imp_??0CStringArray@@QAE@XZ 00477b24     mfc42:MFC42.DLL
 0002:00000b28       __imp_?SetAtGrow@CStringArray@@QAEXHPBD@Z 00477b28     mfc42:MFC42.DLL
 0002:00000b2c       __imp_?SetAtGrow@CStringArray@@QAEXHABVCString@@@Z 00477b2c     mfc42:MFC42.DLL
 0002:00000b30       __imp_?AfxGetModuleState@@YGPAVAFX_MODULE_STATE@@XZ 00477b30     mfc42:MFC42.DLL
 0002:00000b34       __imp_?UpdateData@CWnd@@QAEHH@Z 00477b34     mfc42:MFC42.DLL
 0002:00000b38       __imp_??1CStringArray@@UAE@XZ 00477b38     mfc42:MFC42.DLL
 0002:00000b3c       __imp_?messageMap@CDialog@@1UAFX_MSGMAP@@B 00477b3c     mfc42:MFC42.DLL
 0002:00000b40       __imp_?DDX_Control@@YGXPAVCDataExchange@@HAAVCWnd@@@Z 00477b40     mfc42:MFC42.DLL
 0002:00000b44       __imp_?DDX_Text@@YGXPAVCDataExchange@@HAAVCString@@@Z 00477b44     mfc42:MFC42.DLL
 0002:00000b48       __imp_??3@YAXPAX@Z         00477b48     mfc42:MFC42.DLL
 0002:00000b4c       __imp_??0CDialog@@QAE@IPAVCWnd@@@Z 00477b4c     mfc42:MFC42.DLL
 0002:00000b50       __imp_??0CString@@QAE@XZ   00477b50     mfc42:MFC42.DLL
 0002:00000b54       __imp_??4CString@@QAEABV0@PBD@Z 00477b54     mfc42:MFC42.DLL
 0002:00000b58       __imp_??1CDialog@@UAE@XZ   00477b58     mfc42:MFC42.DLL
 0002:00000b5c       __imp_??1CString@@QAE@XZ   00477b5c     mfc42:MFC42.DLL
 0002:00000b60       __imp_?GetRuntimeClass@CDialog@@UBEPAUCRuntimeClass@@XZ 00477b60     mfc42:MFC42.DLL
 0002:00000b64       __imp_?OnCmdMsg@CDialog@@UAEHIHPAXPAUAFX_CMDHANDLERINFO@@@Z 00477b64     mfc42:MFC42.DLL
 0002:00000b68       __imp_?OnFinalRelease@CWnd@@UAEXXZ 00477b68     mfc42:MFC42.DLL
 0002:00000b6c       __imp_?IsInvokeAllowed@CCmdTarget@@UAEHJ@Z 00477b6c     mfc42:MFC42.DLL
 0002:00000b70       __imp_?GetDispatchIID@CCmdTarget@@UAEHPAU_GUID@@@Z 00477b70     mfc42:MFC42.DLL
 0002:00000b74       __imp_?GetTypeInfoCount@CCmdTarget@@UAEIXZ 00477b74     mfc42:MFC42.DLL
 0002:00000b78       __imp_?GetTypeLibCache@CCmdTarget@@UAEPAVCTypeLibCache@@XZ 00477b78     mfc42:MFC42.DLL
 0002:00000b7c       __imp_?GetTypeLib@CCmdTarget@@UAEJKPAPAUITypeLib@@@Z 00477b7c     mfc42:MFC42.DLL
 0002:00000b80       __imp_?GetCommandMap@CCmdTarget@@MBEPBUAFX_OLECMDMAP@@XZ 00477b80     mfc42:MFC42.DLL
 0002:00000b84       __imp_?PreCreateWindow@CView@@MAEHAAUtagCREATESTRUCTA@@@Z 00477b84     mfc42:MFC42.DLL
 0002:00000b88       __imp_?GetDispatchMap@CCmdTarget@@MBEPBUAFX_DISPMAP@@XZ 00477b88     mfc42:MFC42.DLL
 0002:00000b8c       __imp_?DoFileSave@CDocument@@UAEHXZ 00477b8c     mfc42:MFC42.DLL
 0002:00000b90       __imp_?SetBkColor@CDC@@UAEKK@Z 00477b90     mfc42:MFC42.DLL
 0002:00000b94       \177MFC42_NULL_THUNK_DATA  00477b94     mfc42:MFC42.DLL
 0002:00000b98       __imp_??1_Lockit@std@@QAE@XZ 00477b98     msvcprt:MSVCP60.dll
 0002:00000b9c       __imp_??0out_of_range@std@@QAE@ABV01@@Z 00477b9c     msvcprt:MSVCP60.dll
 0002:00000ba0       __imp_??1out_of_range@std@@UAE@XZ 00477ba0     msvcprt:MSVCP60.dll
 0002:00000ba4       __imp_??1?$basic_string@DU?$char_traits@D@std@@V?$allocator@D@2@@std@@QAE@XZ 00477ba4     msvcprt:MSVCP60.dll
 0002:00000ba8       __imp_??_7out_of_range@std@@6B@ 00477ba8     msvcprt:MSVCP60.dll
 0002:00000bac       __imp_?assign@?$basic_string@DU?$char_traits@D@std@@V?$allocator@D@2@@std@@QAEAAV12@ABV12@II@Z 00477bac     msvcprt:MSVCP60.dll
 0002:00000bb0       __imp_?npos@?$basic_string@DU?$char_traits@D@std@@V?$allocator@D@2@@std@@2IB 00477bb0     msvcprt:MSVCP60.dll
 0002:00000bb4       __imp_?_Tidy@?$basic_string@DU?$char_traits@D@std@@V?$allocator@D@2@@std@@AAEX_N@Z 00477bb4     msvcprt:MSVCP60.dll
 0002:00000bb8       __imp_?_Grow@?$basic_string@DU?$char_traits@D@std@@V?$allocator@D@2@@std@@AAE_NI_N@Z 00477bb8     msvcprt:MSVCP60.dll
 0002:00000bbc       __imp_??0out_of_range@std@@QAE@ABV?$basic_string@DU?$char_traits@D@std@@V?$allocator@D@2@@1@@Z 00477bbc     msvcprt:MSVCP60.dll
 0002:00000bc0       __imp_??0?$basic_string@DU?$char_traits@D@std@@V?$allocator@D@2@@std@@QAE@PBDABV?$allocator@D@1@@Z 00477bc0     msvcprt:MSVCP60.dll
 0002:00000bc4       __imp_?assign@?$basic_string@DU?$char_traits@D@std@@V?$allocator@D@2@@std@@QAEAAV12@PBDI@Z 00477bc4     msvcprt:MSVCP60.dll
 0002:00000bc8       __imp_?_Copy@?$basic_string@DU?$char_traits@D@std@@V?$allocator@D@2@@std@@AAEXI@Z 00477bc8     msvcprt:MSVCP60.dll
 0002:00000bcc       __imp_?_Xlen@std@@YAXXZ    00477bcc     msvcprt:MSVCP60.dll
 0002:00000bd0       __imp_??0Init@ios_base@std@@QAE@XZ 00477bd0     msvcprt:MSVCP60.dll
 0002:00000bd4       __imp_??1Init@ios_base@std@@QAE@XZ 00477bd4     msvcprt:MSVCP60.dll
 0002:00000bd8       __imp_??0_Winit@std@@QAE@XZ 00477bd8     msvcprt:MSVCP60.dll
 0002:00000bdc       __imp_??1_Winit@std@@QAE@XZ 00477bdc     msvcprt:MSVCP60.dll
 0002:00000be0       __imp_??1?$basic_streambuf@DU?$char_traits@D@std@@@std@@UAE@XZ 00477be0     msvcprt:MSVCP60.dll
 0002:00000be4       __imp_??_D?$basic_ostringstream@DU?$char_traits@D@std@@V?$allocator@D@2@@std@@QAEXXZ 00477be4     msvcprt:MSVCP60.dll
 0002:00000be8       __imp_??1?$basic_ostream@DU?$char_traits@D@std@@@std@@UAE@XZ 00477be8     msvcprt:MSVCP60.dll
 0002:00000bec       __imp_??1?$basic_ios@DU?$char_traits@D@std@@@std@@UAE@XZ 00477bec     msvcprt:MSVCP60.dll
 0002:00000bf0       __imp_??1ios_base@std@@UAE@XZ 00477bf0     msvcprt:MSVCP60.dll
 0002:00000bf4       __imp_??_7?$basic_ostream@DU?$char_traits@D@std@@@std@@6B@ 00477bf4     msvcprt:MSVCP60.dll
 0002:00000bf8       __imp_??1locale@std@@QAE@XZ 00477bf8     msvcprt:MSVCP60.dll
 0002:00000bfc       __imp_??_7?$basic_streambuf@DU?$char_traits@D@std@@@std@@6B@ 00477bfc     msvcprt:MSVCP60.dll
 0002:00000c00       __imp_?_Tidy@?$basic_stringbuf@DU?$char_traits@D@std@@V?$allocator@D@2@@std@@IAEXXZ 00477c00     msvcprt:MSVCP60.dll
 0002:00000c04       __imp_??_7?$basic_stringbuf@DU?$char_traits@D@std@@V?$allocator@D@2@@std@@6B@ 00477c04     msvcprt:MSVCP60.dll
 0002:00000c08       __imp_?_C@?1??_Nullstr@?$basic_string@DU?$char_traits@D@std@@V?$allocator@D@2@@std@@CAPBDXZ@4DB 00477c08     msvcprt:MSVCP60.dll
 0002:00000c0c       __imp_?str@?$basic_ostringstream@DU?$char_traits@D@std@@V?$allocator@D@2@@std@@QBE?AV?$basic_string@DU?$char_traits@D@std@@V?$allocator@D@2@@2@XZ 00477c0c     msvcprt:MSVCP60.dll
 0002:00000c10       __imp_??6std@@YAAAV?$basic_ostream@DU?$char_traits@D@std@@@0@AAV10@D@Z 00477c10     msvcprt:MSVCP60.dll
 0002:00000c14       __imp_??6std@@YAAAV?$basic_ostream@DU?$char_traits@D@std@@@0@AAV10@PBD@Z 00477c14     msvcprt:MSVCP60.dll
 0002:00000c18       __imp_??_7?$basic_ostringstream@DU?$char_traits@D@std@@V?$allocator@D@2@@std@@6B@ 00477c18     msvcprt:MSVCP60.dll
 0002:00000c1c       __imp_??0?$basic_ios@DU?$char_traits@D@std@@@std@@IAE@XZ 00477c1c     msvcprt:MSVCP60.dll
 0002:00000c20       __imp_??1?$basic_ostringstream@DU?$char_traits@D@std@@V?$allocator@D@2@@std@@UAE@XZ 00477c20     msvcprt:MSVCP60.dll
 0002:00000c24       __imp_??1?$basic_stringbuf@DU?$char_traits@D@std@@V?$allocator@D@2@@std@@UAE@XZ 00477c24     msvcprt:MSVCP60.dll
 0002:00000c28       __imp_??0_Lockit@std@@QAE@XZ 00477c28     msvcprt:MSVCP60.dll
 0002:00000c2c       __imp_??0logic_error@std@@QAE@ABV01@@Z 00477c2c     msvcprt:MSVCP60.dll
 0002:00000c30       __imp_??_8?$basic_ostringstream@DU?$char_traits@D@std@@V?$allocator@D@2@@std@@7B@ 00477c30     msvcprt:MSVCP60.dll
 0002:00000c34       __imp_??0ios_base@std@@IAE@XZ 00477c34     msvcprt:MSVCP60.dll
 0002:00000c38       __imp_??_7?$basic_ios@DU?$char_traits@D@std@@@std@@6B@ 00477c38     msvcprt:MSVCP60.dll
 0002:00000c3c       __imp_??0?$basic_ostream@DU?$char_traits@D@std@@@std@@QAE@PAV?$basic_streambuf@DU?$char_traits@D@std@@@1@_N1@Z 00477c3c     msvcprt:MSVCP60.dll
 0002:00000c40       __imp_??0?$basic_stringbuf@DU?$char_traits@D@std@@V?$allocator@D@2@@std@@QAE@H@Z 00477c40     msvcprt:MSVCP60.dll
 0002:00000c44       \177MSVCP60_NULL_THUNK_DATA 00477c44     msvcprt:MSVCP60.dll
 0002:00000c48       __imp__wcslen              00477c48     msvcrt:MSVCRT.dll
 0002:00000c4c       __imp__unlink              00477c4c     msvcrt:MSVCRT.dll
 0002:00000c4c       __imp___unlink             00477c4c     msvcrt:MSVCRT.dll
 0002:00000c50       __imp___setmbcp            00477c50     msvcrt:MSVCRT.dll
 0002:00000c54       __imp__memmove             00477c54     msvcrt:MSVCRT.dll
 0002:00000c58       __imp__sscanf              00477c58     msvcrt:MSVCRT.dll
 0002:00000c5c       __imp__malloc              00477c5c     msvcrt:MSVCRT.dll
 0002:00000c60       __imp__free                00477c60     msvcrt:MSVCRT.dll
 0002:00000c64       __imp__mktime              00477c64     msvcrt:MSVCRT.dll
 0002:00000c68       __imp__localtime           00477c68     msvcrt:MSVCRT.dll
 0002:00000c6c       __imp__isdigit             00477c6c     msvcrt:MSVCRT.dll
 0002:00000c70       __imp__strchr              00477c70     msvcrt:MSVCRT.dll
 0002:00000c74       __imp__isspace             00477c74     msvcrt:MSVCRT.dll
 0002:00000c78       __imp___mbschr             00477c78     msvcrt:MSVCRT.dll
 0002:00000c7c       __imp__tolower             00477c7c     msvcrt:MSVCRT.dll
 0002:00000c80       __imp___ismbcspace         00477c80     msvcrt:MSVCRT.dll
 0002:00000c84       __imp___mbspbrk            00477c84     msvcrt:MSVCRT.dll
 0002:00000c88       __imp___mbsnbicmp          00477c88     msvcrt:MSVCRT.dll
 0002:00000c8c       __imp_??1type_info@@UAE@XZ 00477c8c     msvcrt:MSVCRT.dll
 0002:00000c90       __imp____dllonexit         00477c90     msvcrt:MSVCRT.dll
 0002:00000c94       __imp___onexit             00477c94     msvcrt:MSVCRT.dll
 0002:00000c98       __imp_?terminate@@YAXXZ    00477c98     msvcrt:MSVCRT.dll
 0002:00000c9c       __imp___exit               00477c9c     msvcrt:MSVCRT.dll
 0002:00000ca0       __imp___XcptFilter         00477ca0     msvcrt:MSVCRT.dll
 0002:00000ca4       __imp___acmdln             00477ca4     msvcrt:MSVCRT.dll
 0002:00000ca8       __imp____getmainargs       00477ca8     msvcrt:MSVCRT.dll
 0002:00000cac       __imp___initterm           00477cac     msvcrt:MSVCRT.dll
 0002:00000cb0       __imp____setusermatherr    00477cb0     msvcrt:MSVCRT.dll
 0002:00000cb4       __imp___adjust_fdiv        00477cb4     msvcrt:MSVCRT.dll
 0002:00000cb8       __imp____p__commode        00477cb8     msvcrt:MSVCRT.dll
 0002:00000cbc       __imp____p__fmode          00477cbc     msvcrt:MSVCRT.dll
 0002:00000cc0       __imp____set_app_type      00477cc0     msvcrt:MSVCRT.dll
 0002:00000cc4       __imp___controlfp          00477cc4     msvcrt:MSVCRT.dll
 0002:00000cc8       __imp____CxxFrameHandler   00477cc8     msvcrt:MSVCRT.dll
 0002:00000ccc       __imp__atoi                00477ccc     msvcrt:MSVCRT.dll
 0002:00000cd0       __imp__atol                00477cd0     msvcrt:MSVCRT.dll
 0002:00000cd4       __imp__sprintf             00477cd4     msvcrt:MSVCRT.dll
 0002:00000cd8       __imp___mbscmp             00477cd8     msvcrt:MSVCRT.dll
 0002:00000cdc       __imp__atof                00477cdc     msvcrt:MSVCRT.dll
 0002:00000ce0       __imp___ftol               00477ce0     msvcrt:MSVCRT.dll
 0002:00000ce4       __imp__exit                00477ce4     msvcrt:MSVCRT.dll
 0002:00000ce8       __imp__rand                00477ce8     msvcrt:MSVCRT.dll
 0002:00000cec       __imp___CxxThrowException@8 00477cec     msvcrt:MSVCRT.dll
 0002:00000cf0       __imp__fclose              00477cf0     msvcrt:MSVCRT.dll
 0002:00000cf4       __imp__fopen               00477cf4     msvcrt:MSVCRT.dll
 0002:00000cf8       __imp_??0exception@@QAE@ABV0@@Z 00477cf8     msvcrt:MSVCRT.dll
 0002:00000cfc       __imp_??1exception@@UAE@XZ 00477cfc     msvcrt:MSVCRT.dll
 0002:00000d00       __imp_??0exception@@QAE@ABQBD@Z 00477d00     msvcrt:MSVCRT.dll
 0002:00000d04       __imp__fprintf             00477d04     msvcrt:MSVCRT.dll
 0002:00000d08       __imp___vsnprintf          00477d08     msvcrt:MSVCRT.dll
 0002:00000d0c       __imp__srand               00477d0c     msvcrt:MSVCRT.dll
 0002:00000d10       __imp__time                00477d10     msvcrt:MSVCRT.dll
 0002:00000d14       __imp__fgets               00477d14     msvcrt:MSVCRT.dll
 0002:00000d18       __imp___purecall           00477d18     msvcrt:MSVCRT.dll
 0002:00000d1c       __imp___ismbcprint         00477d1c     msvcrt:MSVCRT.dll
 0002:00000d20       __imp___ismbcdigit         00477d20     msvcrt:MSVCRT.dll
 0002:00000d24       __imp__strtod              00477d24     msvcrt:MSVCRT.dll
 0002:00000d28       __imp___mbctoupper         00477d28     msvcrt:MSVCRT.dll
 0002:00000d2c       __imp___mbsicmp            00477d2c     msvcrt:MSVCRT.dll
 0002:00000d30       __imp__toupper             00477d30     msvcrt:MSVCRT.dll
 0002:00000d34       __imp___except_handler3    00477d34     msvcrt:MSVCRT.dll
 0002:00000d38       __imp___strdup             00477d38     msvcrt:MSVCRT.dll
 0002:00000d3c       __imp__strncpy             00477d3c     msvcrt:MSVCRT.dll
 0002:00000d40       \177MSVCRT_NULL_THUNK_DATA 00477d40     msvcrt:MSVCRT.dll
 0002:00000d44       __imp__VariantChangeType@16 00477d44     oleaut32:OLEAUT32.dll
 0002:00000d48       __imp__SetErrorInfo@8      00477d48     oleaut32:OLEAUT32.dll
 0002:00000d4c       __imp__GetErrorInfo@8      00477d4c     oleaut32:OLEAUT32.dll
 0002:00000d50       __imp__CreateErrorInfo@4   00477d50     oleaut32:OLEAUT32.dll
 0002:00000d54       __imp__VariantInit@4       00477d54     oleaut32:OLEAUT32.dll
 0002:00000d58       __imp__SysStringLen@4      00477d58     oleaut32:OLEAUT32.dll
 0002:00000d5c       __imp__SysAllocString@4    00477d5c     oleaut32:OLEAUT32.dll
 0002:00000d60       __imp__SysFreeString@4     00477d60     oleaut32:OLEAUT32.dll
 0002:00000d64       __imp__VariantClear@4      00477d64     oleaut32:OLEAUT32.dll
 0002:00000d68       \177OLEAUT32_NULL_THUNK_DATA 00477d68     oleaut32:OLEAUT32.dll
 0002:00000d6c       __imp__StrStrA@8           00477d6c     shell32:SHELL32.dll
 0002:00000d70       __imp__SHFileOperationA@4  00477d70     shell32:SHELL32.dll
 0002:00000d74       __imp__SHGetSpecialFolderLocation@12 00477d74     shell32:SHELL32.dll
 0002:00000d78       __imp__ShellExecuteA@24    00477d78     shell32:SHELL32.dll
 0002:00000d7c       __imp__SHBrowseForFolderA@4 00477d7c     shell32:SHELL32.dll
 0002:00000d80       __imp__SHGetPathFromIDListA@8 00477d80     shell32:SHELL32.dll
 0002:00000d84       __imp__SHGetDesktopFolder@4 00477d84     shell32:SHELL32.dll
 0002:00000d88       \177SHELL32_NULL_THUNK_DATA 00477d88     shell32:SHELL32.dll
 0002:00000d8c       __imp__PathFileExistsA@4   00477d8c     shlwapi:SHLWAPI.dll
 0002:00000d90       __imp__PathQuoteSpacesA@4  00477d90     shlwapi:SHLWAPI.dll
 0002:00000d94       \177SHLWAPI_NULL_THUNK_DATA 00477d94     shlwapi:SHLWAPI.dll
 0002:00000d98       __imp__AdjustWindowRectEx@16 00477d98     user32:USER32.dll
 0002:00000d9c       __imp__IsZoomed@4          00477d9c     user32:USER32.dll
 0002:00000da0       __imp__DeferWindowPos@32   00477da0     user32:USER32.dll
 0002:00000da4       __imp__EndDeferWindowPos@4 00477da4     user32:USER32.dll
 0002:00000da8       __imp__BeginDeferWindowPos@4 00477da8     user32:USER32.dll
 0002:00000dac       __imp__GetWindowRgn@8      00477dac     user32:USER32.dll
 0002:00000db0       __imp__GetMenu@4           00477db0     user32:USER32.dll
 0002:00000db4       __imp__GetPropA@8          00477db4     user32:USER32.dll
 0002:00000db8       __imp__SetPropA@12         00477db8     user32:USER32.dll
 0002:00000dbc       __imp__RemovePropA@8       00477dbc     user32:USER32.dll
 0002:00000dc0       __imp__SystemParametersInfoA@16 00477dc0     user32:USER32.dll
 0002:00000dc4       __imp__DestroyIcon@4       00477dc4     user32:USER32.dll
 0002:00000dc8       __imp__SetRect@20          00477dc8     user32:USER32.dll
 0002:00000dcc       __imp__GetMenuItemInfoA@16 00477dcc     user32:USER32.dll
 0002:00000dd0       __imp__GetSystemMetrics@4  00477dd0     user32:USER32.dll
 0002:00000dd4       __imp__SetRectEmpty@4      00477dd4     user32:USER32.dll
 0002:00000dd8       __imp__SetForegroundWindow@4 00477dd8     user32:USER32.dll
 0002:00000ddc       __imp__OpenClipboard@4     00477ddc     user32:USER32.dll
 0002:00000de0       __imp__GetClipboardData@4  00477de0     user32:USER32.dll
 0002:00000de4       __imp__BringWindowToTop@4  00477de4     user32:USER32.dll
 0002:00000de8       __imp__TranslateMessage@4  00477de8     user32:USER32.dll
 0002:00000dec       __imp__GrayStringA@36      00477dec     user32:USER32.dll
 0002:00000df0       __imp__DrawTextA@20        00477df0     user32:USER32.dll
 0002:00000df4       __imp__TabbedTextOutA@32   00477df4     user32:USER32.dll
 0002:00000df8       __imp__GetCapture@0        00477df8     user32:USER32.dll
 0002:00000dfc       __imp__SetCapture@4        00477dfc     user32:USER32.dll
 0002:00000e00       __imp__GetMessageA@16      00477e00     user32:USER32.dll
 0002:00000e04       __imp__DispatchMessageA@4  00477e04     user32:USER32.dll
 0002:00000e08       __imp__IsRectEmpty@4       00477e08     user32:USER32.dll
 0002:00000e0c       __imp__ReleaseDC@8         00477e0c     user32:USER32.dll
 0002:00000e10       __imp__CheckMenuItem@12    00477e10     user32:USER32.dll
 0002:00000e14       __imp__RemoveMenu@12       00477e14     user32:USER32.dll
 0002:00000e18       __imp__AppendMenuA@16      00477e18     user32:USER32.dll
 0002:00000e1c       __imp__LoadBitmapA@8       00477e1c     user32:USER32.dll
 0002:00000e20       __imp__CopyImage@20        00477e20     user32:USER32.dll
 0002:00000e24       __imp__WindowFromPoint@8   00477e24     user32:USER32.dll
 0002:00000e28       __imp__SetMenuItemInfoA@16 00477e28     user32:USER32.dll
 0002:00000e2c       __imp__GetSystemMenu@8     00477e2c     user32:USER32.dll
 0002:00000e30       __imp__EnableWindow@8      00477e30     user32:USER32.dll
 0002:00000e34       __imp__SendMessageA@16     00477e34     user32:USER32.dll
 0002:00000e38       __imp__GetDesktopWindow@0  00477e38     user32:USER32.dll
 0002:00000e3c       __imp__SetScrollPos@16     00477e3c     user32:USER32.dll
 0002:00000e40       __imp__CloseClipboard@0    00477e40     user32:USER32.dll
 0002:00000e44       __imp__RegisterWindowMessageA@4 00477e44     user32:USER32.dll
 0002:00000e48       __imp__GetClientRect@8     00477e48     user32:USER32.dll
 0002:00000e4c       __imp__GetSubMenu@8        00477e4c     user32:USER32.dll
 0002:00000e50       __imp__LoadMenuA@8         00477e50     user32:USER32.dll
 0002:00000e54       __imp__ScreenToClient@8    00477e54     user32:USER32.dll
 0002:00000e58       __imp__GetCursorPos@4      00477e58     user32:USER32.dll
 0002:00000e5c       __imp__MessageBeep@4       00477e5c     user32:USER32.dll
 0002:00000e60       __imp__SetTimer@16         00477e60     user32:USER32.dll
 0002:00000e64       __imp__SetWindowPos@28     00477e64     user32:USER32.dll
 0002:00000e68       __imp__TrackMouseEvent@4   00477e68     user32:USER32.dll
 0002:00000e6c       __imp__LoadImageA@24       00477e6c     user32:USER32.dll
 0002:00000e70       __imp__SetWindowRgn@12     00477e70     user32:USER32.dll
 0002:00000e74       __imp__GetSysColorBrush@4  00477e74     user32:USER32.dll
 0002:00000e78       __imp__RegisterClassExA@4  00477e78     user32:USER32.dll
 0002:00000e7c       __imp__CallWindowProcA@20  00477e7c     user32:USER32.dll
 0002:00000e80       __imp__GetForegroundWindow@0 00477e80     user32:USER32.dll
 0002:00000e84       __imp__KillTimer@8         00477e84     user32:USER32.dll
 0002:00000e88       __imp__GetDlgItem@8        00477e88     user32:USER32.dll
 0002:00000e8c       __imp__GetParent@4         00477e8c     user32:USER32.dll
 0002:00000e90       __imp__IsWindowVisible@4   00477e90     user32:USER32.dll
 0002:00000e94       __imp__OffsetRect@12       00477e94     user32:USER32.dll
 0002:00000e98       __imp__GetWindowRect@8     00477e98     user32:USER32.dll
 0002:00000e9c       __imp__ClientToScreen@8    00477e9c     user32:USER32.dll
 0002:00000ea0       __imp__IsWindow@4          00477ea0     user32:USER32.dll
 0002:00000ea4       __imp__GetClassNameA@12    00477ea4     user32:USER32.dll
 0002:00000ea8       __imp__EnableMenuItem@12   00477ea8     user32:USER32.dll
 0002:00000eac       __imp__SetCursor@4         00477eac     user32:USER32.dll
 0002:00000eb0       __imp__LoadCursorA@8       00477eb0     user32:USER32.dll
 0002:00000eb4       __imp__MessageBoxA@16      00477eb4     user32:USER32.dll
 0002:00000eb8       __imp__PostMessageA@16     00477eb8     user32:USER32.dll
 0002:00000ebc       __imp__CallNextHookEx@16   00477ebc     user32:USER32.dll
 0002:00000ec0       __imp__SetWindowLongA@12   00477ec0     user32:USER32.dll
 0002:00000ec4       __imp__UnhookWindowsHookEx@4 00477ec4     user32:USER32.dll
 0002:00000ec8       __imp__SetWindowsHookExA@16 00477ec8     user32:USER32.dll
 0002:00000ecc       __imp__GetMenuItemRect@16  00477ecc     user32:USER32.dll
 0002:00000ed0       __imp__IsMenu@4            00477ed0     user32:USER32.dll
 0002:00000ed4       __imp__GetMenuItemCount@4  00477ed4     user32:USER32.dll
 0002:00000ed8       __imp__ReleaseCapture@0    00477ed8     user32:USER32.dll
 0002:00000edc       __imp__CopyRect@8          00477edc     user32:USER32.dll
 0002:00000ee0       __imp__FillRect@12         00477ee0     user32:USER32.dll
 0002:00000ee4       __imp__InflateRect@12      00477ee4     user32:USER32.dll
 0002:00000ee8       __imp__DrawFrameControl@16 00477ee8     user32:USER32.dll
 0002:00000eec       __imp__FrameRect@12        00477eec     user32:USER32.dll
 0002:00000ef0       __imp__DrawFocusRect@8     00477ef0     user32:USER32.dll
 0002:00000ef4       __imp__DrawStateA@40       00477ef4     user32:USER32.dll
 0002:00000ef8       __imp__DrawEdge@16         00477ef8     user32:USER32.dll
 0002:00000efc       __imp__CreatePopupMenu@0   00477efc     user32:USER32.dll
 0002:00000f00       __imp__PtInRect@12         00477f00     user32:USER32.dll
 0002:00000f04       __imp__GetKeyState@4       00477f04     user32:USER32.dll
 0002:00000f08       __imp__GetFocus@0          00477f08     user32:USER32.dll
 0002:00000f0c       __imp__RedrawWindow@16     00477f0c     user32:USER32.dll
 0002:00000f10       __imp__IntersectRect@12    00477f10     user32:USER32.dll
 0002:00000f14       __imp__EqualRect@8         00477f14     user32:USER32.dll
 0002:00000f18       __imp__GetWindowLongA@8    00477f18     user32:USER32.dll
 0002:00000f1c       __imp__GetWindow@8         00477f1c     user32:USER32.dll
 0002:00000f20       __imp__GetDlgCtrlID@4      00477f20     user32:USER32.dll
 0002:00000f24       __imp__keybd_event@16      00477f24     user32:USER32.dll
 0002:00000f28       __imp__GetDC@4             00477f28     user32:USER32.dll
 0002:00000f2c       __imp__InvalidateRect@12   00477f2c     user32:USER32.dll
 0002:00000f30       __imp__GetSysColor@4       00477f30     user32:USER32.dll
 0002:00000f34       __imp__UpdateWindow@4      00477f34     user32:USER32.dll
 0002:00000f38       \177USER32_NULL_THUNK_DATA 00477f38     user32:USER32.dll
 0002:00000f3c       __imp__CoCreateInstance@20 00477f3c     ole32:ole32.dll
 0002:00000f40       __imp__StgOpenStorage@24   00477f40     ole32:ole32.dll
 0002:00000f44       __imp__StgCreateDocfile@16 00477f44     ole32:ole32.dll
 0002:00000f48       __imp__CoTaskMemFree@4     00477f48     ole32:ole32.dll
 0002:00000f4c       \177ole32_NULL_THUNK_DATA  00477f4c     ole32:ole32.dll
 0002:00000f50       __imp__sqlite3_column_bytes 00477f50     sqlite3:sqlite3.dll
 0002:00000f54       __imp__sqlite3_column_name 00477f54     sqlite3:sqlite3.dll
 0002:00000f58       __imp__sqlite3_column_decltype 00477f58     sqlite3:sqlite3.dll
 0002:00000f5c       __imp__sqlite3_column_type 00477f5c     sqlite3:sqlite3.dll
 0002:00000f60       __imp__sqlite3_errmsg      00477f60     sqlite3:sqlite3.dll
 0002:00000f64       __imp__sqlite3_finalize    00477f64     sqlite3:sqlite3.dll
 0002:00000f68       __imp__sqlite3_step        00477f68     sqlite3:sqlite3.dll
 0002:00000f6c       __imp__sqlite3_free_table  00477f6c     sqlite3:sqlite3.dll
 0002:00000f70       __imp__sqlite3_reset       00477f70     sqlite3:sqlite3.dll
 0002:00000f74       __imp__sqlite3_changes     00477f74     sqlite3:sqlite3.dll
 0002:00000f78       __imp__sqlite3_bind_text   00477f78     sqlite3:sqlite3.dll
 0002:00000f7c       __imp__sqlite3_bind_int    00477f7c     sqlite3:sqlite3.dll
 0002:00000f80       __imp__sqlite3_bind_double 00477f80     sqlite3:sqlite3.dll
 0002:00000f84       __imp__sqlite3_bind_blob   00477f84     sqlite3:sqlite3.dll
 0002:00000f88       __imp__sqlite3_bind_null   00477f88     sqlite3:sqlite3.dll
 0002:00000f8c       __imp__sqlite3_open        00477f8c     sqlite3:sqlite3.dll
 0002:00000f90       __imp__sqlite3_close       00477f90     sqlite3:sqlite3.dll
 0002:00000f94       __imp__sqlite3_exec        00477f94     sqlite3:sqlite3.dll
 0002:00000f98       __imp__sqlite3_column_double 00477f98     sqlite3:sqlite3.dll
 0002:00000f9c       __imp__sqlite3_column_int  00477f9c     sqlite3:sqlite3.dll
 0002:00000fa0       __imp__sqlite3_column_text 00477fa0     sqlite3:sqlite3.dll
 0002:00000fa4       __imp__sqlite3_get_table   00477fa4     sqlite3:sqlite3.dll
 0002:00000fa8       __imp__sqlite3_last_insert_rowid 00477fa8     sqlite3:sqlite3.dll
 0002:00000fac       __imp__sqlite3_busy_timeout 00477fac     sqlite3:sqlite3.dll
 0002:00000fb0       __imp__sqlite3_column_count 00477fb0     sqlite3:sqlite3.dll
 0002:00000fb4       __imp__sqlite3_vmprintf    00477fb4     sqlite3:sqlite3.dll
 0002:00000fb8       __imp__sqlite3_mprintf     00477fb8     sqlite3:sqlite3.dll
 0002:00000fbc       __imp__sqlite3_prepare     00477fbc     sqlite3:sqlite3.dll
 0002:00000fc0       __imp__sqlite3_column_blob 00477fc0     sqlite3:sqlite3.dll
 0002:00000fc4       __imp__sqlite3_free        00477fc4     sqlite3:sqlite3.dll
 0002:00000fc8       \177sqlite3_NULL_THUNK_DATA 00477fc8     sqlite3:sqlite3.dll
 0002:00000fcc       __imp__URLDownloadToFileA@20 00477fcc     urlmon:urlmon.dll
 0002:00000fd0       \177urlmon_NULL_THUNK_DATA 00477fd0     urlmon:urlmon.dll
 0002:00001000       ?messageMap@CAboutDialog@@1UAFX_MSGMAP@@B 00478000     AboutDialog.obj
 0002:00001008       ?_messageEntries@CAboutDialog@@0QBUAFX_MSGMAP_ENTRY@@B 00478008     AboutDialog.obj
 0002:00001020       ??_7CAboutDialog@@6B@      00478020     AboutDialog.obj
 0002:000010f8       ?messageMap@CCabooseDetailDialog@@1UAFX_MSGMAP@@B 004780f8     CabooseDetailDialog.obj
 0002:00001100       ?_messageEntries@CCabooseDetailDialog@@0QBUAFX_MSGMAP_ENTRY@@B 00478100     CabooseDetailDialog.obj
 0002:00001118       ??_7CCabooseDetailDialog@@6B@ 00478118     CabooseDetailDialog.obj
 0002:000011f0       ??_7CDateTimeCtrl@@6B@     004781f0     CabooseDetailDialog.obj
 0002:000012b0       ?messageMap@CCabooseDialog@@1UAFX_MSGMAP@@B 004782b0     CabooseDialog.obj
 0002:000012b8       ?_messageEntries@CCabooseDialog@@0QBUAFX_MSGMAP_ENTRY@@B 004782b8     CabooseDialog.obj
 0002:00001348       ??_7CCabooseDialog@@6B@    00478348     CabooseDialog.obj
 0002:00001420       ??_7CButton@@6B@           00478420     CabooseDialog.obj
 0002:000014e8       ?messageMap@CCarLocationTrainsDialog@@1UAFX_MSGMAP@@B 004784e8     CarLocationTrainsDialog.obj
 0002:000014f0       ?_messageEntries@CCarLocationTrainsDialog@@0QBUAFX_MSGMAP_ENTRY@@B 004784f0     CarLocationTrainsDialog.obj
 0002:00001550       ??_7CCarLocationTrainsDialog@@6B@ 00478550     CarLocationTrainsDialog.obj
 0002:00001628       ?messageMap@CCarsDialog@@1UAFX_MSGMAP@@B 00478628     CarsDialog.obj
 0002:00001630       ?_messageEntries@CCarsDialog@@0QBUAFX_MSGMAP_ENTRY@@B 00478630     CarsDialog.obj
 0002:000016c0       ??_7CCarsDialog@@6B@       004786c0     CarsDialog.obj
 0002:00001798       ??_7CComboBox@@6B@         00478798     CarsDialog.obj
 0002:00001868       __real@8@4005c800000000000000 00478868     CarsDialog.obj
 0002:00001870       __real@8@3ff8a3d70a3d70a3d800 00478870     CarsDialog.obj
 0002:00001878       __real@4@00000000000000000000 00478878     CarsDialog.obj
 0002:00001880       ?messageMap@CCarsListDialog@@1UAFX_MSGMAP@@B 00478880     CarsListDialog.obj
 0002:00001888       ?_messageEntries@CCarsListDialog@@0QBUAFX_MSGMAP_ENTRY@@B 00478888     CarsListDialog.obj
 0002:00001918       ??_7CCarsListDialog@@6B@   00478918     CarsListDialog.obj
 0002:000019f0       ?messageMap@CCarTypesDetailDialog@@1UAFX_MSGMAP@@B 004789f0     CarTypesDetailDialog.obj
 0002:000019f8       ?_messageEntries@CCarTypesDetailDialog@@0QBUAFX_MSGMAP_ENTRY@@B 004789f8     CarTypesDetailDialog.obj
 0002:00001a10       ??_7CCarTypesDetailDialog@@6B@ 00478a10     CarTypesDetailDialog.obj
 0002:00001ae8       ?messageMap@CCarTypesDialog@@1UAFX_MSGMAP@@B 00478ae8     CarTypesDialog.obj
 0002:00001af0       ?_messageEntries@CCarTypesDialog@@0QBUAFX_MSGMAP_ENTRY@@B 00478af0     CarTypesDialog.obj
 0002:00001b80       ??_7CCarTypesDialog@@6B@   00478b80     CarTypesDialog.obj
 0002:00001c58       ?messageMap@CCommoditiesDialog@@1UAFX_MSGMAP@@B 00478c58     CommoditiesDialog.obj
 0002:00001c60       ?_messageEntries@CCommoditiesDialog@@0QBUAFX_MSGMAP_ENTRY@@B 00478c60     CommoditiesDialog.obj
 0002:00001cd8       ??_7CCommoditiesDialog@@6B@ 00478cd8     CommoditiesDialog.obj
 0002:00001db0       ?messageMap@CEditCarDialog@@1UAFX_MSGMAP@@B 00478db0     EditCarDialog.obj
 0002:00001db8       ?_messageEntries@CEditCarDialog@@0QBUAFX_MSGMAP_ENTRY@@B 00478db8     EditCarDialog.obj
 0002:00001e00       ??_7CEditCarDialog@@6B@    00478e00     EditCarDialog.obj
 0002:00001ed8       ??_7CStatic@@6B@           00478ed8     EditCarDialog.obj
 0002:00001f98       ?messageMap@CEditCommodityDialog@@1UAFX_MSGMAP@@B 00478f98     EditCommodityDialog.obj
 0002:00001fa0       ?_messageEntries@CEditCommodityDialog@@0QBUAFX_MSGMAP_ENTRY@@B 00478fa0     EditCommodityDialog.obj
 0002:00001fb8       ??_7CEditCommodityDialog@@6B@ 00478fb8     EditCommodityDialog.obj
 0002:00002090       ?messageMap@CEditTrainDialog@@1UAFX_MSGMAP@@B 00479090     EditTrainDialog.obj
 0002:00002098       ?_messageEntries@CEditTrainDialog@@0QBUAFX_MSGMAP_ENTRY@@B 00479098     EditTrainDialog.obj
 0002:00002200       ??_7CEditTrainDialog@@6B@  00479200     EditTrainDialog.obj
 0002:000022d8       ??_7CListBox@@6B@          004792d8     EditTrainDialog.obj
 0002:000023b0       ??_7CEdit@@6B@             004793b0     EditTrainDialog.obj
 0002:00002470       ?messageMap@CEquipmentLocationDialog@@1UAFX_MSGMAP@@B 00479470     EquipmentLocationDialog.obj
 0002:00002478       ?_messageEntries@CEquipmentLocationDialog@@0QBUAFX_MSGMAP_ENTRY@@B 00479478     EquipmentLocationDialog.obj
 0002:000024a8       ??_7CEquipmentLocationDialog@@6B@ 004794a8     EquipmentLocationDialog.obj
 0002:00002580       ?messageMap@CEquipmentNotFoundDialog@@1UAFX_MSGMAP@@B 00479580     EquipmentNotFoundDialog.obj
 0002:00002588       ?_messageEntries@CEquipmentNotFoundDialog@@0QBUAFX_MSGMAP_ENTRY@@B 00479588     EquipmentNotFoundDialog.obj
 0002:000025e8       ??_7CEquipmentNotFoundDialog@@6B@ 004795e8     EquipmentNotFoundDialog.obj
 0002:000026c0       ??_7CTreeCtrl@@6B@         004796c0     EquipmentNotFoundDialog.obj
 0002:00002780       ??_7CMenu@@6B@             00479780     EquipmentNotFoundDialog.obj
 0002:0000279c       ??_7CObject@@6B@           0047979c     EquipmentNotFoundDialog.obj
 0002:000027b0       ?messageMap@CEquipmentTrackingDialog@@1UAFX_MSGMAP@@B 004797b0     EquipmentTrackingDialog.obj
 0002:000027b8       ?_messageEntries@CEquipmentTrackingDialog@@0QBUAFX_MSGMAP_ENTRY@@B 004797b8     EquipmentTrackingDialog.obj
 0002:000027e8       ??_7CEquipmentTrackingDialog@@6B@ 004797e8     EquipmentTrackingDialog.obj
 0002:000028c0       ?classCFolderDialog@CFolderDialog@@2UCRuntimeClass@@B 004798c0     FolderDlg.obj
 0002:000028d8       ?messageMap@CFolderDialog@@1UAFX_MSGMAP@@B 004798d8     FolderDlg.obj
 0002:000028e0       ?_messageEntries@CFolderDialog@@0QBUAFX_MSGMAP_ENTRY@@B 004798e0     FolderDlg.obj
 0002:000028f8       ??_7CFolderDialog@@6B@     004798f8     FolderDlg.obj
 0002:000029e0       ?messageMap@CIGDebugDialog@@1UAFX_MSGMAP@@B 004799e0     IGDebugDialog.obj
 0002:000029e8       ?_messageEntries@CIGDebugDialog@@0QBUAFX_MSGMAP_ENTRY@@B 004799e8     IGDebugDialog.obj
 0002:00002a00       ??_7CIGDebugDialog@@6B@    00479a00     IGDebugDialog.obj
 0002:00002ad8       ?messageMap@CIndustriesDialog@@1UAFX_MSGMAP@@B 00479ad8     IndustriesDialog.obj
 0002:00002ae0       ?_messageEntries@CIndustriesDialog@@0QBUAFX_MSGMAP_ENTRY@@B 00479ae0     IndustriesDialog.obj
 0002:00002b88       ??_7CIndustriesDialog@@6B@ 00479b88     IndustriesDialog.obj
 0002:00002c60       ?messageMap@CIndustryCarDetailDialog@@1UAFX_MSGMAP@@B 00479c60     IndustryCarDetailDialog.obj
 0002:00002c68       ?_messageEntries@CIndustryCarDetailDialog@@0QBUAFX_MSGMAP_ENTRY@@B 00479c68     IndustryCarDetailDialog.obj
 0002:00002ce0       ??_7CIndustryCarDetailDialog@@6B@ 00479ce0     IndustryCarDetailDialog.obj
 0002:00002db8       ?messageMap@CIndustryCarOrdersDialog@@1UAFX_MSGMAP@@B 00479db8     IndustryCarOrdersDialog.obj
 0002:00002dc0       ?_messageEntries@CIndustryCarOrdersDialog@@0QBUAFX_MSGMAP_ENTRY@@B 00479dc0     IndustryCarOrdersDialog.obj
 0002:00002dd8       ??_7CIndustryCarOrdersDialog@@6BCResizableState@@@ 00479dd8     IndustryCarOrdersDialog.obj
 0002:00002de0       ??_7CIndustryCarOrdersDialog@@6BCResizableMinMax@@@ 00479de0     IndustryCarOrdersDialog.obj
 0002:00002de4       ??_7CIndustryCarOrdersDialog@@6BCResizableGrip@@@ 00479de4     IndustryCarOrdersDialog.obj
 0002:00002dec       ??_7CIndustryCarOrdersDialog@@6BCResizableLayout@@@ 00479dec     IndustryCarOrdersDialog.obj
 0002:00002e04       ??_7CIndustryCarOrdersDialog@@6BCDialog@@@ 00479e04     IndustryCarOrdersDialog.obj
 0002:00002ee0       ?messageMap@CIndustryDetailDialog@@1UAFX_MSGMAP@@B 00479ee0     IndustryDetailDialog.obj
 0002:00002ee8       ?_messageEntries@CIndustryDetailDialog@@0QBUAFX_MSGMAP_ENTRY@@B 00479ee8     IndustryDetailDialog.obj
 0002:00002f00       ??_7CIndustryDetailDialog@@6B@ 00479f00     IndustryDetailDialog.obj
 0002:00002fd8       __real@4@3ff8a3d70a3d70a3d800 00479fd8     IndustryDetailDialog.obj
 0002:00002fe0       ?messageMap@CIndustryDetailDialog_Cars@@1UAFX_MSGMAP@@B 00479fe0     IndustryDetailDialog_Cars.obj
 0002:00002fe8       ?_messageEntries@CIndustryDetailDialog_Cars@@0QBUAFX_MSGMAP_ENTRY@@B 00479fe8     IndustryDetailDialog_Cars.obj
 0002:00003060       ??_7CIndustryDetailDialog_Cars@@6B@ 0047a060     IndustryDetailDialog_Cars.obj
 0002:00003138       ?messageMap@CIndustryDetailDialog_Commodities@@1UAFX_MSGMAP@@B 0047a138     IndustryDetailDialog_Commodities.obj
 0002:00003140       ?_messageEntries@CIndustryDetailDialog_Commodities@@0QBUAFX_MSGMAP_ENTRY@@B 0047a140     IndustryDetailDialog_Commodities.obj
 0002:000031b8       ??_7CIndustryDetailDialog_Commodities@@6B@ 0047a1b8     IndustryDetailDialog_Commodities.obj
 0002:00003290       ?messageMap@CindustryDetailTabCtrl@@1UAFX_MSGMAP@@B 0047a290     industryDetailTabCtrl.obj
 0002:00003298       ?_messageEntries@CindustryDetailTabCtrl@@0QBUAFX_MSGMAP_ENTRY@@B 0047a298     industryDetailTabCtrl.obj
 0002:000032c8       ??_7CindustryDetailTabCtrl@@6B@ 0047a2c8     industryDetailTabCtrl.obj
 0002:00003390       ?messageMap@CIndustryUsageDialog@@1UAFX_MSGMAP@@B 0047a390     IndustryUsageDialog.obj
 0002:00003398       ?_messageEntries@CIndustryUsageDialog@@0QBUAFX_MSGMAP_ENTRY@@B 0047a398     IndustryUsageDialog.obj
 0002:000033c8       ??_7CIndustryUsageDialog@@6B@ 0047a3c8     IndustryUsageDialog.obj
 0002:000034a0       ?messageMap@CLocationDetailDialog@@1UAFX_MSGMAP@@B 0047a4a0     LocationDetailDialog.obj
 0002:000034a8       ?_messageEntries@CLocationDetailDialog@@0QBUAFX_MSGMAP_ENTRY@@B 0047a4a8     LocationDetailDialog.obj
 0002:000034d8       ??_7CLocationDetailDialog@@6B@ 0047a4d8     LocationDetailDialog.obj
 0002:000035b0       ?messageMap@CLocationDialog@@1UAFX_MSGMAP@@B 0047a5b0     LocationDialog.obj
 0002:000035b8       ?_messageEntries@CLocationDialog@@0QBUAFX_MSGMAP_ENTRY@@B 0047a5b8     LocationDialog.obj
 0002:00003648       ??_7CLocationDialog@@6B@   0047a648     LocationDialog.obj
 0002:00003720       ?messageMap@CLocomotiveDetailDialog@@1UAFX_MSGMAP@@B 0047a720     LocomotiveDetailDialog.obj
 0002:00003728       ?_messageEntries@CLocomotiveDetailDialog@@0QBUAFX_MSGMAP_ENTRY@@B 0047a728     LocomotiveDetailDialog.obj
 0002:000037a0       ??_7CLocomotiveDetailDialog@@6B@ 0047a7a0     LocomotiveDetailDialog.obj
 0002:00003878       ?messageMap@CLocomotiveDialog@@1UAFX_MSGMAP@@B 0047a878     LocomotiveDialog.obj
 0002:00003880       ?_messageEntries@CLocomotiveDialog@@0QBUAFX_MSGMAP_ENTRY@@B 0047a880     LocomotiveDialog.obj
 0002:000038f8       ??_7CLocomotiveDialog@@6B@ 0047a8f8     LocomotiveDialog.obj
 0002:000039d0       ?classCMainFrame@CMainFrame@@2UCRuntimeClass@@B 0047a9d0     MainFrm.obj
 0002:000039e8       ?messageMap@CMainFrame@@1UAFX_MSGMAP@@B 0047a9e8     MainFrm.obj
 0002:000039f0       ?_messageEntries@CMainFrame@@0QBUAFX_MSGMAP_ENTRY@@B 0047a9f0     MainFrm.obj
 0002:00003d80       ??_7CMainFrame@@6B@        0047ad80     MainFrm.obj
 0002:00003e7c       ??_7CStatusBarXP@@6B@      0047ae7c     MainFrm.obj
 0002:00003f68       ??_7CGdiObject@@6B@        0047af68     MainFrm.obj
 0002:00003f80       ?messageMap@CNewVersionDialog@@1UAFX_MSGMAP@@B 0047af80     NewVersionDialog.obj
 0002:00003f88       ?_messageEntries@CNewVersionDialog@@0QBUAFX_MSGMAP_ENTRY@@B 0047af88     NewVersionDialog.obj
 0002:00003fb8       ??_7CNewVersionDialog@@6B@ 0047afb8     NewVersionDialog.obj
 0002:00004090       ?messageMap@CPDFViewerDialog@@1UAFX_MSGMAP@@B 0047b090     PDFViewerDialog.obj
 0002:00004098       ?_messageEntries@CPDFViewerDialog@@0QBUAFX_MSGMAP_ENTRY@@B 0047b098     PDFViewerDialog.obj
 0002:000040c8       ?eventsinkMap@CPDFViewerDialog@@1UAFX_EVENTSINKMAP@@B 0047b0c8     PDFViewerDialog.obj
 0002:000040d8       ?_eventsinkEntries@CPDFViewerDialog@@0QBUAFX_EVENTSINKMAP_ENTRY@@B 0047b0d8     PDFViewerDialog.obj
 0002:00004100       ??_7CPDFViewerDialog@@6B@  0047b100     PDFViewerDialog.obj
 0002:000041d8       ?messageMap@CPhysicalLayoutDialog@@1UAFX_MSGMAP@@B 0047b1d8     PhysicalLayoutDialog.obj
 0002:000041e0       ?_messageEntries@CPhysicalLayoutDialog@@0QBUAFX_MSGMAP_ENTRY@@B 0047b1e0     PhysicalLayoutDialog.obj
 0002:000043f0       ??_7CPhysicalLayoutDialog@@6BCResizableState@@@ 0047b3f0     PhysicalLayoutDialog.obj
 0002:000043f8       ??_7CPhysicalLayoutDialog@@6BCResizableMinMax@@@ 0047b3f8     PhysicalLayoutDialog.obj
 0002:000043fc       ??_7CPhysicalLayoutDialog@@6BCResizableGrip@@@ 0047b3fc     PhysicalLayoutDialog.obj
 0002:00004404       ??_7CPhysicalLayoutDialog@@6BCResizableLayout@@@ 0047b404     PhysicalLayoutDialog.obj
 0002:0000441c       ??_7CPhysicalLayoutDialog@@6BCDialog@@@ 0047b41c     PhysicalLayoutDialog.obj
 0002:000044f4       ??_7CFont@@6B@             0047b4f4     PhysicalLayoutDialog.obj
 0002:00004508       ?messageMap@CPreferencesDialog@@1UAFX_MSGMAP@@B 0047b508     PreferencesDialog.obj
 0002:00004510       ?_messageEntries@CPreferencesDialog@@0QBUAFX_MSGMAP_ENTRY@@B 0047b510     PreferencesDialog.obj
 0002:00004540       ??_7CPreferencesDialog@@6B@ 0047b540     PreferencesDialog.obj
 0002:00004618       ??_7?$CArray@HH@@6B@       0047b618     Reports.obj
 0002:0000462c       ??_7?$CArray@VCString@@V1@@@6B@ 0047b62c     Reports.obj
 0002:00004640       __real@8@3fffc90fd7e45803d000 0047b640     Reports.obj
 0002:00004648       __real@4@4004f000000000000000 0047b648     Reports.obj
 0002:00004650       ?messageMap@CRunTrainsDialog@@1UAFX_MSGMAP@@B 0047b650     RunTrainsDialog.obj
 0002:00004658       ?_messageEntries@CRunTrainsDialog@@0QBUAFX_MSGMAP_ENTRY@@B 0047b658     RunTrainsDialog.obj
 0002:000047f0       ??_7CRunTrainsDialog@@6B@  0047b7f0     RunTrainsDialog.obj
 0002:000048c8       ?messageMap@CScheduledTrainsReportsDialog@@1UAFX_MSGMAP@@B 0047b8c8     ScheduledTrainsReportsDialog.obj
 0002:000048d0       ?_messageEntries@CScheduledTrainsReportsDialog@@0QBUAFX_MSGMAP_ENTRY@@B 0047b8d0     ScheduledTrainsReportsDialog.obj
 0002:00004930       ??_7CScheduledTrainsReportsDialog@@6B@ 0047b930     ScheduledTrainsReportsDialog.obj
 0002:00004a08       ?messageMap@CSidingDetailDialog@@1UAFX_MSGMAP@@B 0047ba08     SidingDetailDialog.obj
 0002:00004a10       ?_messageEntries@CSidingDetailDialog@@0QBUAFX_MSGMAP_ENTRY@@B 0047ba10     SidingDetailDialog.obj
 0002:00004a28       ??_7CSidingDetailDialog@@6B@ 0047ba28     SidingDetailDialog.obj
 0002:00004b00       ?messageMap@CSidingsDialog@@1UAFX_MSGMAP@@B 0047bb00     SidingsDialog.obj
 0002:00004b08       ?_messageEntries@CSidingsDialog@@0QBUAFX_MSGMAP_ENTRY@@B 0047bb08     SidingsDialog.obj
 0002:00004bb0       ??_7CSidingsDialog@@6B@    0047bbb0     SidingsDialog.obj
 0002:00004c88       _CLSID_XMLDocument         0047bc88     StdAfx.obj
 0002:00004c98       _IID_IXMLError             0047bc98     StdAfx.obj
 0002:00004ca8       _IID_IXMLAttribute         0047bca8     StdAfx.obj
 0002:00004cb8       _IID_IXMLElement2          0047bcb8     StdAfx.obj
 0002:00004cc8       _IID_IXMLDocument2         0047bcc8     StdAfx.obj
 0002:00004cd8       _IID_IXMLElement           0047bcd8     StdAfx.obj
 0002:00004ce8       _IID_IXMLDocument          0047bce8     StdAfx.obj
 0002:00004cf8       _IID_IXMLElementCollection 0047bcf8     StdAfx.obj
 0002:00004d08       _CLSID_XMLDSOControl       0047bd08     StdAfx.obj
 0002:00004d18       _IID_IXMLDSOControl        0047bd18     StdAfx.obj
 0002:00004d28       _CLSID_XMLHTTPRequest      0047bd28     StdAfx.obj
 0002:00004d38       _IID_IXMLHttpRequest       0047bd38     StdAfx.obj
 0002:00004d48       _CLSID_DOMFreeThreadedDocument 0047bd48     StdAfx.obj
 0002:00004d58       _CLSID_DOMDocument         0047bd58     StdAfx.obj
 0002:00004d68       _DIID_XMLDOMDocumentEvents 0047bd68     StdAfx.obj
 0002:00004d78       _IID_IXTLRuntime           0047bd78     StdAfx.obj
 0002:00004d88       _IID_IXMLDOMEntity         0047bd88     StdAfx.obj
 0002:00004d98       _IID_IXMLDOMNotation       0047bd98     StdAfx.obj
 0002:00004da8       _IID_IXMLDOMParseError     0047bda8     StdAfx.obj
 0002:00004db8       _IID_IXMLDOMEntityReference 0047bdb8     StdAfx.obj
 0002:00004dc8       _IID_IXMLDOMProcessingInstruction 0047bdc8     StdAfx.obj
 0002:00004dd8       _IID_IXMLDOMCDATASection   0047bdd8     StdAfx.obj
 0002:00004de8       _IID_IXMLDOMComment        0047bde8     StdAfx.obj
 0002:00004df8       _IID_IXMLDOMText           0047bdf8     StdAfx.obj
 0002:00004e08       _IID_IXMLDOMCharacterData  0047be08     StdAfx.obj
 0002:00004e18       _IID_IXMLDOMDocumentFragment 0047be18     StdAfx.obj
 0002:00004e28       _IID_IXMLDOMAttribute      0047be28     StdAfx.obj
 0002:00004e38       _IID_IXMLDOMElement        0047be38     StdAfx.obj
 0002:00004e48       _IID_IXMLDOMDocumentType   0047be48     StdAfx.obj
 0002:00004e58       _IID_IXMLDOMDocument       0047be58     StdAfx.obj
 0002:00004e68       _IID_IXMLDOMNamedNodeMap   0047be68     StdAfx.obj
 0002:00004e78       _IID_IXMLDOMNodeList       0047be78     StdAfx.obj
 0002:00004e88       _IID_IXMLDOMNode           0047be88     StdAfx.obj
 0002:00004e98       _IID_IXMLDOMImplementation 0047be98     StdAfx.obj
 0002:00004ea8       _LIBID_MSXML               0047bea8     StdAfx.obj
 0002:00004eb8       ?messageMap@CTerminateNewLocationDialog@@1UAFX_MSGMAP@@B 0047beb8     TerminateNewLocationDialog.obj
 0002:00004ec0       ?_messageEntries@CTerminateNewLocationDialog@@0QBUAFX_MSGMAP_ENTRY@@B 0047bec0     TerminateNewLocationDialog.obj
 0002:00004f20       ??_7CTerminateNewLocationDialog@@6B@ 0047bf20     TerminateNewLocationDialog.obj
 0002:00004ff8       ?messageMap@CTerminateTrainDialog@@1UAFX_MSGMAP@@B 0047bff8     TerminateTrainDialog.obj
 0002:00005000       ?_messageEntries@CTerminateTrainDialog@@0QBUAFX_MSGMAP_ENTRY@@B 0047c000     TerminateTrainDialog.obj
 0002:00005048       ??_7CTerminateTrainDialog@@6BCResizableState@@@ 0047c048     TerminateTrainDialog.obj
 0002:00005050       ??_7CTerminateTrainDialog@@6BCResizableMinMax@@@ 0047c050     TerminateTrainDialog.obj
 0002:00005054       ??_7CTerminateTrainDialog@@6BCResizableGrip@@@ 0047c054     TerminateTrainDialog.obj
 0002:0000505c       ??_7CTerminateTrainDialog@@6BCResizableLayout@@@ 0047c05c     TerminateTrainDialog.obj
 0002:00005074       ??_7CTerminateTrainDialog@@6BCDialog@@@ 0047c074     TerminateTrainDialog.obj
 0002:00005150       ?messageMap@CTrainDetailDialog@@1UAFX_MSGMAP@@B 0047c150     TrainDetailDialog.obj
 0002:00005158       ?_messageEntries@CTrainDetailDialog@@0QBUAFX_MSGMAP_ENTRY@@B 0047c158     TrainDetailDialog.obj
 0002:000051d0       ??_7CTrainDetailDialog@@6B@ 0047c1d0     TrainDetailDialog.obj
 0002:000052a8       ?messageMap@CTrainOpsApp@@1UAFX_MSGMAP@@B 0047c2a8     TrainOps.obj
 0002:000052b0       ?_messageEntries@CTrainOpsApp@@0QBUAFX_MSGMAP_ENTRY@@B 0047c2b0     TrainOps.obj
 0002:00005310       ??_7CTrainOpsApp@@6B@      0047c310     TrainOps.obj
 0002:000053b8       ?classCTrainOpsDoc@CTrainOpsDoc@@2UCRuntimeClass@@B 0047c3b8     TrainOpsDoc.obj
 0002:000053d0       ?messageMap@CTrainOpsDoc@@1UAFX_MSGMAP@@B 0047c3d0     TrainOpsDoc.obj
 0002:000053d8       ?_messageEntries@CTrainOpsDoc@@0QBUAFX_MSGMAP_ENTRY@@B 0047c3d8     TrainOpsDoc.obj
 0002:000053f0       ??_7CTrainOpsDoc@@6B@      0047c3f0     TrainOpsDoc.obj
 0002:000054a8       ?classCTrainOpsView@CTrainOpsView@@2UCRuntimeClass@@B 0047c4a8     TrainOpsView.obj
 0002:000054c0       ?messageMap@CTrainOpsView@@1UAFX_MSGMAP@@B 0047c4c0     TrainOpsView.obj
 0002:000054c8       ?_messageEntries@CTrainOpsView@@0QBUAFX_MSGMAP_ENTRY@@B 0047c4c8     TrainOpsView.obj
 0002:00005540       ??_7CTrainOpsView@@6B@     0047c540     TrainOpsView.obj
 0002:00005650       ?messageMap@CTrainsDialog@@1UAFX_MSGMAP@@B 0047c650     TrainsDialog.obj
 0002:00005658       ?_messageEntries@CTrainsDialog@@0QBUAFX_MSGMAP_ENTRY@@B 0047c658     TrainsDialog.obj
 0002:000056e8       ??_7CTrainsDialog@@6B@     0047c6e8     TrainsDialog.obj
 0002:000057c0       ?classCMSChart@CMSChart@@2UCRuntimeClass@@B 0047c7c0     mschart.obj
 0002:000057d8       ??_7CMSChart@@6B@          0047c7d8     mschart.obj
 0002:00005898       ?clsid@?1??GetClsid@CMSChart@@QAEABU_GUID@@XZ@4U3@B 0047c898     mschart.obj
 0002:000058a8       ?messageMap@CAMSEdit@@1UAFX_MSGMAP@@B 0047c8a8     amsEdit.obj
 0002:000058b0       ?_messageEntries@CAMSEdit@@0QBUAFX_MSGMAP_ENTRY@@B 0047c8b0     amsEdit.obj
 0002:00005940       ?messageMap@CAMSAlphanumericEdit@@1UAFX_MSGMAP@@B 0047c940     amsEdit.obj
 0002:00005948       ?_messageEntries@CAMSAlphanumericEdit@@0QBUAFX_MSGMAP_ENTRY@@B 0047c948     amsEdit.obj
 0002:00005a08       ?messageMap@CAMSMaskedEdit@@1UAFX_MSGMAP@@B 0047ca08     amsEdit.obj
 0002:00005a10       ?_messageEntries@CAMSMaskedEdit@@0QBUAFX_MSGMAP_ENTRY@@B 0047ca10     amsEdit.obj
 0002:00005ad0       ?messageMap@CAMSNumericEdit@@1UAFX_MSGMAP@@B 0047cad0     amsEdit.obj
 0002:00005ad8       ?_messageEntries@CAMSNumericEdit@@0QBUAFX_MSGMAP_ENTRY@@B 0047cad8     amsEdit.obj
 0002:00005b98       ?messageMap@CAMSIntegerEdit@@1UAFX_MSGMAP@@B 0047cb98     amsEdit.obj
 0002:00005ba0       ?_messageEntries@CAMSIntegerEdit@@0QBUAFX_MSGMAP_ENTRY@@B 0047cba0     amsEdit.obj
 0002:00005c60       ?messageMap@CAMSCurrencyEdit@@1UAFX_MSGMAP@@B 0047cc60     amsEdit.obj
 0002:00005c68       ?_messageEntries@CAMSCurrencyEdit@@0QBUAFX_MSGMAP_ENTRY@@B 0047cc68     amsEdit.obj
 0002:00005d28       ?messageMap@CAMSDateEdit@@1UAFX_MSGMAP@@B 0047cd28     amsEdit.obj
 0002:00005d30       ?messageMap@CAMSTimeEdit@@1UAFX_MSGMAP@@B 0047cd30     amsEdit.obj
 0002:00005d38       ?messageMap@CAMSDateTimeEdit@@1UAFX_MSGMAP@@B 0047cd38     amsEdit.obj
 0002:00005d40       ?messageMap@CAMSMultiMaskedEdit@@1UAFX_MSGMAP@@B 0047cd40     amsEdit.obj
 0002:00005d48       ??_7CAMSEdit@@6B@          0047cd48     amsEdit.obj
 0002:00005e14       ??_7CBrush@@6B@            0047ce14     amsEdit.obj
 0002:00005e28       ??_7Behavior@CAMSEdit@@6B@ 0047ce28     amsEdit.obj
 0002:00005e4c       ??_7AlphanumericBehavior@CAMSEdit@@6B@ 0047ce4c     amsEdit.obj
 0002:00005e70       ??_7MaskedBehavior@CAMSEdit@@6B@ 0047ce70     amsEdit.obj
 0002:00005e94       ??_7?$CArray@VSymbol@MaskedBehavior@CAMSEdit@@ABV123@@@6B@ 0047ce94     amsEdit.obj
 0002:00005ea8       ??_7Symbol@MaskedBehavior@CAMSEdit@@6B@ 0047cea8     amsEdit.obj
 0002:00005eb4       ??_7NumericBehavior@CAMSEdit@@6B@ 0047ceb4     amsEdit.obj
 0002:00005ee0       __real@8@43fefffffffffffff800 0047cee0     amsEdit.obj
 0002:00005ee8       __real@8@c3fefffffffffffff800 0047cee8     amsEdit.obj
 0002:00005ef0       ??_7DateBehavior@CAMSEdit@@6BBehavior@1@@ 0047cef0     amsEdit.obj
 0002:00005f14       ??_7DateBehavior@CAMSEdit@@6B01@@ 0047cf14     amsEdit.obj
 0002:00005f20       ??_8DateBehavior@CAMSEdit@@7B@ 0047cf20     amsEdit.obj
 0002:00005f28       ??_7TimeBehavior@CAMSEdit@@6BBehavior@1@@ 0047cf28     amsEdit.obj
 0002:00005f4c       ??_7TimeBehavior@CAMSEdit@@6B01@@ 0047cf4c     amsEdit.obj
 0002:00005f58       ??_8TimeBehavior@CAMSEdit@@7B@ 0047cf58     amsEdit.obj
 0002:00005f60       ??_7DateTimeBehavior@CAMSEdit@@6BBehavior@1@@ 0047cf60     amsEdit.obj
 0002:00005f84       ??_7DateTimeBehavior@CAMSEdit@@6BTimeBehavior@1@@ 0047cf84     amsEdit.obj
 0002:00005f90       ??_7DateTimeBehavior@CAMSEdit@@6BDateBehavior@1@@ 0047cf90     amsEdit.obj
 0002:00005f9c       ??_8DateTimeBehavior@CAMSEdit@@7BTimeBehavior@1@@ 0047cf9c     amsEdit.obj
 0002:00005fa4       ??_8DateTimeBehavior@CAMSEdit@@7BDateBehavior@1@@ 0047cfa4     amsEdit.obj
 0002:00005fac       ??_7CAMSAlphanumericEdit@@6BCAMSEdit@@@ 0047cfac     amsEdit.obj
 0002:00006078       ??_7CAMSAlphanumericEdit@@6BAlphanumericBehavior@CAMSEdit@@@ 0047d078     amsEdit.obj
 0002:0000609c       ??_7CAMSMaskedEdit@@6BCAMSEdit@@@ 0047d09c     amsEdit.obj
 0002:00006168       ??_7CAMSMaskedEdit@@6BMaskedBehavior@CAMSEdit@@@ 0047d168     amsEdit.obj
 0002:0000618c       ??_7CAMSNumericEdit@@6BCAMSEdit@@@ 0047d18c     amsEdit.obj
 0002:00006258       ??_7CAMSNumericEdit@@6BNumericBehavior@CAMSEdit@@@ 0047d258     amsEdit.obj
 0002:00006284       ??_7CAMSIntegerEdit@@6BNumericBehavior@CAMSEdit@@@ 0047d284     amsEdit.obj
 0002:000062b0       ??_7CAMSIntegerEdit@@6BCAMSEdit@@@ 0047d2b0     amsEdit.obj
 0002:0000637c       ??_7CAMSCurrencyEdit@@6BNumericBehavior@CAMSEdit@@@ 0047d37c     amsEdit.obj
 0002:000063a8       ??_7CAMSCurrencyEdit@@6BCAMSEdit@@@ 0047d3a8     amsEdit.obj
 0002:00006474       ??_7CAMSDateEdit@@6BBehavior@CAMSEdit@@@ 0047d474     amsEdit.obj
 0002:00006498       ??_7CAMSDateEdit@@6BDateBehavior@CAMSEdit@@@ 0047d498     amsEdit.obj
 0002:000064a4       ??_7CAMSDateEdit@@6B@      0047d4a4     amsEdit.obj
 0002:00006570       ??_8CAMSDateEdit@@7B@      0047d570     amsEdit.obj
 0002:00006578       ??_7CAMSTimeEdit@@6BBehavior@CAMSEdit@@@ 0047d578     amsEdit.obj
 0002:0000659c       ??_7CAMSTimeEdit@@6BTimeBehavior@CAMSEdit@@@ 0047d59c     amsEdit.obj
 0002:000065a8       ??_7CAMSTimeEdit@@6B@      0047d5a8     amsEdit.obj
 0002:00006674       ??_8CAMSTimeEdit@@7B@      0047d674     amsEdit.obj
 0002:0000667c       ??_7CAMSDateTimeEdit@@6BBehavior@CAMSEdit@@@ 0047d67c     amsEdit.obj
 0002:000066a0       ??_7CAMSDateTimeEdit@@6BTimeBehavior@CAMSEdit@@@ 0047d6a0     amsEdit.obj
 0002:000066ac       ??_7CAMSDateTimeEdit@@6BDateBehavior@CAMSEdit@@@ 0047d6ac     amsEdit.obj
 0002:000066b8       ??_7CAMSDateTimeEdit@@6B@  0047d6b8     amsEdit.obj
 0002:00006784       ??_8CAMSDateTimeEdit@@7BTimeBehavior@CAMSEdit@@@ 0047d784     amsEdit.obj
 0002:0000678c       ??_8CAMSDateTimeEdit@@7BDateBehavior@CAMSEdit@@@ 0047d78c     amsEdit.obj
 0002:00006794       ??_7CAMSMultiMaskedEdit@@6BBehavior@CAMSEdit@@@ 0047d794     amsEdit.obj
 0002:000067b8       ??_7CAMSMultiMaskedEdit@@6BTimeBehavior@CAMSEdit@@@ 0047d7b8     amsEdit.obj
 0002:000067c4       ??_7CAMSMultiMaskedEdit@@6BDateBehavior@CAMSEdit@@@ 0047d7c4     amsEdit.obj
 0002:000067d0       ??_7CAMSMultiMaskedEdit@@6BMaskedBehavior@CAMSEdit@@@ 0047d7d0     amsEdit.obj
 0002:000067f4       ??_7CAMSMultiMaskedEdit@@6BNumericBehavior@CAMSEdit@@@ 0047d7f4     amsEdit.obj
 0002:00006820       ??_7CAMSMultiMaskedEdit@@6BAlphanumericBehavior@CAMSEdit@@@ 0047d820     amsEdit.obj
 0002:00006844       ??_7CAMSMultiMaskedEdit@@6BCAMSEdit@@@ 0047d844     amsEdit.obj
 0002:00006910       ??_8CAMSMultiMaskedEdit@@7BTimeBehavior@CAMSEdit@@@ 0047d910     amsEdit.obj
 0002:00006918       ??_8CAMSMultiMaskedEdit@@7BDateBehavior@CAMSEdit@@@ 0047d918     amsEdit.obj
 0002:00006920       ?classCCheckableGroupBox@CCheckableGroupBox@@2UCRuntimeClass@@B 0047d920     CheckableGroupBox.obj
 0002:00006938       ?messageMap@CCheckableGroupBox@@1UAFX_MSGMAP@@B 0047d938     CheckableGroupBox.obj
 0002:00006940       ?_messageEntries@CCheckableGroupBox@@0QBUAFX_MSGMAP_ENTRY@@B 0047d940     CheckableGroupBox.obj
 0002:000069d0       ??_7CCheckableGroupBox@@6B@ 0047d9d0     CheckableGroupBox.obj
 0002:00006a98       ?messageMap@CColorEdit@@1UAFX_MSGMAP@@B 0047da98     ColorEdit.obj
 0002:00006aa0       ?_messageEntries@CColorEdit@@0QBUAFX_MSGMAP_ENTRY@@B 0047daa0     ColorEdit.obj
 0002:00006ad0       ??_7CColorEdit@@6B@        0047dad0     ColorEdit.obj
 0002:00006b90       ?messageMap@CColorStatic@@1UAFX_MSGMAP@@B 0047db90     ColorStatic.obj
 0002:00006b98       ?_messageEntries@CColorStatic@@0QBUAFX_MSGMAP_ENTRY@@B 0047db98     ColorStatic.obj
 0002:00006bc8       ??_7CColorStatic@@6B@      0047dbc8     ColorStatic.obj
 0002:00006c88       ?messageMap@CComboListCtrl@@1UAFX_MSGMAP@@B 0047dc88     ComboListCtrl.obj
 0002:00006c90       ?_messageEntries@CComboListCtrl@@0QBUAFX_MSGMAP_ENTRY@@B 0047dc90     ComboListCtrl.obj
 0002:00006d20       ??_7CComboListCtrl@@6B@    0047dd20     ComboListCtrl.obj
 0002:00006de4       ??_7?$CList@HH@@6B@        0047dde4     ComboListCtrl.obj
 0002:00006df8       ??_7CListCtrl@@6B@         0047ddf8     ComboListCtrl.obj
 0002:00006ec0       ?messageMap@CCoolBtn@@1UAFX_MSGMAP@@B 0047dec0     CoolBtn.obj
 0002:00006ec8       ?_messageEntries@CCoolBtn@@0QBUAFX_MSGMAP_ENTRY@@B 0047dec8     CoolBtn.obj
 0002:00006fa0       ??_7CCoolBtn@@6B@          0047dfa0     CoolBtn.obj
 0002:00007064       ??_7CBitmap@@6B@           0047e064     CoolBtn.obj
 0002:00007078       __real@4@3ff6b60b60b60b60b800 0047e078     Draw.obj
 0002:0000707c       __real@4@4006ff00000000000000 0047e07c     Draw.obj
 0002:00007080       __real@4@4007b400000000000000 0047e080     Draw.obj
 0002:00007084       __real@4@40018000000000000000 0047e084     Draw.obj
 0002:00007088       __real@4@40008000000000000000 0047e088     Draw.obj
 0002:0000708c       __real@4@4001c000000000000000 0047e08c     Draw.obj
 0002:00007090       __real@4@4007ff00000000000000 0047e090     Draw.obj
 0002:00007094       __real@4@3ffe8000000000000000 0047e094     Draw.obj
 0002:00007098       __real@4@3ff68080808080808000 0047e098     Draw.obj
 0002:0000709c       __real@4@4005f000000000000000 0047e09c     Draw.obj
 0002:000070a0       __real@4@3fff8000000000000000 0047e0a0     Draw.obj
 0002:000070a4       __real@4@3ff78080808080808000 0047e0a4     Draw.obj
 0002:000070a8       __real@4@4006f000000000000000 0047e0a8     Draw.obj
 0002:000070ac       __real@4@4006b400000000000000 0047e0ac     Draw.obj
 0002:000070b0       __real@4@3ff98888888888888800 0047e0b0     Draw.obj
 0002:000070b4       ??_7CBufferDC@@6B@         0047e0b4     Draw.obj
 0002:00007130       ??_7CPen@@6B@              0047e130     Draw.obj
 0002:00007148       ?messageMap@CInPlaceCombo@@1UAFX_MSGMAP@@B 0047e148     InPlaceCombo.obj
 0002:00007150       ?_messageEntries@CInPlaceCombo@@0QBUAFX_MSGMAP_ENTRY@@B 0047e150     InPlaceCombo.obj
 0002:000071c8       ??_7CInPlaceCombo@@6B@     0047e1c8     InPlaceCombo.obj
 0002:00007298       ?messageMap@CInPlaceEdit@@1UAFX_MSGMAP@@B 0047e298     InPlaceEdit.obj
 0002:000072a0       ?_messageEntries@CInPlaceEdit@@0QBUAFX_MSGMAP_ENTRY@@B 0047e2a0     InPlaceEdit.obj
 0002:00007318       ??_7CInPlaceEdit@@6B@      0047e318     InPlaceEdit.obj
 0002:000073d8       ?classCInputBox@CInputBox@@2UCRuntimeClass@@B 0047e3d8     InputBox.obj
 0002:000073f0       ?messageMap@CInputBox@@1UAFX_MSGMAP@@B 0047e3f0     InputBox.obj
 0002:000073f8       ?_messageEntries@CInputBox@@0QBUAFX_MSGMAP_ENTRY@@B 0047e3f8     InputBox.obj
 0002:00007470       ??_7CInputBox@@6B@         0047e470     InputBox.obj
 0002:00007570       ?messageMap@CLinePlot@@1UAFX_MSGMAP@@B 0047e570     LinePlot.obj
 0002:00007578       ?_messageEntries@CLinePlot@@0QBUAFX_MSGMAP_ENTRY@@B 0047e578     LinePlot.obj
 0002:00007620       ??_7CPlotData@@6B@         0047e620     LinePlot.obj
 0002:00007628       __real@8@00000000000000000000 0047e628     LinePlot.obj
 0002:00007630       ??_7CLinePlot@@6B@         0047e630     LinePlot.obj
 0002:000076f0       __real@4@3fffa000000000000000 0047e6f0     LinePlot.obj
 0002:000076f4       ??_7CMemDC@@6B@            0047e6f4     LinePlot.obj
 0002:00007770       __real@4@3ff8ccccccccccccd000 0047e770     LinePlot.obj
 0002:0000779c       ??_7?$CMap@HHVCString@@AAV1@@@6B@ 0047e79c     MenuXP.obj
 0002:000077b0       ??_7?$CMap@PAUHMENU__@@PAU1@VCString@@AAV2@@@6B@ 0047e7b0     MenuXP.obj
 0002:000077c4       ??_7?$CMap@HHVCImgDesc@@AAV1@@@6B@ 0047e7c4     MenuXP.obj
 0002:000077d8       ??_7?$CMap@PAUHMENU__@@PAU1@VCImgDesc@@AAV2@@@6B@ 0047e7d8     MenuXP.obj
 0002:000077ec       ??_7?$CMap@PAUHWND__@@PAU1@PAVCWndMenuXP@@PAV2@@@6B@ 0047e7ec     MenuXP.obj
 0002:00007800       ?classCSplashScreenEx@CSplashScreenEx@@2UCRuntimeClass@@B 0047e800     SplashScreenEx.obj
 0002:00007818       ?messageMap@CSplashScreenEx@@1UAFX_MSGMAP@@B 0047e818     SplashScreenEx.obj
 0002:00007820       ?_messageEntries@CSplashScreenEx@@0QBUAFX_MSGMAP_ENTRY@@B 0047e820     SplashScreenEx.obj
 0002:00007898       ??_7CSplashScreenEx@@6B@   0047e898     SplashScreenEx.obj
 0002:00007958       ?messageMap@CStatusBarXP@@1UAFX_MSGMAP@@B 0047e958     StatusBarXP.obj
 0002:00007960       ?_messageEntries@CStatusBarXP@@0QBUAFX_MSGMAP_ENTRY@@B 0047e960     StatusBarXP.obj
 0002:00007990       ?classCStatusBarXP@CStatusBarXP@@2UCRuntimeClass@@B 0047e990     StatusBarXP.obj
 0002:000079a8       _IID_IDocHostUIHandlerDispatch 0047e9a8     TBTreeStateMgr.obj
 0002:000079b8       _IID_IInternalConnection   0047e9b8     TBTreeStateMgr.obj
 0002:000079c8       _IID_IAxWinAmbientDispatch 0047e9c8     TBTreeStateMgr.obj
 0002:000079d8       _IID_IAxWinHostWindow      0047e9d8     TBTreeStateMgr.obj
 0002:000079e8       _IID_IRegistrar            0047e9e8     TBTreeStateMgr.obj
 0002:000079f8       _CLSID_Registrar           0047e9f8     TBTreeStateMgr.obj
 0002:00007a08       _LIBID_ATLLib              0047ea08     TBTreeStateMgr.obj
 0002:00007a38       ?messageMap@CTextScroller@@1UAFX_MSGMAP@@B 0047ea38     TextScroller.obj
 0002:00007a40       ?_messageEntries@CTextScroller@@0QBUAFX_MSGMAP_ENTRY@@B 0047ea40     TextScroller.obj
 0002:00007a88       ??_7CTextScroller@@6B@     0047ea88     TextScroller.obj
 0002:00007b48       ??_7?$CList@PAULine@@PAU1@@@6B@ 0047eb48     TextScroller.obj
 0002:00007b60       ?messageMap@CTOListCtrl@@1UAFX_MSGMAP@@B 0047eb60     TOListCtrl.obj
 0002:00007b68       ?_messageEntries@CTOListCtrl@@0QBUAFX_MSGMAP_ENTRY@@B 0047eb68     TOListCtrl.obj
 0002:00007bb0       ??_7CTOListCtrl@@6B@       0047ebb0     TOListCtrl.obj
 0002:00007c78       ?classCTreeCtrlEx@CTreeCtrlEx@@2UCRuntimeClass@@B 0047ec78     TreeCtrlEx.obj
 0002:00007c90       ?messageMap@CTreeCtrlEx@@1UAFX_MSGMAP@@B 0047ec90     TreeCtrlEx.obj
 0002:00007c98       ?_messageEntries@CTreeCtrlEx@@0QBUAFX_MSGMAP_ENTRY@@B 0047ec98     TreeCtrlEx.obj
 0002:00007cc8       ??_7CTreeCtrlEx@@6B@       0047ecc8     TreeCtrlEx.obj
 0002:00007d88       ??_7?$CMap@PAXPAXUColor_Font@CTreeCtrlEx@@AAU12@@@6B@ 0047ed88     TreeCtrlEx.obj
 0002:00007d9c       ??_7CRgn@@6B@              0047ed9c     TreeCtrlEx.obj
 0002:00007db0       ?messageMap@CXComboList@@1UAFX_MSGMAP@@B 0047edb0     XComboList.obj
 0002:00007db8       ?_messageEntries@CXComboList@@0QBUAFX_MSGMAP_ENTRY@@B 0047edb8     XComboList.obj
 0002:00007e60       ??_7CXComboList@@6B@       0047ee60     XComboList.obj
 0002:00007f24       ??_7CScrollBar@@6B@        0047ef24     XComboList.obj
 0002:00007fe8       ?classCXHeaderCtrl@CXHeaderCtrl@@2UCRuntimeClass@@B 0047efe8     XHeaderCtrl.obj
 0002:00008000       ?messageMap@CXHeaderCtrl@@1UAFX_MSGMAP@@B 0047f000     XHeaderCtrl.obj
 0002:00008008       ?_messageEntries@CXHeaderCtrl@@0QBUAFX_MSGMAP_ENTRY@@B 0047f008     XHeaderCtrl.obj
 0002:000080e0       ??_7CXHeaderCtrl@@6B@      0047f0e0     XHeaderCtrl.obj
 0002:000081a8       ?messageMap@CXListCtrl@@1UAFX_MSGMAP@@B 0047f1a8     XListCtrl.obj
 0002:000081b0       ?_messageEntries@CXListCtrl@@0QBUAFX_MSGMAP_ENTRY@@B 0047f1b0     XListCtrl.obj
 0002:00008330       ??_7CXListCtrl@@6B@        0047f330     XListCtrl.obj
 0002:000083f8       ?messageMap@CResizableDialog@@1UAFX_MSGMAP@@B 0047f3f8     ResizableDialog.obj
 0002:00008400       ?_messageEntries@CResizableDialog@@0QBUAFX_MSGMAP_ENTRY@@B 0047f400     ResizableDialog.obj
 0002:00008490       ??_7CResizableDialog@@6BCResizableGrip@@@ 0047f490     ResizableDialog.obj
 0002:00008498       ??_7CResizableDialog@@6BCResizableMinMax@@@ 0047f498     ResizableDialog.obj
 0002:0000849c       ??_7CResizableDialog@@6BCResizableState@@@ 0047f49c     ResizableDialog.obj
 0002:000084a4       ??_7CResizableDialog@@6BCResizableLayout@@@ 0047f4a4     ResizableDialog.obj
 0002:000084bc       ??_7CResizableDialog@@6BCDialog@@@ 0047f4bc     ResizableDialog.obj
 0002:00008594       ??_7CResizableLayout@@6B@  0047f594     ResizableDialog.obj
 0002:000085ac       ??_7?$CArray@VLayoutInfo@CResizableLayout@@AAV12@@@6B@ 0047f5ac     ResizableDialog.obj
 0002:000085c0       ?classCResizableFormView@CResizableFormView@@2UCRuntimeClass@@B 0047f5c0     ResizableFormView.obj
 0002:000085d8       ?messageMap@CResizableFormView@@1UAFX_MSGMAP@@B 0047f5d8     ResizableFormView.obj
 0002:000085e0       ?_messageEntries@CResizableFormView@@0QBUAFX_MSGMAP_ENTRY@@B 0047f5e0     ResizableFormView.obj
 0002:00008628       ??_7CResizableFormView@@6BCResizableLayout@@@ 0047f628     ResizableFormView.obj
 0002:00008640       ??_7CResizableFormView@@6BCFormView@@@ 0047f640     ResizableFormView.obj
 0002:00008750       ??_7CResizableGrip@@6B@    0047f750     ResizableGrip.obj
 0002:00008758       ??_7CResizableMinMax@@6B@  0047f758     ResizableMinMax.obj
 0002:00008760       ?classCResizablePage@CResizablePage@@2UCRuntimeClass@@B 0047f760     ResizablePage.obj
 0002:00008778       ?messageMap@CResizablePage@@1UAFX_MSGMAP@@B 0047f778     ResizablePage.obj
 0002:00008780       ?_messageEntries@CResizablePage@@0QBUAFX_MSGMAP_ENTRY@@B 0047f780     ResizablePage.obj
 0002:000087c8       ??_7CResizablePage@@6BCResizableLayout@@@ 0047f7c8     ResizablePage.obj
 0002:000087e0       ??_7CResizablePage@@6BCPropertyPage@@@ 0047f7e0     ResizablePage.obj
 0002:000088d8       ?classCResizablePageEx@CResizablePageEx@@2UCRuntimeClass@@B 0047f8d8     ResizablePageEx.obj
 0002:000088f0       ?messageMap@CResizablePageEx@@1UAFX_MSGMAP@@B 0047f8f0     ResizablePageEx.obj
 0002:000088f8       ?_messageEntries@CResizablePageEx@@0QBUAFX_MSGMAP_ENTRY@@B 0047f8f8     ResizablePageEx.obj
 0002:00008940       ??_7CResizablePageEx@@6BCResizableLayout@@@ 0047f940     ResizablePageEx.obj
 0002:00008958       ??_7CResizablePageEx@@6BCPropertyPageEx@@@ 0047f958     ResizablePageEx.obj
 0002:00008a50       ?classCResizableSheet@CResizableSheet@@2UCRuntimeClass@@B 0047fa50     ResizableSheet.obj
 0002:00008a68       ?messageMap@CResizableSheet@@1UAFX_MSGMAP@@B 0047fa68     ResizableSheet.obj
 0002:00008a70       ?_messageEntries@CResizableSheet@@0QBUAFX_MSGMAP_ENTRY@@B 0047fa70     ResizableSheet.obj
 0002:00008b18       ??_7CResizableSheet@@6BCResizableGrip@@@ 0047fb18     ResizableSheet.obj
 0002:00008b20       ??_7CResizableSheet@@6BCResizableMinMax@@@ 0047fb20     ResizableSheet.obj
 0002:00008b24       ??_7CResizableSheet@@6BCResizableState@@@ 0047fb24     ResizableSheet.obj
 0002:00008b2c       ??_7CResizableSheet@@6BCResizableLayout@@@ 0047fb2c     ResizableSheet.obj
 0002:00008b44       ??_7CResizableSheet@@6BCPropertySheet@@@ 0047fb44     ResizableSheet.obj
 0002:00008c10       ?classCResizableSheetEx@CResizableSheetEx@@2UCRuntimeClass@@B 0047fc10     ResizableSheetEx.obj
 0002:00008c28       ?messageMap@CResizableSheetEx@@1UAFX_MSGMAP@@B 0047fc28     ResizableSheetEx.obj
 0002:00008c30       ?_messageEntries@CResizableSheetEx@@0QBUAFX_MSGMAP_ENTRY@@B 0047fc30     ResizableSheetEx.obj
 0002:00008cd8       ??_7CResizableSheetEx@@6BCResizableGrip@@@ 0047fcd8     ResizableSheetEx.obj
 0002:00008ce0       ??_7CResizableSheetEx@@6BCResizableMinMax@@@ 0047fce0     ResizableSheetEx.obj
 0002:00008ce4       ??_7CResizableSheetEx@@6BCResizableState@@@ 0047fce4     ResizableSheetEx.obj
 0002:00008cec       ??_7CResizableSheetEx@@6BCResizableLayout@@@ 0047fcec     ResizableSheetEx.obj
 0002:00008d04       ??_7CResizableSheetEx@@6BCPropertySheetEx@@@ 0047fd04     ResizableSheetEx.obj
 0002:00008dd0       ??_7CResizableState@@6B@   0047fdd0     ResizableState.obj
 0002:00008dd8       ??_7CppSQLite3Exception@@6B@ 0047fdd8     CppSQLite3.obj
 0002:00008ddc       ??_7CppSQLite3Query@@6B@   0047fddc     CppSQLite3.obj
 0002:00008de0       ??_7CppSQLite3Table@@6B@   0047fde0     CppSQLite3.obj
 0002:00008de4       ??_7CppSQLite3Statement@@6B@ 0047fde4     CppSQLite3.obj
 0002:00008de8       ??_7CppSQLite3DB@@6B@      0047fde8     CppSQLite3.obj
 0002:00008df0       __real@8@4003f4cd013a92a30800 0047fdf0     julian.obj
 0002:00008df8       __real@8@4007b6a0000000000000 0047fdf8     julian.obj
 0002:00008e00       __real@8@4016f168d70000000000 0047fe00     julian.obj
 0002:00008e08       __real@8@400c9c40000000000000 0047fe08     julian.obj
 0002:00008e10       __real@8@3ffec000000000000000 0047fe10     julian.obj
 0002:00008e18       __real@8@4000a000000000000000 0047fe18     julian.obj
 0002:00008e20       __real@8@4002d800000000000000 0047fe20     julian.obj
 0002:00008e28       __real@8@3ffa85db13dae0e1f800 0047fe28     julian.obj
 0002:00008e30       __real@8@3ff6b36d839791426800 0047fe30     julian.obj
 0002:00008e38       __real@8@4005f433333333333000 0047fe38     julian.obj
 0002:00008e40       __real@8@3fefe5ac1af323e18800 0047fe40     julian.obj
 0002:00008e48       __real@8@4013e3ee820000000000 0047fe48     julian.obj
 0002:00008e50       ??_7CFileException@@6B@    0047fe50     Parseit.obj
 0002:00008e6c       ??_7CSimpleDate@@6B@       0047fe6c     SimpleDate.obj
 0002:00008ed0       __real@8@3fffc000000000000000 0047fed0     SimpleDate.obj
 0002:00008ed8       __real@8@3ff6b36e750df4083800 0047fed8     SimpleDate.obj
 0002:00008f5c       ??_7type_info@@6B@         0047ff5c     msvcrt:ti_inst.obj
 0002:00008fa0       ??_7_com_error@@6B@        0047ffa0     comsupp:comraise.obj
 0002:00008fa8       ??_R1A@?0A@A@type_info@@8  0047ffa8     msvcrt:ti_inst.obj
 0002:00008fc0       ??_R2type_info@@8          0047ffc0     msvcrt:ti_inst.obj
 0002:00008fc8       ??_R3type_info@@8          0047ffc8     msvcrt:ti_inst.obj
 0002:00008fd8       ??_R4type_info@@6B@        0047ffd8     msvcrt:ti_inst.obj
 0002:00008ff0       ??_R1A@?0A@A@_com_error@@8 0047fff0     comsupp:comraise.obj
 0002:00009008       ??_R2_com_error@@8         00480008     comsupp:comraise.obj
 0002:00009010       ??_R3_com_error@@8         00480010     comsupp:comraise.obj
 0002:00009020       ??_R4_com_error@@6B@       00480020     comsupp:comraise.obj
 0002:0000d110       __CT??_R0?AVexception@@@8??0exception@@QAE@ABV0@@Z12 00484110     RunTrainsDialog.obj
 0002:0000d130       __CT??_R0?AVlogic_error@std@@@8??0logic_error@std@@QAE@ABV01@@Z28 00484130     RunTrainsDialog.obj
 0002:0000d150       __CT??_R0?AVout_of_range@std@@@8??0out_of_range@std@@QAE@ABV01@@Z28 00484150     RunTrainsDialog.obj
 0002:0000d170       __CTA3?AVout_of_range@std@@ 00484170     RunTrainsDialog.obj
 0002:0000d180       __TI3?AVout_of_range@std@@ 00484180     RunTrainsDialog.obj
 0002:00012e70       __CT??_R0?AVCppSQLite3Exception@@@8??0CppSQLite3Exception@@QAE@ABV0@@Z12 00489e70     CppSQLite3.obj
 0002:00012e90       __CTA1?AVCppSQLite3Exception@@ 00489e90     CppSQLite3.obj
 0002:00012e98       __TI1?AVCppSQLite3Exception@@ 00489e98     CppSQLite3.obj
 0002:00013a20       __CT??_R0?AV_com_error@@@8??0_com_error@@QAE@ABV0@@Z16 0048aa20     comsupp:comraise.obj
 0002:00013a40       __CTA1?AV_com_error@@      0048aa40     comsupp:comraise.obj
 0002:00013a48       __TI1?AV_com_error@@       0048aa48     comsupp:comraise.obj
 0002:00013a58       __IMPORT_DESCRIPTOR_sqlite3 0048aa58     sqlite3:sqlite3.dll
 0002:00013a6c       __IMPORT_DESCRIPTOR_LIBHPDF 0048aa6c     libhpdf:LIBHPDF.DLL
 0002:00013a80       __IMPORT_DESCRIPTOR_MFC42  0048aa80     mfc42:MFC42.DLL
 0002:00013a94       __IMPORT_DESCRIPTOR_MSVCRT 0048aa94     msvcrt:MSVCRT.dll
 0002:00013aa8       __IMPORT_DESCRIPTOR_KERNEL32 0048aaa8     kernel32:KERNEL32.dll
 0002:00013abc       __IMPORT_DESCRIPTOR_USER32 0048aabc     user32:USER32.dll
 0002:00013ad0       __IMPORT_DESCRIPTOR_GDI32  0048aad0     gdi32:GDI32.dll
 0002:00013ae4       __IMPORT_DESCRIPTOR_SHELL32 0048aae4     shell32:SHELL32.dll
 0002:00013af8       __IMPORT_DESCRIPTOR_COMCTL32 0048aaf8     comctl32:COMCTL32.dll
 0002:00013b0c       __IMPORT_DESCRIPTOR_ole32  0048ab0c     ole32:ole32.dll
 0002:00013b20       __IMPORT_DESCRIPTOR_OLEAUT32 0048ab20     oleaut32:OLEAUT32.dll
 0002:00013b34       __IMPORT_DESCRIPTOR_urlmon 0048ab34     urlmon:urlmon.dll
 0002:00013b48       __IMPORT_DESCRIPTOR_MSVCP60 0048ab48     msvcprt:MSVCP60.dll
 0002:00013b5c       __IMPORT_DESCRIPTOR_SHLWAPI 0048ab5c     shlwapi:SHLWAPI.dll
 0002:00013b70       __IMPORT_DESCRIPTOR_CrashRpt 0048ab70     crashrpt:CrashRpt.dll
 0002:00013b84       __NULL_IMPORT_DESCRIPTOR   0048ab84     sqlite3:sqlite3.dll
 0003:00000000       ___xc_a                    0048e000     msvcrt:cinitexe.obj
 0003:000000b0       ___xc_z                    0048e0b0     msvcrt:cinitexe.obj
 0003:000000b4       ___xi_a                    0048e0b4     msvcrt:cinitexe.obj
 0003:000000b8       ___xi_z                    0048e0b8     msvcrt:cinitexe.obj
 0003:000000c0       ??_C@_0BN@NPGG@LibHaru?5PDF?5Library?5Version?5?$AA@ 0048e0c0     AboutDialog.obj
 0003:000000e0       ??_C@_05GCMA@3?40?48?$AA@  0048e0e0     AboutDialog.obj
 0003:000000e8       ??_C@_0BK@HFFN@SQLite?53?5Library?5Version?5?$AA@ 0048e0e8     AboutDialog.obj
 0003:00000104       ??_C@_0DE@IFCE@This?5program?5uses?5the?5following?5@ 0048e104     AboutDialog.obj
 0003:00000138       ??_C@_0HM@DMOK@Thanks?5to?5Bruce?5Chandler?5for?5all@ 0048e138     AboutDialog.obj
 0003:000001b4       ??_C@_01FCOA@?5?$AA@       0048e1b4     AboutDialog.obj
 0003:000001b8       ??_C@_08JLHF@TrainOps?$AA@ 0048e1b8     AboutDialog.obj
 0003:000001c4       ??_C@_0CM@CCHE@Copyright?5?$KJ?52006?5?9?5?$CFd?5?9?5Large?5Sc@ 0048e1c4     AboutDialog.obj
 0003:000001f0       ??_C@_0CG@LHMM@LSC?5TrainOps?5Version?5?$CFd?4?$CFd?5?$CIBuil@ 0048e1f0     AboutDialog.obj
 0003:00000218       ??_C@_05NOEI@00000?$AA@    0048e218     CabooseDetailDialog.obj
 0003:00000220       ??_C@_0P@KNKN@out_of_service?$AA@ 0048e220     CabooseDetailDialog.obj
 0003:00000230       ??_C@_09KMJB@maintdate?$AA@ 0048e230     CabooseDetailDialog.obj
 0003:0000023c       ??_C@_05NOLD@notes?$AA@    0048e23c     CabooseDetailDialog.obj
 0003:00000244       ??_C@_0BA@DJMP@reporting_marks?$AA@ 0048e244     CabooseDetailDialog.obj
 0003:00000254       ??_C@_0L@PIGE@car_length?$AA@ 0048e254     CabooseDetailDialog.obj
 0003:00000260       ??_C@_0L@HACO@car_number?$AA@ 0048e260     CabooseDetailDialog.obj
 0003:0000026c       ??_C@_0CD@CDGJ@SELECT?5?$CK?5FROM?5Caboose?5WHERE?5id?$DN?$CF@ 0048e26c     CabooseDetailDialog.obj
 0003:00000290       ??_C@_0CN@OJCA@UPDATE?5Caboose?5SET?5maintdate?$DN?$CFd?5@ 0048e290     CabooseDetailDialog.obj
 0003:000002c0       ??_C@_0DC@MOOI@UPDATE?5Caboose?5SET?5out_of_servic@ 0048e2c0     CabooseDetailDialog.obj
 0003:000002f4       ??_C@_0CK@KJMO@UPDATE?5Caboose?5SET?5notes?$DN?$CC?$CFs?$CC?5WH@ 0048e2f4     CabooseDetailDialog.obj
 0003:00000320       ??_C@_0FD@MJML@UPDATE?5Caboose?5SET?5reporting_mar@ 0048e320     CabooseDetailDialog.obj
 0003:00000374       ??_C@_0BL@IJCA@SELECT?5last_insert_rowid?$CI?$CJ?$AA@ 0048e374     CabooseDetailDialog.obj
 0003:00000390       ??_C@_0FD@OCIO@INSERT?5INTO?5Caboose?5?$CIreporting_m@ 0048e390     CabooseDetailDialog.obj
 0003:000003e4       ??_C@_0BH@FJKA@Reporting?5Marks?1Number?$AA@ 0048e3e4     CabooseDialog.obj
 0003:000003fc       ??_C@_05JKGE@?$CFs?5?$CFs?$AA@ 0048e3fc     CabooseDialog.obj
 0003:00000404       ??_C@_0FH@EOOF@SELECT?5id?0reporting_marks?0car_nu@ 0048e404     CabooseDialog.obj
 0003:0000045c       ??_C@_0BB@PNMJ@Caboose?5deleted?$CB?$AA@ 0048e45c     CabooseDialog.obj
 0003:00000470       ??_C@_0CB@EOKM@DELETE?5FROM?5Caboose?5WHERE?5id?$DN?$CFd?$DL@ 0048e470     CabooseDialog.obj
 0003:00000494       ??_C@_0CO@GPDA@Are?5you?5sure?5you?5want?5to?5delete?5@ 0048e494     CabooseDialog.obj
 0003:000004c4       ??_C@_0BJ@LNNL@TrainOps?5Delete?5Caboose?$DP?$AA@ 0048e4c4     CabooseDialog.obj
 0003:000004e0       ??_C@_0IB@HKGE@SELECT?5Trains_Scheduled?4id?0name?0@ 0048e4e0     CarLocationTrainsDialog.obj
 0003:00000564       ??_C@_04EFNI@Name?$AA@     0048e564     CarLocationTrainsDialog.obj
 0003:0000056c       ??_C@_08MAKO@Train?5ID?$AA@ 0048e56c     CarLocationTrainsDialog.obj
 0003:00000578       ??_C@_05PILG@State?$AA@    0048e578     CarsDialog.obj
 0003:00000580       ??_C@_0BJ@MMCO@CarsDialog_m_ctlCarsList?$AA@ 0048e580     CarsDialog.obj
 0003:0000059c       ??_C@_05JDIB@Usage?$AA@    0048e59c     CarsDialog.obj
 0003:000005a4       ??_C@_08JKHI@Quantity?$AA@ 0048e5a4     CarsDialog.obj
 0003:000005b0       ??_C@_08HBJF@Car?5Type?$AA@ 0048e5b0     CarsDialog.obj
 0003:000005bc       ??_C@_08CDBE@Car?5Code?$AA@ 0048e5bc     CarsDialog.obj
 0003:000005c8       ??_C@_07MMNM@?$CF3?40f?$CF?$CF?$AA@ 0048e5c8     CarsDialog.obj
 0003:000005d0       ??_C@_08FEHD@carcount?$AA@ 0048e5d0     CarsDialog.obj
 0003:000005dc       ??_C@_0DM@IKDI@SELECT?5count?$CI?$CK?$CJ?5AS?5carcount?5FROM@ 0048e5dc     CarsDialog.obj
 0003:00000618       ??_C@_0M@GLLD@description?$AA@ 0048e618     CarsDialog.obj
 0003:00000624       ??_C@_02IBHF@id?$AA@       0048e624     CarsDialog.obj
 0003:00000628       ??_C@_07NAGJ@type_id?$AA@  0048e628     CarsDialog.obj
 0003:00000630       ??_C@_0FB@LPAA@select?5id?0description?0type_id?5fr@ 0048e630     CarsDialog.obj
 0003:00000684       ??_C@_0FP@FPAN@INSERT?5INTO?5Cars?5?$CICarTypes_FK?0ca@ 0048e684     CarsDialog.obj
 0003:000006e4       ??_C@_0DA@CDKE@select?5id?5from?5CarTypes?5where?5de@ 0048e6e4     CarsDialog.obj
 0003:00000714       ??_C@_07BAPN@numcars?$AA@  0048e714     CarsDialog.obj
 0003:0000071c       ??_C@_0DL@NCEK@SELECT?5count?$CI?$CK?$CJ?5AS?5numcars?5FROM?5@ 0048e71c     CarsDialog.obj
 0003:00000758       ??_C@_0O@MOHA@LoadEmptyDays?$AA@ 0048e758     CarsDialog.obj
 0003:00000768       ??_C@_0BE@EHOD@Quantity_percentage?$AA@ 0048e768     CarsDialog.obj
 0003:0000077c       ??_C@_0O@PMIP@Quantity_high?$AA@ 0048e77c     CarsDialog.obj
 0003:0000078c       ??_C@_0N@IBPB@Quantity_low?$AA@ 0048e78c     CarsDialog.obj
 0003:0000079c       ??_C@_0HA@KFKK@SELECT?5Quantity_low?0Quantity_hig@ 0048e79c     CarsDialog.obj
 0003:0000080c       ??_C@_0N@CGKC@Current?5Load?$AA@ 0048e80c     CarsListDialog.obj
 0003:0000081c       ??_C@_01FKLC@F?$AA@        0048e81c     CarsListDialog.obj
 0003:00000820       ??_C@_03MFJB@E?1L?$AA@     0048e820     CarsListDialog.obj
 0003:00000824       ??_C@_04HOCP@Lgth?$AA@     0048e824     CarsListDialog.obj
 0003:0000082c       ??_C@_09IKAD@Return?5to?$AA@ 0048e82c     CarsListDialog.obj
 0003:00000838       ??_C@_0M@OEDC@Destination?$AA@ 0048e838     CarsListDialog.obj
 0003:00000844       ??_C@_08KDKK@Location?$AA@ 0048e844     CarsListDialog.obj
 0003:00000850       ??_C@_0BA@KKAB@Reporting?5Marks?$AA@ 0048e850     CarsListDialog.obj
 0003:00000860       ??_C@_0L@BPKA@Car?5Number?$AA@ 0048e860     CarsListDialog.obj
 0003:0000086c       ??_C@_0P@HBFM@Cars?5List?5?9?5?$CFs?$AA@ 0048e86c     CarsListDialog.obj
 0003:0000087c       ??_C@_0CN@BFNF@SELECT?5description?5FROM?5CarTypes@ 0048e87c     CarsListDialog.obj
 0003:000008ac       ??_C@_0CI@N@SELECT?5name?5FROM?5Industries?5WHER@ 0048e8ac     CarsListDialog.obj
 0003:000008d4       ??_C@_08ODDO@returnto?$AA@ 0048e8d4     CarsListDialog.obj
 0003:000008e0       ??_C@_0CH@OGPD@SELECT?5name?5FROM?5Locations?5WHERE@ 0048e8e0     CarsListDialog.obj
 0003:00000908       ??_C@_0M@KBNO@Location_FK?$AA@ 0048e908     CarsListDialog.obj
 0003:00000914       ??_C@_0P@KJHD@Location_to_FK?$AA@ 0048e914     CarsListDialog.obj
 0003:00000924       ??_C@_04OPJK@name?$AA@     0048e924     CarsListDialog.obj
 0003:0000092c       ??_C@_0DB@JLBN@SELECT?5Locations?4name?5FROM?5Locat@ 0048e92c     CarsListDialog.obj
 0003:00000960       ??_C@_0BB@KHGG@Location_from_FK?$AA@ 0048e960     CarsListDialog.obj
 0003:00000974       ??_C@_0KD@GDJE@SELECT?5Location_from_FK?0?5Locatio@ 0048e974     CarsListDialog.obj
 0003:00000a18       ??_C@_01PCJP@Y?$AA@        0048ea18     CarsListDialog.obj
 0003:00000a1c       ??_C@_0N@IAIF@foreign_road?$AA@ 0048ea1c     CarsListDialog.obj
 0003:00000a2c       ??_C@_01KFAL@E?$AA@        0048ea2c     CarsListDialog.obj
 0003:00000a30       ??_C@_01FLCE@L?$AA@        0048ea30     CarsListDialog.obj
 0003:00000a34       ??_C@_09OEPM@loadempty?$AA@ 0048ea34     CarsListDialog.obj
 0003:00000a40       ??_C@_04BDFJ@?$CFd?5?$CK?$AA@ 0048ea40     CarsListDialog.obj
 0003:00000a48       ??_C@_03JFOM@?$CFld?$AA@   0048ea48     CarsListDialog.obj
 0003:00000a4c       ??_C@_0KM@BOCH@SELECT?5id?0reporting_marks?0car_nu@ 0048ea4c     CarsListDialog.obj
 0003:00000af8       ??_C@_0DE@BMJ@DELETE?5FROM?5Trains_Scheduled_Car@ 0048eaf8     CarsListDialog.obj
 0003:00000b2c       ??_C@_0BO@GFPA@DELETE?5FROM?5Cars?5WHERE?5id?$DN?$CFd?$DL?$AA@ 0048eb2c     CarsListDialog.obj
 0003:00000b4c       ??_C@_0IH@EJED@WARNING?3?6Deleting?5a?5car?5can?5caus@ 0048eb4c     CarsListDialog.obj
 0003:00000bd4       ??_C@_0BE@KOEE@TrainOps?5Delete?5Car?$AA@ 0048ebd4     CarsListDialog.obj
 0003:00000be8       ??_C@_0FB@KBLO@INSERT?5INTO?5Cars?5?$CICarTypes_FK?0ca@ 0048ebe8     CarsListDialog.obj
 0003:00000c3c       ??_C@_09LGA@passenger?$AA@ 0048ec3c     CarTypesDetailDialog.obj
 0003:00000c48       ??_C@_0CD@BECD@SELECT?5?$CK?5FROM?5CarTypes?5WHERE?5id?$DN@ 0048ec48     CarTypesDetailDialog.obj
 0003:00000c6c       ??_C@_0EL@IPCF@UPDATE?5CarTypes?5SET?5type_id?$DN?$CC?$CFs?$CC@ 0048ec6c     CarTypesDetailDialog.obj
 0003:00000cb8       ??_C@_0FM@MCAO@INSERT?5INTO?5CarTypes?5?$CIid?0type_id@ 0048ecb8     CarTypesDetailDialog.obj
 0003:00000d14       ??_C@_0BC@GMMH@Duplcate?5Type?5ID?$CB?$AA@ 0048ed14     CarTypesDetailDialog.obj
 0003:00000d28       ??_C@_0BD@EHPL@LSC?5TrainOps?5Error?$AA@ 0048ed28     CarTypesDetailDialog.obj
 0003:00000d3c       ??_C@_0CK@JECG@SELECT?51?5FROM?5CarTypes?5WHERE?5typ@ 0048ed3c     CarTypesDetailDialog.obj
 0003:00000d68       ??_C@_0BA@BEAL@Car?5Description?$AA@ 0048ed68     CarTypesDialog.obj
 0003:00000d78       ??_C@_0DE@EJHI@select?5id?0type_id?0description?0ac@ 0048ed78     CarTypesDialog.obj
 0003:00000dac       ??_C@_0CC@BMOI@DELETE?5FROM?5CarTypes?5WHERE?5id?$DN?$CFd@ 0048edac     CarTypesDialog.obj
 0003:00000dd0       ??_C@_0FO@KCBG@There?5are?5still?5cars?5using?5this?5@ 0048edd0     CarTypesDialog.obj
 0003:00000e30       ??_C@_0P@NCGJ@TrainOps?5Error?$AA@ 0048ee30     CarTypesDialog.obj
 0003:00000e40       ??_C@_0CJ@IOPJ@SELECT?51?5FROM?5Cars?5WHERE?5CarType@ 0048ee40     CarTypesDialog.obj
 0003:00000e6c       ??_C@_0CP@OEJP@Are?5you?5sure?5you?5want?5to?5delete?5@ 0048ee6c     CarTypesDialog.obj
 0003:00000e9c       ??_C@_0N@CEGF@LSC?5TrainOps?$AA@ 0048ee9c     CarTypesDialog.obj
 0003:00000eac       ??_C@_0DA@POLK@UPDATE?5CarTypes?5SET?5active?$DN0?5WHE@ 0048eeac     CarTypesDialog.obj
 0003:00000edc       ??_C@_0DA@LNEE@UPDATE?5CarTypes?5SET?5active?$DN1?5WHE@ 0048eedc     CarTypesDialog.obj
 0003:00000f0c       ??_C@_09KLHB@Commodity?$AA@ 0048ef0c     CommoditiesDialog.obj
 0003:00000f18       ??_C@_0CB@EAEP@SELECT?5id?0name?5FROM?5Commodities?$DL@ 0048ef18     CommoditiesDialog.obj
 0003:00000f3c       ??_C@_0BD@KIEI@Commodity?5Deleted?$CB?$AA@ 0048ef3c     CommoditiesDialog.obj
 0003:00000f50       ??_C@_0CF@FFLF@DELETE?5FROM?5Commodities?5WHERE?5id@ 0048ef50     CommoditiesDialog.obj
 0003:00000f78       ??_C@_0DA@KMGD@Are?5you?5sure?5you?5want?5to?5delete?5@ 0048ef78     CommoditiesDialog.obj
 0003:00000fa8       ??_C@_0BC@IBOE@TrainOps?5Question?$AA@ 0048efa8     CommoditiesDialog.obj
 0003:00000fbc       ??_C@_0L@KNCB@MM?9dd?9yyyy?$AA@ 0048efbc     EditCarDialog.obj
 0003:00000fc8       ??_C@_0CF@PFO@SELECT?5name?5FROM?5Sidings?5WHERE?5i@ 0048efc8     EditCarDialog.obj
 0003:00000ff0       ??_C@_0BA@PBKD@interchange_via?$AA@ 0048eff0     EditCarDialog.obj
 0003:00001000       ??_C@_07GCM@tonnage?$AA@   0048f000     EditCarDialog.obj
 0003:00001008       ??_C@_02MECO@?$CFd?$AA@    0048f008     EditCarDialog.obj
 0003:0000100c       ??_C@_0CA@LBEO@SELECT?5?$CK?5FROM?5Cars?5WHERE?5id?$DN?$CFd?$DL?$AA@ 0048f00c     EditCarDialog.obj
 0003:0000102c       ??_C@_0BC@FLEM@?9Any?5Interchange?9?$AA@ 0048f02c     EditCarDialog.obj
 0003:00001040       ??_C@_0DP@HDNG@SELECT?5id?0name?5FROM?5Sidings?5WHER@ 0048f040     EditCarDialog.obj
 0003:00001080       ??_C@_0CN@IDLB@SELECT?5id?0name?5FROM?5Industries?5O@ 0048f080     EditCarDialog.obj
 0003:000010b0       ??_C@_0CO@PNNF@UPDATE?5cars?5SET?5interchange_via?$DN@ 0048f0b0     EditCarDialog.obj
 0003:000010e0       ??_C@_0CP@PHLE@UPDATE?5cars?5SET?5interchange_via?$DN@ 0048f0e0     EditCarDialog.obj
 0003:00001110       ??_C@_0CK@BAPK@UPDATE?5cars?5SET?5maintdate?$DN?$CFd?5WHE@ 0048f110     EditCarDialog.obj
 0003:0000113c       ??_C@_0FK@BKEH@UPDATE?5cars?5SET?5out_of_service?$DN?$CF@ 0048f13c     EditCarDialog.obj
 0003:00001198       ??_C@_0CP@OGBN@UPDATE?5cars?5SET?5out_of_service?$DN?$CF@ 0048f198     EditCarDialog.obj
 0003:000011c8       ??_C@_0JM@MFMM@UPDATE?5cars?5SET?5reporting_marks?$DN@ 0048f1c8     EditCarDialog.obj
 0003:00001264       ??_C@_01HMO@?$CC?$AA@      0048f264     EditCarDialog.obj
 0003:00001268       ??_C@_0O@LGKI@New?5Commodity?$AA@ 0048f268     EditCommodityDialog.obj
 0003:00001278       ??_C@_0BK@GFJJ@?$DPError?5Reading?5Commodity?$DP?$AA@ 0048f278     EditCommodityDialog.obj
 0003:00001294       ??_C@_0CK@IMM@SELECT?5name?5FROM?5Commodities?5WHE@ 0048f294     EditCommodityDialog.obj
 0003:000012c0       ??_C@_0EL@FAPF@SELECT?51?5FROM?5Commodities_Cars?5W@ 0048f2c0     EditCommodityDialog.obj
 0003:0000130c       ??_C@_0DE@GGFD@select?5id?0description?5from?5CarTy@ 0048f30c     EditCommodityDialog.obj
 0003:00001340       ??_C@_09LOJI@Car?5Types?$AA@ 0048f340     EditCommodityDialog.obj
 0003:0000134c       ??_C@_0EK@NPCB@INSERT?5INTO?5Commodities_Cars?5?$CICo@ 0048f34c     EditCommodityDialog.obj
 0003:00001398       ??_C@_0DG@EALJ@DELETE?5FROM?5Commodities_Cars?5WHE@ 0048f398     EditCommodityDialog.obj
 0003:000013d0       ??_C@_0CO@BHMB@UPDATE?5Commodities?5SET?5name?$DN?$CC?$CFs?$CC@ 0048f3d0     EditCommodityDialog.obj
 0003:00001400       ??_C@_0CO@EBGO@INSERT?5INTO?5Commodities?5?$CIname?$CJ?5V@ 0048f400     EditCommodityDialog.obj
 0003:00001430       ??_C@_0KI@DCPE@SELECT?5Trains_Location?4Location_@ 0048f430     EditTrainDialog.obj
 0003:000014d8       ??_C@_04KEOD@ZZZZ?$AA@     0048f4d8     EditTrainDialog.obj
 0003:000014e0       ??_C@_0P@BOIB@Un?9named?5Train?$AA@ 0048f4e0     EditTrainDialog.obj
 0003:000014f0       ??_C@_0CM@DBBO@SELECT?5name?0trainid?5FROM?5Trains?5@ 0048f4f0     EditTrainDialog.obj
 0003:0000151c       ??_C@_0BP@HCOA@SELECT?5id?0name?5FROM?5Locations?$DL?$AA@ 0048f51c     EditTrainDialog.obj
 0003:0000153c       ??_C@_0EK@FKGB@CREATE?5TEMP?5TABLE?5_TI?5AS?5SELECT?5@ 0048f53c     EditTrainDialog.obj
 0003:00001588       ??_C@_0EK@LCAK@CREATE?5TEMP?5TABLE?5_TL?5AS?5SELECT?5@ 0048f588     EditTrainDialog.obj
 0003:000015d4       ??_C@_0CL@IECC@INSERT?5INTO?5_TL?5?$CILocation_FK?$CJ?5VA@ 0048f5d4     EditTrainDialog.obj
 0003:00001600       ??_C@_0CG@DPN@DELETE?5FROM?5_TL?5WHERE?5Location_F@ 0048f600     EditTrainDialog.obj
 0003:00001628       ??_C@_0BE@GPJF@switch_interchanges?$AA@ 0048f628     EditTrainDialog.obj
 0003:0000163c       ??_C@_0DK@EJFL@SELECT?5switch_interchanges?5FROM?5@ 0048f63c     EditTrainDialog.obj
 0003:00001678       ??_C@_0EG@FADL@SELECT?51?5FROM?5Sidings?5WHERE?5Sidi@ 0048f678     EditTrainDialog.obj
